

Microchip MPLAB XC8 Assembler V2.36 build 20220127204148 
                                                                                               Fri Jul 22 21:09:15 2022

Microchip MPLAB XC8 C Compiler v2.36 (Free license) build 20220127204148 Og1 
     1                           	processor	18F47Q10
     2                           	fnconf	rparam,??,?,0
     3                           	pagewidth 120
     4                           	opt	flic
     5                           	psect	smallconst,global,reloc=2,class=SMALLCONST,delta=1,noexec
     6                           	psect	nvCOMRAM,global,class=COMRAM,space=1,delta=1,lowdata,noexec
     7                           	psect	nvBANK0,global,class=BANK0,space=1,delta=1,lowdata,noexec
     8                           	psect	cinit,global,reloc=2,class=CODE,delta=1
     9                           	psect	bssCOMRAM,global,class=COMRAM,space=1,delta=1,lowdata,noexec
    10                           	psect	bssBANK0,global,class=BANK0,space=1,delta=1,lowdata,noexec
    11                           	psect	bssBANK2,global,class=BANK2,space=1,delta=1,lowdata,noexec
    12                           	psect	bssBANK3,global,class=BANK3,space=1,delta=1,lowdata,noexec
    13                           	psect	bssBIGRAM,global,class=BIGRAM,space=1,delta=1,noexec
    14                           	psect	cstackBANK4,global,class=BANK4,space=1,delta=1,lowdata,noexec
    15                           	psect	cstackBANK1,global,class=BANK1,space=1,delta=1,lowdata,noexec
    16                           	psect	cstackBANK0,global,class=BANK0,space=1,delta=1,lowdata,noexec
    17                           	psect	cstackCOMRAM,global,class=COMRAM,space=1,delta=1,lowdata,noexec
    18                           	psect	text0,global,reloc=2,class=CODE,delta=1
    19                           	psect	text1,global,reloc=2,class=CODE,delta=1,group=3
    20                           	psect	text2,global,reloc=2,class=CODE,delta=1,group=1
    21                           	psect	text3,global,reloc=2,class=CODE,delta=1,group=1
    22                           	psect	text4,global,reloc=2,class=CODE,delta=1,group=1
    23                           	psect	text5,global,reloc=2,class=CODE,delta=1,group=1
    24                           	psect	text6,global,reloc=2,class=CODE,delta=1,group=3
    25                           	psect	text7,global,reloc=2,class=CODE,delta=1,group=3
    26                           	psect	text8,global,reloc=2,class=CODE,delta=1,group=3
    27                           	psect	text9,global,reloc=2,class=CODE,delta=1
    28                           	psect	text10,global,reloc=2,class=CODE,delta=1
    29                           	psect	text11,global,reloc=2,class=CODE,delta=1,group=3
    30                           	psect	text12,global,reloc=2,class=CODE,delta=1,group=2
    31                           	psect	text13,global,reloc=2,class=CODE,delta=1,group=2
    32                           	psect	text14,global,reloc=2,class=CODE,delta=1
    33                           	psect	text15,global,reloc=2,class=CODE,delta=1
    34                           	psect	text16,global,reloc=2,class=CODE,delta=1
    35                           	psect	text17,global,reloc=2,class=CODE,delta=1
    36                           	psect	text18,global,reloc=2,class=CODE,delta=1
    37                           	psect	text19,global,reloc=2,class=CODE,delta=1
    38                           	psect	text20,global,reloc=2,class=CODE,delta=1
    39                           	psect	text21,global,reloc=2,class=CODE,delta=1
    40                           	psect	text22,global,reloc=2,class=CODE,delta=1
    41                           	psect	text23,global,reloc=2,class=CODE,delta=1
    42                           	psect	text24,global,reloc=2,class=CODE,delta=1
    43                           	psect	text25,global,reloc=2,class=CODE,delta=1
    44                           	psect	text26,global,reloc=2,class=CODE,delta=1
    45                           	psect	text27,global,reloc=2,class=CODE,delta=1,group=3
    46                           	psect	text28,global,reloc=2,class=CODE,delta=1,group=3
    47                           	psect	text29,global,reloc=2,class=CODE,delta=1
    48                           	psect	text30,global,reloc=2,class=CODE,delta=1
    49                           	psect	text31,global,reloc=2,class=CODE,delta=1
    50                           	psect	text32,global,reloc=2,class=CODE,delta=1
    51                           	psect	text33,global,reloc=2,class=CODE,delta=1
    52                           	psect	text34,global,reloc=2,class=CODE,delta=1
    53                           	psect	text35,global,reloc=2,class=CODE,delta=1
    54                           	psect	text36,global,reloc=2,class=CODE,delta=1,inline
    55                           	psect	text37,global,reloc=2,class=CODE,delta=1,inline
    56                           	psect	text38,global,reloc=2,class=CODE,delta=1
    57                           	psect	text39,global,reloc=2,class=CODE,delta=1
    58                           	psect	text40,global,reloc=2,class=CODE,delta=1,inline
    59                           	psect	text41,global,reloc=2,class=CODE,delta=1
    60                           	psect	text42,global,reloc=2,class=CODE,delta=1,inline
    61                           	psect	text43,global,reloc=2,class=CODE,delta=1,inline
    62                           	psect	text44,global,reloc=2,class=CODE,delta=1,inline
    63                           	psect	intcode,global,reloc=2,class=CODE,delta=1
    64                           	psect	text46,global,reloc=2,class=CODE,delta=1
    65                           	psect	text47,global,reloc=2,class=CODE,delta=1,inline
    66                           	psect	text48,global,reloc=2,class=CODE,delta=1,inline
    67                           	psect	text49,global,reloc=2,class=CODE,delta=1
    68                           	psect	text50,global,reloc=2,class=CODE,delta=1
    69                           	psect	text51,global,reloc=2,class=CODE,delta=1
    70                           	psect	text52,global,reloc=2,class=CODE,delta=1
    71                           	psect	text53,global,reloc=2,class=CODE,delta=1
    72                           	psect	text54,global,reloc=2,class=CODE,delta=1
    73                           	psect	text55,global,reloc=2,class=CODE,delta=1
    74                           	psect	text56,global,reloc=2,class=CODE,delta=1
    75                           	psect	text57,global,reloc=2,class=CODE,delta=1
    76                           	psect	text58,global,reloc=2,class=CODE,delta=1
    77                           	psect	text59,global,reloc=2,class=CODE,delta=1
    78                           	psect	text60,global,reloc=2,class=CODE,delta=1
    79                           	psect	text61,global,reloc=2,class=CODE,delta=1
    80                           	psect	text62,global,reloc=2,class=CODE,delta=1
    81                           	psect	text63,global,reloc=2,class=CODE,delta=1
    82                           	psect	text64,global,reloc=2,class=CODE,delta=1
    83                           	psect	text65,global,reloc=2,class=CODE,delta=1,inline
    84                           	psect	text66,global,reloc=2,class=CODE,delta=1,inline
    85                           	psect	text67,global,reloc=2,class=CODE,delta=1,inline
    86                           	psect	text68,global,reloc=2,class=CODE,delta=1,inline
    87                           	psect	text69,global,reloc=2,class=CODE,delta=1,inline
    88                           	psect	text70,global,reloc=2,class=CODE,delta=1,inline
    89                           	psect	text71,global,reloc=2,class=CODE,delta=1,inline
    90                           	psect	text72,global,reloc=2,class=CODE,delta=1
    91                           	psect	text73,global,reloc=2,class=CODE,delta=1
    92                           	psect	text74,global,reloc=2,class=CODE,delta=1
    93                           	psect	text75,global,reloc=2,class=CODE,delta=1
    94                           	psect	text76,global,reloc=2,class=CODE,delta=1
    95                           	psect	text77,global,reloc=2,class=CODE,delta=1
    96                           	psect	text78,global,reloc=2,class=CODE,delta=1
    97                           	psect	text79,global,reloc=2,class=CODE,delta=1
    98                           	psect	text80,global,reloc=2,class=CODE,delta=1
    99                           	psect	text81,global,reloc=2,class=CODE,delta=1
   100                           	psect	text82,global,reloc=2,class=CODE,delta=1
   101                           	psect	text83,global,reloc=2,class=CODE,delta=1,inline
   102                           	psect	text84,global,reloc=2,class=CODE,delta=1,inline
   103                           	psect	text85,global,reloc=2,class=CODE,delta=1
   104                           	psect	text86,global,reloc=2,class=CODE,delta=1
   105                           	psect	text87,global,reloc=2,class=CODE,delta=1
   106                           	psect	text88,global,reloc=2,class=CODE,delta=1
   107                           	psect	text89,global,reloc=2,class=CODE,delta=1
   108                           	psect	text90,global,reloc=2,class=CODE,delta=1
   109                           	psect	intsave_regs,global,class=BIGRAM,space=1,delta=1,noexec
   110                           	psect	text91,global,reloc=2,class=CODE,delta=1
   111                           	psect	rparam,global,class=COMRAM,space=1,delta=1,noexec
   112                           	psect	temp,global,ovrld,common,class=COMRAM,space=1,delta=1
   113                           	psect	idloc,global,abs,ovrld,class=IDLOC,space=5,delta=1,noexec
   114                           	psect	config,global,abs,ovrld,class=CONFIG,space=4,delta=1,noexec
   115  0000                     
   116                           ; Version 2.36
   117                           ; Generated 28/01/2022 GMT
   118                           ; 
   119                           ; Copyright © 2022, Microchip Technology Inc. and its subsidiaries ("Microchip")
   120                           ; All rights reserved.
   121                           ; 
   122                           ; This software is developed by Microchip Technology Inc. and its subsidiaries ("Microch
      +                          ip").
   123                           ; 
   124                           ; Redistribution and use in source and binary forms, with or without modification, are
   125                           ; permitted provided that the following conditions are met:
   126                           ; 
   127                           ;     1. Redistributions of source code must retain the above copyright notice, this lis
      +                          t of
   128                           ;        conditions and the following disclaimer.
   129                           ; 
   130                           ;     2. Redistributions in binary form must reproduce the above copyright notice, this 
      +                          list
   131                           ;        of conditions and the following disclaimer in the documentation and/or other
   132                           ;        materials provided with the distribution. Publication is not required when
   133                           ;        this file is used in an embedded application.
   134                           ; 
   135                           ;     3. Microchip's name may not be used to endorse or promote products derived from th
      +                          is
   136                           ;        software without specific prior written permission.
   137                           ; 
   138                           ; THIS SOFTWARE IS PROVIDED BY MICROCHIP "AS IS" AND ANY EXPRESS OR IMPLIED WARRANTIES,
   139                           ; INCLUDING, BUT NOT LIMITED TO, THE IMPLIED WARRANTIES OF MERCHANTABILITY AND FITNESS F
      +                          OR
   140                           ; PURPOSE ARE DISCLAIMED.  IN NO EVENT SHALL MICROCHIP BE LIABLE FOR ANY DIRECT, INDIREC
      +                          T,
   141                           ; INCIDENTAL, SPECIAL, EXEMPLARY, OR CONSEQUENTIAL DAMAGES (INCLUDING BUT NOT LIMITED TO
   142                           ; PROCUREMENT OF SUBSTITUTE GOODS OR SERVICES; LOSS OF USE, DATA OR PROFITS; OR BUSINESS
   143                           ; INTERRUPTION) HOWSOEVER CAUSED AND ON ANY THEORY OF LIABILITY, WHETHER IN CONTRACT, ST
      +                          RICT
   144                           ; LIABILITY, OR TORT (INCLUDING NEGLIGENCE OR OTHERWISE) ARISING IN ANY WAY OUT OF THE U
      +                          SE OF
   145                           ; THIS SOFTWARE, EVEN IF ADVISED OF THE POSSIBILITY OF SUCH DAMAGE.
   146                           ; 
   147                           ; 
   148                           ; Code-generator required, PIC18F47Q10 Definitions
   149                           ; 
   150                           ; SFR Addresses
   151  0000                     
   152 ;; Function _EUSART2_is_tx_ready is unused but had its address taken
   153  0000                     
   154 ;; Function _EUSART2_is_rx_ready is unused but had its address taken
   155  0000                     
   156 ;; Function _EUSART2_is_tx_done is unused but had its address taken
   157  0000                     
   158 ;; Function _EUSART2_Read is unused but had its address taken
   159  0000                     
   160                           	psect	smallconst
   161  000F00                     __psmallconst:
   162                           	callstack 0
   163  000F00  00                 	db	0
   164  000F01                     _fsmStateTable:
   165                           	callstack 0
   166  000F01  BE                 	db	low _I2C1_DO_IDLE
   167  000F02  28                 	db	high _I2C1_DO_IDLE
   168  000F03  00                 	db	low (_I2C1_DO_IDLE shr (0+16))
   169  000F04  42                 	db	low _I2C1_DO_SEND_ADR_READ
   170  000F05  28                 	db	high _I2C1_DO_SEND_ADR_READ
   171  000F06  00                 	db	low (_I2C1_DO_SEND_ADR_READ shr (0+16))
   172  000F07  32                 	db	low _I2C1_DO_SEND_ADR_WRITE
   173  000F08  28                 	db	high _I2C1_DO_SEND_ADR_WRITE
   174  000F09  00                 	db	low (_I2C1_DO_SEND_ADR_WRITE shr (0+16))
   175  000F0A  58                 	db	low _I2C1_DO_TX
   176  000F0B  1A                 	db	high _I2C1_DO_TX
   177  000F0C  00                 	db	low (_I2C1_DO_TX shr (0+16))
   178  000F0D  4E                 	db	low _I2C1_DO_RX
   179  000F0E  1D                 	db	high _I2C1_DO_RX
   180  000F0F  00                 	db	low (_I2C1_DO_RX shr (0+16))
   181  000F10  B2                 	db	low _I2C1_DO_RCEN
   182  000F11  28                 	db	high _I2C1_DO_RCEN
   183  000F12  00                 	db	low (_I2C1_DO_RCEN shr (0+16))
   184  000F13  3C                 	db	low _I2C1_DO_TX_EMPTY
   185  000F14  21                 	db	high _I2C1_DO_TX_EMPTY
   186  000F15  00                 	db	low (_I2C1_DO_TX_EMPTY shr (0+16))
   187  000F16  0C                 	db	low _I2C1_DO_SEND_RESTART_READ
   188  000F17  29                 	db	high _I2C1_DO_SEND_RESTART_READ
   189  000F18  00                 	db	low (_I2C1_DO_SEND_RESTART_READ shr (0+16))
   190  000F19  04                 	db	low _I2C1_DO_SEND_RESTART_WRITE
   191  000F1A  29                 	db	high _I2C1_DO_SEND_RESTART_WRITE
   192  000F1B  00                 	db	low (_I2C1_DO_SEND_RESTART_WRITE shr (0+16))
   193  000F1C  FC                 	db	low _I2C1_DO_SEND_RESTART
   194  000F1D  28                 	db	high _I2C1_DO_SEND_RESTART
   195  000F1E  00                 	db	low (_I2C1_DO_SEND_RESTART shr (0+16))
   196  000F1F  F4                 	db	low _I2C1_DO_SEND_STOP
   197  000F20  28                 	db	high _I2C1_DO_SEND_STOP
   198  000F21  00                 	db	low (_I2C1_DO_SEND_STOP shr (0+16))
   199  000F22  EC                 	db	low _I2C1_DO_RX_ACK
   200  000F23  28                 	db	high _I2C1_DO_RX_ACK
   201  000F24  00                 	db	low (_I2C1_DO_RX_ACK shr (0+16))
   202  000F25  E4                 	db	low _I2C1_DO_RX_NACK_STOP
   203  000F26  28                 	db	high _I2C1_DO_RX_NACK_STOP
   204  000F27  00                 	db	low (_I2C1_DO_RX_NACK_STOP shr (0+16))
   205  000F28  DC                 	db	low _I2C1_DO_RX_NACK_RESTART
   206  000F29  28                 	db	high _I2C1_DO_RX_NACK_RESTART
   207  000F2A  00                 	db	low (_I2C1_DO_RX_NACK_RESTART shr (0+16))
   208  000F2B  A6                 	db	low _I2C1_DO_RESET
   209  000F2C  28                 	db	high _I2C1_DO_RESET
   210  000F2D  00                 	db	low (_I2C1_DO_RESET shr (0+16))
   211  000F2E  26                 	db	low _I2C1_DO_ADDRESS_NACK
   212  000F2F  22                 	db	high _I2C1_DO_ADDRESS_NACK
   213  000F30  00                 	db	low (_I2C1_DO_ADDRESS_NACK shr (0+16))
   214  000F31                     __end_of_fsmStateTable:
   215                           	callstack 0
   216  000F31                     _uart:
   217                           	callstack 0
   218  000F31  00                 	db	0
   219  000F32  00                 	db	0
   220  000F33  00                 	db	0
   221  000F34  F8                 	db	low _EUSART2_Write
   222  000F35  22                 	db	high _EUSART2_Write
   223  000F36  00                 	db	low (_EUSART2_Write shr (0+16))
   224  000F37  00                 	db	0
   225  000F38  00                 	db	0
   226  000F39  00                 	db	0
   227  000F3A  00                 	db	0
   228  000F3B  00                 	db	0
   229  000F3C  00                 	db	0
   230  000F3D  52                 	db	low _EUSART2_SetTxInterruptHandler
   231  000F3E  28                 	db	high _EUSART2_SetTxInterruptHandler
   232  000F3F  00                 	db	low (_EUSART2_SetTxInterruptHandler shr (0+16))
   233  000F40  20                 	db	low _EUSART2_Receive_ISR
   234  000F41  1B                 	db	high _EUSART2_Receive_ISR
   235  000F42  00                 	db	low (_EUSART2_Receive_ISR shr (0+16))
   236  000F43  60                 	db	low _EUSART2_SetRxInterruptHandler
   237  000F44  28                 	db	high _EUSART2_SetRxInterruptHandler
   238  000F45  00                 	db	low (_EUSART2_SetRxInterruptHandler shr (0+16))
   239  000F46  00                 	db	0
   240  000F47  00                 	db	0
   241  000F48  00                 	db	0
   242  000F49  C2                 	db	low _EUSART2_Transmit_ISR
   243  000F4A  24                 	db	high _EUSART2_Transmit_ISR
   244  000F4B  00                 	db	low (_EUSART2_Transmit_ISR shr (0+16))
   245  000F4C  8C                 	db	low _EUSART2_Initialize
   246  000F4D  1E                 	db	high _EUSART2_Initialize
   247  000F4E  00                 	db	low (_EUSART2_Initialize shr (0+16))
   248  000F4F                     __end_of_uart:
   249                           	callstack 0
   250  000F4F  50                 	db	80
   251  000F50                     __end_of_MB85RC256V_I2C_ADDR:
   252                           	callstack 0
   253  000F50  50                 	db	80
   254  000F51                     __end_of_FRAM_ADDRESS:
   255                           	callstack 0
   256  0000                     _INLVLD	set	3869
   257  0000                     _SLRCOND	set	3870
   258  0000                     _ODCOND	set	3871
   259  0000                     _WPUD	set	3872
   260  0000                     _TRISD	set	3978
   261  0000                     _TRISC	set	3977
   262  0000                     _TRISB	set	3976
   263  0000                     _TRISA	set	3975
   264  0000                     _TRISE	set	3979
   265  0000                     _LATC	set	3972
   266  0000                     _LATB	set	3971
   267  0000                     _OSCTUNE	set	3800
   268  0000                     _OSCFRQ	set	3801
   269  0000                     _SP2BRGH	set	3735
   270  0000                     _TX2STA	set	3737
   271  000F51                     STR_2:
   272  000F51  66                 	db	102	;'f'
   273  000F52  72                 	db	114	;'r'
   274  000F53  61                 	db	97	;'a'
   275  000F54  6D                 	db	109	;'m'
   276  000F55  44                 	db	68	;'D'
   277  000F56  61                 	db	97	;'a'
   278  000F57  74                 	db	116	;'t'
   279  000F58  61                 	db	97	;'a'
   280  000F59  41                 	db	65	;'A'
   281  000F5A  72                 	db	114	;'r'
   282  000F5B  72                 	db	114	;'r'
   283  000F5C  61                 	db	97	;'a'
   284  000F5D  79                 	db	121	;'y'
   285  000F5E  5B                 	db	91	;'['
   286  000F5F  25                 	db	37
   287  000F60  64                 	db	100	;'d'
   288  000F61  5D                 	db	93	;']'
   289  000F62  3A                 	db	58	;':'
   290  000F63  20                 	db	32
   291  000F64  00                 	db	0
   292  000F65                     STR_1:
   293  000F65  48                 	db	72	;'H'
   294  000F66  65                 	db	101	;'e'
   295  000F67  6C                 	db	108	;'l'
   296  000F68  6C                 	db	108	;'l'
   297  000F69  6F                 	db	111	;'o'
   298  000F6A  20                 	db	32
   299  000F6B  77                 	db	119	;'w'
   300  000F6C  6F                 	db	111	;'o'
   301  000F6D  72                 	db	114	;'r'
   302  000F6E  6C                 	db	108	;'l'
   303  000F6F  64                 	db	100	;'d'
   304  000F70  21                 	db	33
   305  000F71  0A                 	db	10
   306  000F72  00                 	db	0
   307  000F73  00                 	db	0	; dummy byte at the end
   308  0000                     
   309                           	psect	nvCOMRAM
   310  000045                     __pnvCOMRAM:
   311                           	callstack 0
   312  000045                     _eusart2TxBufferRemaining:
   313                           	callstack 0
   314  000045                     	ds	1
   315                           
   316                           	psect	nvBANK0
   317  0000F1                     __pnvBANK0:
   318                           	callstack 0
   319  0000F1                     _EUSART2_ErrorHandler:
   320                           	callstack 0
   321  0000F1                     	ds	3
   322  0000F4                     _EUSART2_OverrunErrorHandler:
   323                           	callstack 0
   324  0000F4                     	ds	3
   325  0000F7                     _EUSART2_FramingErrorHandler:
   326                           	callstack 0
   327  0000F7                     	ds	3
   328  0000FA                     _EUSART2_RxDefaultInterruptHandler:
   329                           	callstack 0
   330  0000FA                     	ds	3
   331  0000FD                     _EUSART2_TxDefaultInterruptHandler:
   332                           	callstack 0
   333  0000FD                     	ds	3
   334  0000                     _RC2STAbits	set	3736
   335  0000                     _TX2STAbits	set	3737
   336  0000                     _SSP1STATbits	set	3988
   337  0000                     _SSP1CON2bits	set	3990
   338  0000                     _SSP1CON1bits	set	3989
   339  0000                     _RC2REG	set	3732
   340  0000                     _TX2REG	set	3733
   341  0000                     _SP2BRGL	set	3734
   342  0000                     _RC2STA	set	3736
   343  0000                     _BAUD2CON	set	3738
   344  0000                     _PIE3bits	set	3776
   345  0000                     _PIR3bits	set	3784
   346  0000                     _INTCONbits	set	4082
   347  0000                     _SSP1CLKPPS	set	3762
   348  0000                     _OSCCON1	set	3795
   349  0000                     _OSCCON3	set	3797
   350  0000                     _OSCEN	set	3799
   351  0000                     _PMD0	set	3804
   352  0000                     _RC3PPS	set	3829
   353  0000                     _INLVLA	set	3848
   354  0000                     _SLRCONA	set	3849
   355  0000                     _ODCONA	set	3850
   356  0000                     _WPUA	set	3851
   357  0000                     _ANSELA	set	3852
   358  0000                     _ANSELB	set	3860
   359  0000                     _ANSELC	set	3868
   360  0000                     _ANSELD	set	3873
   361  0000                     _LATA	set	3970
   362  0000                     _LATD	set	3973
   363  0000                     _LATE	set	3974
   364  0000                     _PMD5	set	3809
   365  0000                     _PMD4	set	3808
   366  0000                     _PMD3	set	3807
   367  0000                     _PMD2	set	3806
   368  0000                     _PMD1	set	3805
   369  0000                     _SSP1BUF	set	3985
   370  0000                     _SSP1ADD	set	3986
   371  0000                     _SSP1STAT	set	3988
   372  0000                     _INLVLE	set	3877
   373  0000                     _SLRCONE	set	3878
   374  0000                     _ODCONE	set	3879
   375  0000                     _WPUE	set	3880
   376  0000                     _ANSELE	set	3881
   377  0000                     _INLVLC	set	3864
   378  0000                     _SLRCONC	set	3865
   379  0000                     _ODCONC	set	3866
   380  0000                     _WPUC	set	3867
   381  0000                     _INLVLB	set	3856
   382  0000                     _SLRCONB	set	3857
   383  0000                     _ODCONB	set	3858
   384  0000                     _WPUB	set	3859
   385  0000                     _SSP1DATPPS	set	3763
   386  0000                     _RD0PPS	set	3834
   387  0000                     _RC4PPS	set	3830
   388  0000                     _SSP1CON2	set	3990
   389  0000                     _SSP1CON1	set	3989
   390                           
   391                           ; #config settings
   392                           
   393                           	psect	cinit
   394  002350                     __pcinit:
   395                           	callstack 0
   396  002350                     start_initialization:
   397                           	callstack 0
   398  002350                     __initialization:
   399                           	callstack 0
   400                           
   401                           ; Clear objects allocated to BIGRAM (258 bytes)
   402  002350  EE05  F000         	lfsr	0,__pbssBIGRAM
   403  002354  EE11 F002          	lfsr	1,258
   404  002358                     clear_0:
   405  002358  6AEE               	clrf	postinc0,c
   406  00235A  50E5               	movf	postdec1,w,c
   407  00235C  50E1               	movf	fsr1l,w,c
   408  00235E  E1FC               	bnz	clear_0
   409  002360  50E2               	movf	fsr1h,w,c
   410  002362  E1FA               	bnz	clear_0
   411                           
   412                           ; Clear objects allocated to BANK3 (256 bytes)
   413  002364  EE03  F000         	lfsr	0,__pbssBANK3
   414  002368  EE11 F000          	lfsr	1,256
   415  00236C                     clear_1:
   416  00236C  6AEE               	clrf	postinc0,c
   417  00236E  50E5               	movf	postdec1,w,c
   418  002370  50E1               	movf	fsr1l,w,c
   419  002372  E1FC               	bnz	clear_1
   420  002374  50E2               	movf	fsr1h,w,c
   421  002376  E1FA               	bnz	clear_1
   422                           
   423                           ; Clear objects allocated to BANK2 (32 bytes)
   424  002378  EE02  F000         	lfsr	0,__pbssBANK2
   425  00237C  0E20               	movlw	32
   426  00237E                     clear_2:
   427  00237E  6AEE               	clrf	postinc0,c
   428  002380  06E8               	decf	wreg,f,c
   429  002382  E1FD               	bnz	clear_2
   430                           
   431                           ; Clear objects allocated to BANK0 (74 bytes)
   432  002384  EE00  F060         	lfsr	0,__pbssBANK0
   433  002388  0E4A               	movlw	74
   434  00238A                     clear_3:
   435  00238A  6AEE               	clrf	postinc0,c
   436  00238C  06E8               	decf	wreg,f,c
   437  00238E  E1FD               	bnz	clear_3
   438                           
   439                           ; Clear objects allocated to COMRAM (23 bytes)
   440  002390  EE00  F02E         	lfsr	0,__pbssCOMRAM
   441  002394  0E17               	movlw	23
   442  002396                     clear_4:
   443  002396  6AEE               	clrf	postinc0,c
   444  002398  06E8               	decf	wreg,f,c
   445  00239A  E1FD               	bnz	clear_4
   446  00239C                     end_of_initialization:
   447                           	callstack 0
   448  00239C                     __end_of__initialization:
   449                           	callstack 0
   450  00239C  9046               	bcf	int$flags,0,c	;clear compiler interrupt flag (level 1)
   451  00239E  9246               	bcf	int$flags,1,c	;clear compiler interrupt flag (level 2)
   452  0023A0  0100               	movlb	0
   453  0023A2  EF44  F00C         	goto	_main	;jump to C main() function
   454                           
   455                           	psect	bssCOMRAM
   456  00002E                     __pbssCOMRAM:
   457                           	callstack 0
   458  00002E                     _MSSP1_InterruptHandler:
   459                           	callstack 0
   460  00002E                     	ds	3
   461  000031                     _width:
   462                           	callstack 0
   463  000031                     	ds	2
   464  000033                     _prec:
   465                           	callstack 0
   466  000033                     	ds	2
   467  000035                     _flags:
   468                           	callstack 0
   469  000035                     	ds	2
   470  000037                     	ds	2
   471  000039                     _errno:
   472                           	callstack 0
   473  000039                     	ds	2
   474  00003B                     malloc@end:
   475                           	callstack 0
   476  00003B                     	ds	2
   477  00003D                     malloc@cur:
   478                           	callstack 0
   479  00003D                     	ds	2
   480  00003F                     _eusart2RxLastError:
   481                           	callstack 0
   482  00003F                     	ds	1
   483  000040                     _eusart2RxCount:
   484                           	callstack 0
   485  000040                     	ds	1
   486  000041                     _eusart2RxTail:
   487                           	callstack 0
   488  000041                     	ds	1
   489  000042                     _eusart2RxHead:
   490                           	callstack 0
   491  000042                     	ds	1
   492  000043                     _eusart2TxTail:
   493                           	callstack 0
   494  000043                     	ds	1
   495  000044                     _eusart2TxHead:
   496                           	callstack 0
   497  000044                     	ds	1
   498                           
   499                           	psect	bssBANK0
   500  000060                     __pbssBANK0:
   501                           	callstack 0
   502  000060                     _I2C1_Status:
   503                           	callstack 0
   504  000060                     	ds	42
   505  00008A                     _eusart2RxStatusBuffer:
   506                           	callstack 0
   507  00008A                     	ds	8
   508  000092                     _eusart2RxBuffer:
   509                           	callstack 0
   510  000092                     	ds	8
   511  00009A                     _eusart2TxBuffer:
   512                           	callstack 0
   513  00009A                     	ds	8
   514  0000A2                     malloc@lock:
   515                           	callstack 0
   516  0000A2                     	ds	4
   517  0000A6                     _nout:
   518                           	callstack 0
   519  0000A6                     	ds	2
   520  0000A8                     ___freelist:
   521                           	callstack 0
   522  0000A8                     	ds	2
   523                           
   524                           	psect	bssBANK2
   525  000200                     __pbssBANK2:
   526                           	callstack 0
   527  000200                     _dbuf:
   528                           	callstack 0
   529  000200                     	ds	32
   530                           
   531                           	psect	bssBANK3
   532  000300                     __pbssBANK3:
   533                           	callstack 0
   534  000300                     _seqReadBuffer:
   535                           	callstack 0
   536  000300                     	ds	256
   537                           
   538                           	psect	bssBIGRAM
   539  000500                     __pbssBIGRAM:
   540                           	callstack 0
   541  000500                     _seqWriteBuffer:
   542                           	callstack 0
   543  000500                     	ds	258
   544                           
   545                           	psect	cstackBANK4
   546  000400                     __pcstackBANK4:
   547                           	callstack 0
   548  000400                     main@framDataArray:
   549                           	callstack 0
   550                           
   551                           ; 256 bytes @ 0x0
   552  000400                     	ds	256
   553                           
   554                           	psect	cstackBANK1
   555  000100                     __pcstackBANK1:
   556                           	callstack 0
   557  000100                     ?_printf:
   558                           	callstack 0
   559  000100                     printf@fmt:
   560                           	callstack 0
   561                           
   562                           ; 2 bytes @ 0x0
   563  000100                     	ds	4
   564  000104                     printf@ap:
   565                           	callstack 0
   566                           
   567                           ; 2 bytes @ 0x4
   568  000104                     	ds	2
   569  000106                     main@i_1586:
   570                           	callstack 0
   571                           
   572                           ; 2 bytes @ 0x6
   573  000106                     	ds	2
   574  000108                     main@i:
   575                           	callstack 0
   576                           
   577                           ; 2 bytes @ 0x8
   578  000108                     	ds	2
   579                           
   580                           	psect	cstackBANK0
   581  0000AA                     __pcstackBANK0:
   582                           	callstack 0
   583  0000AA                     ??_abs:
   584  0000AA                     ?_pad:
   585                           	callstack 0
   586  0000AA                     ___aodiv@counter:
   587                           	callstack 0
   588  0000AA                     FRAM_ReadNBytes@msgHdr:
   589                           	callstack 0
   590  0000AA                     pad@fp:
   591                           	callstack 0
   592                           
   593                           ; 2 bytes @ 0x0
   594  0000AA                     	ds	1
   595  0000AB                     ___aodiv@sign:
   596                           	callstack 0
   597                           
   598                           ; 1 bytes @ 0x1
   599  0000AB                     	ds	1
   600  0000AC                     pad@buf:
   601                           	callstack 0
   602  0000AC                     FRAM_ReadNBytes@bufferBlock:
   603                           	callstack 0
   604  0000AC                     ___aodiv@quotient:
   605                           	callstack 0
   606                           
   607                           ; 8 bytes @ 0x2
   608  0000AC                     	ds	2
   609  0000AE                     pad@p:
   610                           	callstack 0
   611                           
   612                           ; 2 bytes @ 0x4
   613  0000AE                     	ds	2
   614  0000B0                     pad@i:
   615                           	callstack 0
   616                           
   617                           ; 2 bytes @ 0x6
   618  0000B0                     	ds	2
   619  0000B2                     pad@w:
   620                           	callstack 0
   621                           
   622                           ; 2 bytes @ 0x8
   623  0000B2                     	ds	2
   624  0000B4                     ?_dtoa:
   625                           	callstack 0
   626  0000B4                     dtoa@fp:
   627                           	callstack 0
   628                           
   629                           ; 2 bytes @ 0xA
   630  0000B4                     	ds	2
   631  0000B6                     dtoa@d:
   632                           	callstack 0
   633                           
   634                           ; 8 bytes @ 0xC
   635  0000B6                     	ds	8
   636  0000BE                     ??_dtoa:
   637                           
   638                           ; 1 bytes @ 0x14
   639  0000BE                     	ds	8
   640  0000C6                     _dtoa$2297:
   641                           	callstack 0
   642                           
   643                           ; 2 bytes @ 0x1C
   644  0000C6                     	ds	2
   645  0000C8                     dtoa@p:
   646                           	callstack 0
   647                           
   648                           ; 2 bytes @ 0x1E
   649  0000C8                     	ds	2
   650  0000CA                     dtoa@w:
   651                           	callstack 0
   652                           
   653                           ; 2 bytes @ 0x20
   654  0000CA                     	ds	2
   655  0000CC                     dtoa@s:
   656                           	callstack 0
   657                           
   658                           ; 2 bytes @ 0x22
   659  0000CC                     	ds	2
   660  0000CE                     dtoa@n:
   661                           	callstack 0
   662                           
   663                           ; 8 bytes @ 0x24
   664  0000CE                     	ds	8
   665  0000D6                     dtoa@i:
   666                           	callstack 0
   667                           
   668                           ; 2 bytes @ 0x2C
   669  0000D6                     	ds	2
   670  0000D8                     ?_vfpfcnvrt:
   671                           	callstack 0
   672  0000D8                     vfpfcnvrt@fp:
   673                           	callstack 0
   674                           
   675                           ; 2 bytes @ 0x2E
   676  0000D8                     	ds	2
   677  0000DA                     vfpfcnvrt@fmt:
   678                           	callstack 0
   679                           
   680                           ; 2 bytes @ 0x30
   681  0000DA                     	ds	2
   682  0000DC                     vfpfcnvrt@ap:
   683                           	callstack 0
   684                           
   685                           ; 2 bytes @ 0x32
   686  0000DC                     	ds	2
   687  0000DE                     ??_vfpfcnvrt:
   688                           
   689                           ; 1 bytes @ 0x34
   690  0000DE                     	ds	2
   691  0000E0                     vfpfcnvrt@ll:
   692                           	callstack 0
   693                           
   694                           ; 8 bytes @ 0x36
   695  0000E0                     	ds	8
   696  0000E8                     ?_vfprintf:
   697                           	callstack 0
   698  0000E8                     vfprintf@fp:
   699                           	callstack 0
   700                           
   701                           ; 2 bytes @ 0x3E
   702  0000E8                     	ds	2
   703  0000EA                     vfprintf@fmt:
   704                           	callstack 0
   705                           
   706                           ; 2 bytes @ 0x40
   707  0000EA                     	ds	2
   708  0000EC                     vfprintf@ap:
   709                           	callstack 0
   710                           
   711                           ; 2 bytes @ 0x42
   712  0000EC                     	ds	2
   713  0000EE                     vfprintf@cfmt:
   714                           	callstack 0
   715                           
   716                           ; 2 bytes @ 0x44
   717  0000EE                     	ds	2
   718  0000F0                     ??_main:
   719                           
   720                           ; 1 bytes @ 0x46
   721  0000F0                     	ds	1
   722                           
   723                           	psect	cstackCOMRAM
   724  000001                     __pcstackCOMRAM:
   725                           	callstack 0
   726  000001                     I2C1_MasterSendTxData@data:
   727                           	callstack 0
   728  000001                     i2I2C1_SetBuffer@buffer:
   729                           	callstack 0
   730  000001                     i2I2C1_SetCallback@cb:
   731                           	callstack 0
   732                           
   733                           ; 3 bytes @ 0x0
   734  000001                     	ds	1
   735  000002                     
   736                           ; 1 bytes @ 0x1
   737  000002                     	ds	1
   738  000003                     i2I2C1_SetBuffer@bufferSize:
   739                           	callstack 0
   740                           
   741                           ; 2 bytes @ 0x2
   742  000003                     	ds	1
   743  000004                     i2I2C1_SetCallback@ptr:
   744                           	callstack 0
   745                           
   746                           ; 2 bytes @ 0x3
   747  000004                     	ds	1
   748  000005                     
   749                           ; 1 bytes @ 0x4
   750  000005                     	ds	1
   751  000006                     i2I2C1_SetCallback@idx:
   752                           	callstack 0
   753                           
   754                           ; 1 bytes @ 0x5
   755  000006                     	ds	1
   756  000007                     i2I2C1_SetDataCompleteCallback@cb:
   757                           	callstack 0
   758                           
   759                           ; 3 bytes @ 0x6
   760  000007                     	ds	3
   761  00000A                     i2I2C1_SetDataCompleteCallback@ptr:
   762                           	callstack 0
   763                           
   764                           ; 2 bytes @ 0x9
   765  00000A                     	ds	2
   766  00000C                     rd1RegCompleteHandler@ptr:
   767                           	callstack 0
   768  00000C                     wr1RegCompleteHandler@ptr:
   769                           	callstack 0
   770  00000C                     rdBlkRegCompleteHandler@ptr:
   771                           	callstack 0
   772  00000C                     wr1RegCompleteHandler@MB85RC256V$F1610@ptr:
   773                           	callstack 0
   774  00000C                     rd1RegCompleteHandler@MB85RC256V$F1625@ptr:
   775                           	callstack 0
   776  00000C                     rdBlkRegCompleteHandler@MB85RC256V$F1619@ptr:
   777                           	callstack 0
   778                           
   779                           ; 2 bytes @ 0xB
   780  00000C                     	ds	2
   781  00000E                     ??_I2C1_DO_TX:
   782  00000E                     ??_I2C1_DO_RX:
   783  00000E                     ??_I2C1_DO_TX_EMPTY:
   784  00000E                     ??_I2C1_DO_ADDRESS_NACK:
   785  00000E                     
   786                           ; 1 bytes @ 0xD
   787  00000E                     	ds	2
   788  000010                     ??_INTERRUPT_InterruptManager:
   789                           
   790                           ; 1 bytes @ 0xF
   791  000010                     	ds	10
   792  00001A                     ?_strlen:
   793                           	callstack 0
   794  00001A                     ?___aodiv:
   795                           	callstack 0
   796  00001A                     ?___aomod:
   797                           	callstack 0
   798  00001A                     EUSART2_Write@txData:
   799                           	callstack 0
   800  00001A                     I2C1_Close@returnValue:
   801                           	callstack 0
   802  00001A                     I2C1_MasterOperation@read:
   803                           	callstack 0
   804  00001A                     I2C1_SetBuffer@buffer:
   805                           	callstack 0
   806  00001A                     memcpy@d1:
   807                           	callstack 0
   808  00001A                     memset@dest:
   809                           	callstack 0
   810  00001A                     strlen@s:
   811                           	callstack 0
   812  00001A                     EUSART2_SetFramingErrorHandler@interruptHandler:
   813                           	callstack 0
   814  00001A                     EUSART2_SetOverrunErrorHandler@interruptHandler:
   815                           	callstack 0
   816  00001A                     EUSART2_SetErrorHandler@interruptHandler:
   817                           	callstack 0
   818  00001A                     EUSART2_SetTxInterruptHandler@interruptHandler:
   819                           	callstack 0
   820  00001A                     EUSART2_SetRxInterruptHandler@interruptHandler:
   821                           	callstack 0
   822  00001A                     I2C1_SetInterruptHandler@InterruptHandler:
   823                           	callstack 0
   824  00001A                     I2C1_SetCallback@cb:
   825                           	callstack 0
   826  00001A                     ___aodiv@dividend:
   827                           	callstack 0
   828  00001A                     ___aomod@dividend:
   829                           	callstack 0
   830                           
   831                           ; 8 bytes @ 0x19
   832  00001A                     	ds	1
   833  00001B                     putch@txData:
   834                           	callstack 0
   835  00001B                     I2C1_MasterOperation@returnValue:
   836                           	callstack 0
   837                           
   838                           ; 1 bytes @ 0x1A
   839  00001B                     	ds	1
   840  00001C                     I2C1_SetBuffer@bufferSize:
   841                           	callstack 0
   842  00001C                     memcpy@s1:
   843                           	callstack 0
   844  00001C                     memset@c:
   845                           	callstack 0
   846  00001C                     fputc@c:
   847                           	callstack 0
   848  00001C                     strlen@a:
   849                           	callstack 0
   850                           
   851                           ; 2 bytes @ 0x1B
   852  00001C                     	ds	1
   853  00001D                     I2C1_Open@address:
   854                           	callstack 0
   855  00001D                     I2C1_SetCallback@ptr:
   856                           	callstack 0
   857                           
   858                           ; 2 bytes @ 0x1C
   859  00001D                     	ds	1
   860  00001E                     I2C1_Open@returnValue:
   861                           	callstack 0
   862  00001E                     memcpy@n:
   863                           	callstack 0
   864  00001E                     memset@n:
   865                           	callstack 0
   866  00001E                     fputc@fp:
   867                           	callstack 0
   868                           
   869                           ; 2 bytes @ 0x1D
   870  00001E                     	ds	1
   871  00001F                     I2C1_SetCallback@idx:
   872                           	callstack 0
   873                           
   874                           ; 1 bytes @ 0x1E
   875  00001F                     	ds	1
   876  000020                     ??_memset:
   877  000020                     ??_fputc:
   878  000020                     memcpy@tmp:
   879                           	callstack 0
   880  000020                     I2C1_SetDataCompleteCallback@cb:
   881                           	callstack 0
   882  000020                     I2C1_SetAddressNackCallback@cb:
   883                           	callstack 0
   884                           
   885                           ; 3 bytes @ 0x1F
   886  000020                     	ds	1
   887  000021                     memcpy@d:
   888                           	callstack 0
   889                           
   890                           ; 2 bytes @ 0x20
   891  000021                     	ds	1
   892  000022                     memset@k:
   893                           	callstack 0
   894  000022                     ___aodiv@divisor:
   895                           	callstack 0
   896  000022                     ___aomod@divisor:
   897                           	callstack 0
   898                           
   899                           ; 8 bytes @ 0x21
   900  000022                     	ds	1
   901  000023                     I2C1_SetDataCompleteCallback@ptr:
   902                           	callstack 0
   903  000023                     I2C1_SetAddressNackCallback@ptr:
   904                           	callstack 0
   905  000023                     memcpy@s:
   906                           	callstack 0
   907                           
   908                           ; 2 bytes @ 0x22
   909  000023                     	ds	1
   910  000024                     memset@s:
   911                           	callstack 0
   912                           
   913                           ; 2 bytes @ 0x23
   914  000024                     	ds	1
   915  000025                     FRAM_ReadNBytes@startAddr:
   916                           	callstack 0
   917  000025                     fputs@s:
   918                           	callstack 0
   919                           
   920                           ; 2 bytes @ 0x24
   921  000025                     	ds	1
   922  000026                     FRAM_WriteNBytes@startAddr:
   923                           	callstack 0
   924                           
   925                           ; 2 bytes @ 0x25
   926  000026                     	ds	1
   927  000027                     FRAM_ReadNBytes@receiveBuffer:
   928                           	callstack 0
   929  000027                     fputs@fp:
   930                           	callstack 0
   931                           
   932                           ; 2 bytes @ 0x26
   933  000027                     	ds	1
   934  000028                     FRAM_WriteNBytes@data:
   935                           	callstack 0
   936                           
   937                           ; 2 bytes @ 0x27
   938  000028                     	ds	1
   939  000029                     fputs@c:
   940                           	callstack 0
   941  000029                     FRAM_ReadNBytes@numBytes:
   942                           	callstack 0
   943                           
   944                           ; 2 bytes @ 0x28
   945  000029                     	ds	1
   946  00002A                     ___aomod@counter:
   947                           	callstack 0
   948  00002A                     FRAM_WriteNBytes@len:
   949                           	callstack 0
   950  00002A                     fputs@i:
   951                           	callstack 0
   952                           
   953                           ; 2 bytes @ 0x29
   954  00002A                     	ds	1
   955  00002B                     ___aomod@sign:
   956                           	callstack 0
   957                           
   958                           ; 1 bytes @ 0x2A
   959  00002B                     	ds	1
   960  00002C                     ??_FRAM_WriteNBytes:
   961  00002C                     ??_pad:
   962  00002C                     ?_abs:
   963                           	callstack 0
   964  00002C                     abs@a:
   965                           	callstack 0
   966                           
   967                           ; 2 bytes @ 0x2B
   968  00002C                     	ds	2
   969  00002E                     
   970                           ; 1 bytes @ 0x2D
   971 ;;
   972 ;;Main: autosize = 0, tempsize = 1, incstack = 0, save=0
   973 ;;
   974 ;; *************** function _main *****************
   975 ;; Defined at:
   976 ;;		line 6 in file "main.c"
   977 ;; Parameters:    Size  Location     Type
   978 ;;		None
   979 ;; Auto vars:     Size  Location     Type
   980 ;;  i               2    6[BANK1 ] unsigned short 
   981 ;;  i               2    8[BANK1 ] unsigned short 
   982 ;;  framDataArra  256    0[BANK4 ] unsigned char [256]
   983 ;; Return value:  Size  Location     Type
   984 ;;                  1    wreg      void 
   985 ;; Registers used:
   986 ;;		wreg, fsr1l, fsr1h, fsr2l, fsr2h, status,2, status,0, tblptrl, tblptrh, tblptru, prodl, prodh, cstack
   987 ;; Tracked objects:
   988 ;;		On entry : 0/0
   989 ;;		On exit  : 0/0
   990 ;;		Unchanged: 0/0
   991 ;; Data sizes:     COMRAM   BANK0   BANK1   BANK2   BANK3   BANK4   BANK5   BANK6   BANK7   BANK8   BANK9  BANK10  BANK1
      +1  BANK12  BANK14
   992 ;;      Params:         0       0       0       0       0       0       0       0       0       0       0       0       
      +0       0       0
   993 ;;      Locals:         0       0       4       0       0     256       0       0       0       0       0       0       
      +0       0       0
   994 ;;      Temps:          0       1       0       0       0       0       0       0       0       0       0       0       
      +0       0       0
   995 ;;      Totals:         0       1       4       0       0     256       0       0       0       0       0       0       
      +0       0       0
   996 ;;Total ram usage:      261 bytes
   997 ;; Hardware stack levels required when called: 16
   998 ;; This function calls:
   999 ;;		_FRAM_ReadNBytes
  1000 ;;		_FRAM_WriteNBytes
  1001 ;;		_SYSTEM_Initialize
  1002 ;;		_memset
  1003 ;;		_printf
  1004 ;; This function is called by:
  1005 ;;		Startup code after reset
  1006 ;; This function uses a non-reentrant model
  1007 ;;
  1008                           
  1009                           	psect	text0
  1010  001888                     __ptext0:
  1011                           	callstack 0
  1012  001888                     _main:
  1013                           	callstack 15
  1014  001888                     
  1015                           ;main.c: 9:     SYSTEM_Initialize();
  1016  001888  ECEC  F013         	call	_SYSTEM_Initialize	;wreg free
  1017  00188C                     
  1018                           ;main.c: 12:     (INTCONbits.GIE = 1);
  1019  00188C  8EF2               	bsf	242,7,c	;volatile
  1020  00188E                     
  1021                           ;main.c: 15:     (INTCONbits.PEIE = 1);
  1022  00188E  8CF2               	bsf	242,6,c	;volatile
  1023  001890                     
  1024                           ;main.c: 17:     printf("Hello world!\n");
  1025  001890  0E65               	movlw	low STR_1
  1026  001892  0101               	movlb	1	; () banked
  1027  001894  6F00               	movwf	printf@fmt& (0+255),b
  1028  001896  0E0F               	movlw	high STR_1
  1029  001898  6F01               	movwf	(printf@fmt+1)& (0+255),b
  1030  00189A  EC55  F013         	call	_printf	;wreg free
  1031  00189E                     
  1032                           ;main.c: 19:     uint8_t framDataArray[256];;main.c: 22:     for(uint16_t i = 0; i < 256
      +                          ; i++) {
  1033  00189E  0E00               	movlw	0
  1034  0018A0  0101               	movlb	1	; () banked
  1035  0018A2  6F09               	movwf	(main@i+1)& (0+255),b
  1036  0018A4  0E00               	movlw	0
  1037  0018A6  6F08               	movwf	main@i& (0+255),b
  1038  0018A8                     l750:
  1039                           
  1040                           ; BSR set to: 1
  1041                           ;main.c: 23:         if((i % 2) == 0) {
  1042  0018A8  B108               	btfsc	main@i& (0+255),0,b
  1043  0018AA  EF59  F00C         	goto	u3291
  1044  0018AE  EF5B  F00C         	goto	u3290
  1045  0018B2                     u3291:
  1046  0018B2  EF65  F00C         	goto	l5271
  1047  0018B6                     u3290:
  1048  0018B6                     
  1049                           ; BSR set to: 1
  1050                           ;main.c: 24:             framDataArray[i] = 0xAA;
  1051  0018B6  0E00               	movlw	low main@framDataArray
  1052  0018B8  2508               	addwf	main@i& (0+255),w,b
  1053  0018BA  6ED9               	movwf	fsr2l,c
  1054  0018BC  0E04               	movlw	high main@framDataArray
  1055  0018BE  2109               	addwfc	(main@i+1)& (0+255),w,b
  1056  0018C0  6EDA               	movwf	fsr2h,c
  1057  0018C2  0EAA               	movlw	170
  1058  0018C4  6EDF               	movwf	indf2,c
  1059                           
  1060                           ;main.c: 25:         } else {
  1061  0018C6  EF6D  F00C         	goto	l5273
  1062  0018CA                     l5271:
  1063                           
  1064                           ; BSR set to: 1
  1065                           ;main.c: 26:             framDataArray[i] = 0xBB;
  1066  0018CA  0E00               	movlw	low main@framDataArray
  1067  0018CC  2508               	addwf	main@i& (0+255),w,b
  1068  0018CE  6ED9               	movwf	fsr2l,c
  1069  0018D0  0E04               	movlw	high main@framDataArray
  1070  0018D2  2109               	addwfc	(main@i+1)& (0+255),w,b
  1071  0018D4  6EDA               	movwf	fsr2h,c
  1072  0018D6  0EBB               	movlw	187
  1073  0018D8  6EDF               	movwf	indf2,c
  1074  0018DA                     l5273:
  1075                           
  1076                           ; BSR set to: 1
  1077                           ;main.c: 28:     }
  1078  0018DA  4B08               	infsnz	main@i& (0+255),f,b
  1079  0018DC  2B09               	incf	(main@i+1)& (0+255),f,b
  1080  0018DE                     
  1081                           ; BSR set to: 1
  1082  0018DE  0509               	decf	(main@i+1)& (0+255),w,b
  1083  0018E0  A0D8               	btfss	status,0,c
  1084  0018E2  EF75  F00C         	goto	u3301
  1085  0018E6  EF77  F00C         	goto	u3300
  1086  0018EA                     u3301:
  1087  0018EA  EF54  F00C         	goto	l750
  1088  0018EE                     u3300:
  1089  0018EE                     
  1090                           ; BSR set to: 1
  1091                           ;main.c: 30:     FRAM_WriteNBytes(0x00, &framDataArray[0], 256);
  1092  0018EE  0E00               	movlw	0
  1093  0018F0  6E27               	movwf	(FRAM_WriteNBytes@startAddr+1)^0,c
  1094  0018F2  0E00               	movlw	0
  1095  0018F4  6E26               	movwf	FRAM_WriteNBytes@startAddr^0,c
  1096  0018F6  0E00               	movlw	low main@framDataArray
  1097  0018F8  6E28               	movwf	FRAM_WriteNBytes@data^0,c
  1098  0018FA  0E04               	movlw	high main@framDataArray
  1099  0018FC  6E29               	movwf	(FRAM_WriteNBytes@data+1)^0,c
  1100  0018FE  0E01               	movlw	1
  1101  001900  6E2B               	movwf	(FRAM_WriteNBytes@len+1)^0,c
  1102  001902  0E00               	movlw	0
  1103  001904  6E2A               	movwf	FRAM_WriteNBytes@len^0,c
  1104  001906  EC4E  F00E         	call	_FRAM_WriteNBytes	;wreg free
  1105  00190A                     
  1106                           ;main.c: 32:     memset(&framDataArray, 0, sizeof(framDataArray));
  1107  00190A  0E00               	movlw	low main@framDataArray
  1108  00190C  6E1A               	movwf	memset@dest^0,c
  1109  00190E  0E04               	movlw	high main@framDataArray
  1110  001910  6E1B               	movwf	(memset@dest+1)^0,c
  1111  001912  0E00               	movlw	0
  1112  001914  6E1D               	movwf	(memset@c+1)^0,c
  1113  001916  0E00               	movlw	0
  1114  001918  6E1C               	movwf	memset@c^0,c
  1115  00191A  0E01               	movlw	1
  1116  00191C  6E1F               	movwf	(memset@n+1)^0,c
  1117  00191E  0E00               	movlw	0
  1118  001920  6E1E               	movwf	memset@n^0,c
  1119  001922  ECD7  F00A         	call	_memset	;wreg free
  1120  001926                     
  1121                           ;main.c: 34:     FRAM_ReadNBytes(0x00, &framDataArray[0], 256);
  1122  001926  0E00               	movlw	0
  1123  001928  6E26               	movwf	(FRAM_ReadNBytes@startAddr+1)^0,c
  1124  00192A  0E00               	movlw	0
  1125  00192C  6E25               	movwf	FRAM_ReadNBytes@startAddr^0,c
  1126  00192E  0E00               	movlw	low main@framDataArray
  1127  001930  6E27               	movwf	FRAM_ReadNBytes@receiveBuffer^0,c
  1128  001932  0E04               	movlw	high main@framDataArray
  1129  001934  6E28               	movwf	(FRAM_ReadNBytes@receiveBuffer+1)^0,c
  1130  001936  0E01               	movlw	1
  1131  001938  6E2A               	movwf	(FRAM_ReadNBytes@numBytes+1)^0,c
  1132  00193A  0E00               	movlw	0
  1133  00193C  6E29               	movwf	FRAM_ReadNBytes@numBytes^0,c
  1134  00193E  EC8E  F00F         	call	_FRAM_ReadNBytes	;wreg free
  1135  001942                     
  1136                           ;main.c: 36:     for (uint16_t i = 0; i < 256; i++) {
  1137  001942  0E00               	movlw	0
  1138  001944  0101               	movlb	1	; () banked
  1139  001946  6F07               	movwf	(main@i_1586+1)& (0+255),b
  1140  001948  0E00               	movlw	0
  1141  00194A  6F06               	movwf	main@i_1586& (0+255),b
  1142  00194C                     l5289:
  1143                           
  1144                           ; BSR set to: 1
  1145                           ;main.c: 37:         printf("framDataArray[%d]: ", framDataArray[i]);
  1146  00194C  0E51               	movlw	low STR_2
  1147  00194E  6F00               	movwf	printf@fmt& (0+255),b
  1148  001950  0E0F               	movlw	high STR_2
  1149  001952  6F01               	movwf	(printf@fmt+1)& (0+255),b
  1150  001954  0E00               	movlw	low main@framDataArray
  1151  001956  2506               	addwf	main@i_1586& (0+255),w,b
  1152  001958  6ED9               	movwf	fsr2l,c
  1153  00195A  0E04               	movlw	high main@framDataArray
  1154  00195C  2107               	addwfc	(main@i_1586+1)& (0+255),w,b
  1155  00195E  6EDA               	movwf	fsr2h,c
  1156  001960  50DF               	movf	indf2,w,c
  1157  001962  0100               	movlb	0	; () banked
  1158  001964  6FF0               	movwf	??_main& (0+255),b
  1159  001966  51F0               	movf	??_main& (0+255),w,b
  1160  001968  0101               	movlb	1	; () banked
  1161  00196A  6F02               	movwf	(?_printf+2)& (0+255),b
  1162  00196C  6B03               	clrf	(?_printf+3)& (0+255),b
  1163  00196E  EC55  F013         	call	_printf	;wreg free
  1164  001972                     
  1165                           ;main.c: 38:     }
  1166  001972  0101               	movlb	1	; () banked
  1167  001974  4B06               	infsnz	main@i_1586& (0+255),f,b
  1168  001976  2B07               	incf	(main@i_1586+1)& (0+255),f,b
  1169  001978                     
  1170                           ; BSR set to: 1
  1171  001978  0507               	decf	(main@i_1586+1)& (0+255),w,b
  1172  00197A  A0D8               	btfss	status,0,c
  1173  00197C  EFC2  F00C         	goto	u3311
  1174  001980  EFC4  F00C         	goto	u3310
  1175  001984                     u3311:
  1176  001984  EFA6  F00C         	goto	l5289
  1177  001988                     u3310:
  1178  001988                     l756:
  1179  001988  EFC4  F00C         	goto	l756
  1180  00198C  EFA0  F000         	goto	start
  1181  001990                     __end_of_main:
  1182                           	callstack 0
  1183                           
  1184 ;; *************** function _printf *****************
  1185 ;; Defined at:
  1186 ;;		line 5 in file "C:\Program Files\Microchip\xc8\v2.36\pic\sources\c99\common\printf.c"
  1187 ;; Parameters:    Size  Location     Type
  1188 ;;  fmt             2    0[BANK1 ] PTR const unsigned char 
  1189 ;;		 -> STR_2(20), STR_1(14), 
  1190 ;; Auto vars:     Size  Location     Type
  1191 ;;  ap              2    4[BANK1 ] PTR void [1]
  1192 ;;		 -> ?_printf(2), 
  1193 ;;  ret             2    0        int 
  1194 ;; Return value:  Size  Location     Type
  1195 ;;                  2    0[BANK1 ] int 
  1196 ;; Registers used:
  1197 ;;		wreg, fsr1l, fsr1h, fsr2l, fsr2h, status,2, status,0, tblptrl, tblptrh, tblptru, cstack
  1198 ;; Tracked objects:
  1199 ;;		On entry : 0/0
  1200 ;;		On exit  : 0/0
  1201 ;;		Unchanged: 0/0
  1202 ;; Data sizes:     COMRAM   BANK0   BANK1   BANK2   BANK3   BANK4   BANK5   BANK6   BANK7   BANK8   BANK9  BANK10  BANK1
      +1  BANK12  BANK14
  1203 ;;      Params:         0       0       4       0       0       0       0       0       0       0       0       0       
      +0       0       0
  1204 ;;      Locals:         0       0       2       0       0       0       0       0       0       0       0       0       
      +0       0       0
  1205 ;;      Temps:          0       0       0       0       0       0       0       0       0       0       0       0       
      +0       0       0
  1206 ;;      Totals:         0       0       6       0       0       0       0       0       0       0       0       0       
      +0       0       0
  1207 ;;Total ram usage:        6 bytes
  1208 ;; Hardware stack levels used: 1
  1209 ;; Hardware stack levels required when called: 15
  1210 ;; This function calls:
  1211 ;;		_vfprintf
  1212 ;; This function is called by:
  1213 ;;		_main
  1214 ;; This function uses a non-reentrant model
  1215 ;;
  1216                           
  1217                           	psect	text1
  1218  0026AA                     __ptext1:
  1219                           	callstack 0
  1220  0026AA                     _printf:
  1221                           	callstack 15
  1222  0026AA  0E02               	movlw	low (?_printf+2)
  1223  0026AC  0101               	movlb	1	; () banked
  1224  0026AE  6F04               	movwf	printf@ap& (0+255),b
  1225  0026B0  0E01               	movlw	high (?_printf+2)
  1226  0026B2  6F05               	movwf	(printf@ap+1)& (0+255),b
  1227  0026B4                     
  1228                           ; BSR set to: 1
  1229  0026B4  0E00               	movlw	0
  1230  0026B6  0100               	movlb	0	; () banked
  1231  0026B8  6FE8               	movwf	vfprintf@fp& (0+255),b
  1232  0026BA  0E00               	movlw	0
  1233  0026BC  6FE9               	movwf	(vfprintf@fp+1)& (0+255),b
  1234  0026BE  C100  F0EA         	movff	printf@fmt,vfprintf@fmt
  1235  0026C2  C101  F0EB         	movff	printf@fmt+1,vfprintf@fmt+1
  1236  0026C6  0E04               	movlw	low printf@ap
  1237  0026C8  6FEC               	movwf	vfprintf@ap& (0+255),b
  1238  0026CA  0E01               	movlw	high printf@ap
  1239  0026CC  6FED               	movwf	(vfprintf@ap+1)& (0+255),b
  1240  0026CE  EC49  F011         	call	_vfprintf	;wreg free
  1241  0026D2  0012               	return		;funcret
  1242  0026D4                     __end_of_printf:
  1243                           	callstack 0
  1244                           
  1245 ;; *************** function _vfprintf *****************
  1246 ;; Defined at:
  1247 ;;		line 1390 in file "C:\Program Files\Microchip\xc8\v2.36\pic\sources\c99\common\doprnt.c"
  1248 ;; Parameters:    Size  Location     Type
  1249 ;;  fp              2   62[BANK0 ] PTR struct _IO_FILE
  1250 ;;		 -> NULL(0), 
  1251 ;;  fmt             2   64[BANK0 ] PTR const unsigned char 
  1252 ;;		 -> STR_2(20), STR_1(14), 
  1253 ;;  ap              2   66[BANK0 ] PTR PTR void 
  1254 ;;		 -> printf@ap(2), 
  1255 ;; Auto vars:     Size  Location     Type
  1256 ;;  cfmt            2   68[BANK0 ] PTR unsigned char 
  1257 ;;		 -> STR_2(20), STR_1(14), 
  1258 ;; Return value:  Size  Location     Type
  1259 ;;                  2   62[BANK0 ] int 
  1260 ;; Registers used:
  1261 ;;		wreg, fsr1l, fsr1h, fsr2l, fsr2h, status,2, status,0, tblptrl, tblptrh, tblptru, cstack
  1262 ;; Tracked objects:
  1263 ;;		On entry : 0/0
  1264 ;;		On exit  : 0/0
  1265 ;;		Unchanged: 0/0
  1266 ;; Data sizes:     COMRAM   BANK0   BANK1   BANK2   BANK3   BANK4   BANK5   BANK6   BANK7   BANK8   BANK9  BANK10  BANK1
      +1  BANK12  BANK14
  1267 ;;      Params:         0       6       0       0       0       0       0       0       0       0       0       0       
      +0       0       0
  1268 ;;      Locals:         0       2       0       0       0       0       0       0       0       0       0       0       
      +0       0       0
  1269 ;;      Temps:          0       0       0       0       0       0       0       0       0       0       0       0       
      +0       0       0
  1270 ;;      Totals:         0       8       0       0       0       0       0       0       0       0       0       0       
      +0       0       0
  1271 ;;Total ram usage:        8 bytes
  1272 ;; Hardware stack levels used: 1
  1273 ;; Hardware stack levels required when called: 14
  1274 ;; This function calls:
  1275 ;;		_vfpfcnvrt
  1276 ;; This function is called by:
  1277 ;;		_printf
  1278 ;; This function uses a non-reentrant model
  1279 ;;
  1280                           
  1281                           	psect	text2
  1282  002292                     __ptext2:
  1283                           	callstack 0
  1284  002292                     _vfprintf:
  1285                           	callstack 15
  1286  002292                     
  1287                           ;C:\Program Files\Microchip\xc8\v2.36\pic\sources\c99\common\doprnt.c: 1390: int vfprint
      +                          f(FILE *fp, const char *fmt, va_list ap);C:\Program Files\Microchip\xc8\v2.36\pic\source
      +                          s\c99\common\doprnt.c: 1391: {;C:\Program Files\Microchip\xc8\v2.36\pic\sources\c99\comm
      +                          on\doprnt.c: 1393:     char *cfmt;;C:\Program Files\Microchip\xc8\v2.36\pic\sources\c99\
      +                          common\doprnt.c: 1395:     cfmt = (char *)fmt;
  1288  002292  C0EA  F0EE         	movff	vfprintf@fmt,vfprintf@cfmt
  1289  002296  C0EB  F0EF         	movff	vfprintf@fmt+1,vfprintf@cfmt+1
  1290  00229A                     
  1291                           ;C:\Program Files\Microchip\xc8\v2.36\pic\sources\c99\common\doprnt.c: 1396:     nout = 
      +                          0;
  1292  00229A  0E00               	movlw	0
  1293  00229C  0100               	movlb	0	; () banked
  1294  00229E  6FA7               	movwf	(_nout+1)& (0+255),b
  1295  0022A0  0E00               	movlw	0
  1296  0022A2  6FA6               	movwf	_nout& (0+255),b
  1297                           
  1298                           ;C:\Program Files\Microchip\xc8\v2.36\pic\sources\c99\common\doprnt.c: 1397:     while (
      +                          *cfmt) {
  1299  0022A4  EF67  F011         	goto	l5055
  1300  0022A8                     l5053:
  1301                           
  1302                           ; BSR set to: 0
  1303                           ;C:\Program Files\Microchip\xc8\v2.36\pic\sources\c99\common\doprnt.c: 1398:         nou
      +                          t += vfpfcnvrt(fp, &cfmt, ap);
  1304  0022A8  C0E8  F0D8         	movff	vfprintf@fp,vfpfcnvrt@fp
  1305  0022AC  C0E9  F0D9         	movff	vfprintf@fp+1,vfpfcnvrt@fp+1
  1306  0022B0  0EEE               	movlw	low vfprintf@cfmt
  1307  0022B2  6FDA               	movwf	vfpfcnvrt@fmt& (0+255),b
  1308  0022B4  0E00               	movlw	high vfprintf@cfmt
  1309  0022B6  6FDB               	movwf	(vfpfcnvrt@fmt+1)& (0+255),b
  1310  0022B8  C0EC  F0DC         	movff	vfprintf@ap,vfpfcnvrt@ap
  1311  0022BC  C0ED  F0DD         	movff	vfprintf@ap+1,vfpfcnvrt@ap+1
  1312  0022C0  EC2C  F009         	call	_vfpfcnvrt	;wreg free
  1313  0022C4  0100               	movlb	0	; () banked
  1314  0022C6  51D8               	movf	?_vfpfcnvrt& (0+255),w,b
  1315  0022C8  27A6               	addwf	_nout& (0+255),f,b
  1316  0022CA  51D9               	movf	(?_vfpfcnvrt+1)& (0+255),w,b
  1317  0022CC  23A7               	addwfc	(_nout+1)& (0+255),f,b
  1318  0022CE                     l5055:
  1319                           
  1320                           ; BSR set to: 0
  1321                           ;C:\Program Files\Microchip\xc8\v2.36\pic\sources\c99\common\doprnt.c: 1397:     while (
      +                          *cfmt) {
  1322  0022CE  C0EE  FFF6         	movff	vfprintf@cfmt,tblptrl
  1323  0022D2  C0EF  FFF7         	movff	vfprintf@cfmt+1,tblptrh
  1324  0022D6                     	if	0	;tblptru may be non-zero
  1325  0022D6                     	endif
  1326  0022D6                     	if	1	;Program memory is > 0xFFFF, there are 3 active tblptr bytes
  1327  0022D6  0E00               	movlw	low (__mediumconst shr (0+16))
  1328  0022D8  6EF8               	movwf	tblptru,c
  1329  0022DA                     	endif
  1330  0022DA  0008               	tblrd		*
  1331  0022DC  50F5               	movf	tablat,w,c
  1332  0022DE  0900               	iorlw	0
  1333  0022E0  A4D8               	btfss	status,2,c
  1334  0022E2  EF75  F011         	goto	u3061
  1335  0022E6  EF77  F011         	goto	u3060
  1336  0022EA                     u3061:
  1337  0022EA  EF54  F011         	goto	l5053
  1338  0022EE                     u3060:
  1339  0022EE                     
  1340                           ; BSR set to: 0
  1341                           ;C:\Program Files\Microchip\xc8\v2.36\pic\sources\c99\common\doprnt.c: 1400:     return 
      +                          nout;
  1342  0022EE  C0A6  F0E8         	movff	_nout,?_vfprintf
  1343  0022F2  C0A7  F0E9         	movff	_nout+1,?_vfprintf+1
  1344  0022F6                     
  1345                           ; BSR set to: 0
  1346  0022F6  0012               	return		;funcret
  1347  0022F8                     __end_of_vfprintf:
  1348                           	callstack 0
  1349                           
  1350 ;; *************** function _vfpfcnvrt *****************
  1351 ;; Defined at:
  1352 ;;		line 692 in file "C:\Program Files\Microchip\xc8\v2.36\pic\sources\c99\common\doprnt.c"
  1353 ;; Parameters:    Size  Location     Type
  1354 ;;  fp              2   46[BANK0 ] PTR struct _IO_FILE
  1355 ;;		 -> NULL(0), 
  1356 ;;  fmt             2   48[BANK0 ] PTR PTR unsigned char 
  1357 ;;		 -> vfprintf@cfmt(2), 
  1358 ;;  ap              2   50[BANK0 ] PTR PTR void 
  1359 ;;		 -> printf@ap(2), 
  1360 ;; Auto vars:     Size  Location     Type
  1361 ;;  ll              8   54[BANK0 ] long long 
  1362 ;;  llu             8    0        unsigned long long 
  1363 ;;  f               4    0        unsigned long long 
  1364 ;;  vp              3    0        PTR void 
  1365 ;;  ct              3    0        unsigned char [3]
  1366 ;;  cp              3    0        PTR unsigned char 
  1367 ;;  i               2    0        int 
  1368 ;;  done            2    0        int 
  1369 ;;  c               1    0        unsigned char 
  1370 ;; Return value:  Size  Location     Type
  1371 ;;                  2   46[BANK0 ] int 
  1372 ;; Registers used:
  1373 ;;		wreg, fsr1l, fsr1h, fsr2l, fsr2h, status,2, status,0, tblptrl, tblptrh, tblptru, cstack
  1374 ;; Tracked objects:
  1375 ;;		On entry : 0/0
  1376 ;;		On exit  : 0/0
  1377 ;;		Unchanged: 0/0
  1378 ;; Data sizes:     COMRAM   BANK0   BANK1   BANK2   BANK3   BANK4   BANK5   BANK6   BANK7   BANK8   BANK9  BANK10  BANK1
      +1  BANK12  BANK14
  1379 ;;      Params:         0       6       0       0       0       0       0       0       0       0       0       0       
      +0       0       0
  1380 ;;      Locals:         0       8       0       0       0       0       0       0       0       0       0       0       
      +0       0       0
  1381 ;;      Temps:          0       2       0       0       0       0       0       0       0       0       0       0       
      +0       0       0
  1382 ;;      Totals:         0      16       0       0       0       0       0       0       0       0       0       0       
      +0       0       0
  1383 ;;Total ram usage:       16 bytes
  1384 ;; Hardware stack levels used: 1
  1385 ;; Hardware stack levels required when called: 13
  1386 ;; This function calls:
  1387 ;;		_dtoa
  1388 ;;		_fputc
  1389 ;; This function is called by:
  1390 ;;		_vfprintf
  1391 ;; This function uses a non-reentrant model
  1392 ;;
  1393                           
  1394                           	psect	text3
  1395  001258                     __ptext3:
  1396                           	callstack 0
  1397  001258                     _vfpfcnvrt:
  1398                           	callstack 15
  1399  001258                     
  1400                           ;C:\Program Files\Microchip\xc8\v2.36\pic\sources\c99\common\doprnt.c: 692: static int v
      +                          fpfcnvrt(FILE *fp, char *fmt[], va_list ap);C:\Program Files\Microchip\xc8\v2.36\pic\sou
      +                          rces\c99\common\doprnt.c: 693: {;C:\Program Files\Microchip\xc8\v2.36\pic\sources\c99\co
      +                          mmon\doprnt.c: 694:     char c, *cp, ct[3];;C:\Program Files\Microchip\xc8\v2.36\pic\sou
      +                          rces\c99\common\doprnt.c: 695:     int done, i;;C:\Program Files\Microchip\xc8\v2.36\pic
      +                          \sources\c99\common\doprnt.c: 696:     long long ll;;C:\Program Files\Microchip\xc8\v2.3
      +                          6\pic\sources\c99\common\doprnt.c: 697:     unsigned long long llu;
  1401  001258  C0DA  FFD9         	movff	vfpfcnvrt@fmt,fsr2l
  1402  00125C  C0DB  FFDA         	movff	vfpfcnvrt@fmt+1,fsr2h
  1403  001260  CFDE FFF6          	movff	postinc2,tblptrl
  1404  001264  CFDD FFF7          	movff	postdec2,tblptrh
  1405  001268                     	if	0	;tblptru may be non-zero
  1406  001268                     	endif
  1407  001268                     	if	1	;Program memory is > 0xFFFF, there are 3 active tblptr bytes
  1408  001268  0E00               	movlw	low (__mediumconst shr (0+16))
  1409  00126A  6EF8               	movwf	tblptru,c
  1410  00126C                     	endif
  1411  00126C  0008               	tblrd		*
  1412  00126E  50F5               	movf	tablat,w,c
  1413  001270  0A25               	xorlw	37
  1414  001272  A4D8               	btfss	status,2,c
  1415  001274  EF3E  F009         	goto	u2901
  1416  001278  EF40  F009         	goto	u2900
  1417  00127C                     u2901:
  1418  00127C  EFF4  F009         	goto	l4841
  1419  001280                     u2900:
  1420  001280                     
  1421                           ;C:\Program Files\Microchip\xc8\v2.36\pic\sources\c99\common\doprnt.c: 703:         ++*f
      +                          mt;
  1422  001280  C0DA  FFD9         	movff	vfpfcnvrt@fmt,fsr2l
  1423  001284  C0DB  FFDA         	movff	vfpfcnvrt@fmt+1,fsr2h
  1424  001288  2ADE               	incf	postinc2,f,c
  1425  00128A  0E00               	movlw	0
  1426  00128C  22DD               	addwfc	postdec2,f,c
  1427  00128E                     
  1428                           ;C:\Program Files\Microchip\xc8\v2.36\pic\sources\c99\common\doprnt.c: 705:         flag
      +                          s = width = 0;
  1429  00128E  0E00               	movlw	0
  1430  001290  6E32               	movwf	(_width+1)^0,c
  1431  001292  0E00               	movlw	0
  1432  001294  6E31               	movwf	_width^0,c
  1433  001296  C031  F035         	movff	_width,_flags
  1434  00129A  C032  F036         	movff	_width+1,_flags+1
  1435  00129E                     
  1436                           ;C:\Program Files\Microchip\xc8\v2.36\pic\sources\c99\common\doprnt.c: 706:         prec
      +                           = -1;
  1437  00129E  6833               	setf	_prec^0,c
  1438  0012A0  6834               	setf	(_prec+1)^0,c
  1439  0012A2                     
  1440                           ;C:\Program Files\Microchip\xc8\v2.36\pic\sources\c99\common\doprnt.c: 847:         if (
      +                          (*fmt[0] == 'd') || (*fmt[0] == 'i')) {
  1441  0012A2  C0DA  FFD9         	movff	vfpfcnvrt@fmt,fsr2l
  1442  0012A6  C0DB  FFDA         	movff	vfpfcnvrt@fmt+1,fsr2h
  1443  0012AA  CFDE FFF6          	movff	postinc2,tblptrl
  1444  0012AE  CFDD FFF7          	movff	postdec2,tblptrh
  1445  0012B2                     	if	0	;tblptru may be non-zero
  1446  0012B2                     	endif
  1447  0012B2                     	if	1	;Program memory is > 0xFFFF, there are 3 active tblptr bytes
  1448  0012B2  0E00               	movlw	low (__mediumconst shr (0+16))
  1449  0012B4  6EF8               	movwf	tblptru,c
  1450  0012B6                     	endif
  1451  0012B6  0008               	tblrd		*
  1452  0012B8  50F5               	movf	tablat,w,c
  1453  0012BA  0A64               	xorlw	100
  1454  0012BC  B4D8               	btfsc	status,2,c
  1455  0012BE  EF63  F009         	goto	u2911
  1456  0012C2  EF65  F009         	goto	u2910
  1457  0012C6                     u2911:
  1458  0012C6  EF79  F009         	goto	l4819
  1459  0012CA                     u2910:
  1460  0012CA  C0DA  FFD9         	movff	vfpfcnvrt@fmt,fsr2l
  1461  0012CE  C0DB  FFDA         	movff	vfpfcnvrt@fmt+1,fsr2h
  1462  0012D2  CFDE FFF6          	movff	postinc2,tblptrl
  1463  0012D6  CFDD FFF7          	movff	postdec2,tblptrh
  1464  0012DA                     	if	0	;tblptru may be non-zero
  1465  0012DA                     	endif
  1466  0012DA                     	if	1	;Program memory is > 0xFFFF, there are 3 active tblptr bytes
  1467  0012DA  0E00               	movlw	low (__mediumconst shr (0+16))
  1468  0012DC  6EF8               	movwf	tblptru,c
  1469  0012DE                     	endif
  1470  0012DE  0008               	tblrd		*
  1471  0012E0  50F5               	movf	tablat,w,c
  1472  0012E2  0A69               	xorlw	105
  1473  0012E4  A4D8               	btfss	status,2,c
  1474  0012E6  EF77  F009         	goto	u2921
  1475  0012EA  EF79  F009         	goto	u2920
  1476  0012EE                     u2921:
  1477  0012EE  EFBA  F009         	goto	l4825
  1478  0012F2                     u2920:
  1479  0012F2                     l4819:
  1480                           
  1481                           ;C:\Program Files\Microchip\xc8\v2.36\pic\sources\c99\common\doprnt.c: 849:             
      +                          ++*fmt;
  1482  0012F2  C0DA  FFD9         	movff	vfpfcnvrt@fmt,fsr2l
  1483  0012F6  C0DB  FFDA         	movff	vfpfcnvrt@fmt+1,fsr2h
  1484  0012FA  2ADE               	incf	postinc2,f,c
  1485  0012FC  0E00               	movlw	0
  1486  0012FE  22DD               	addwfc	postdec2,f,c
  1487                           
  1488                           ;C:\Program Files\Microchip\xc8\v2.36\pic\sources\c99\common\doprnt.c: 850:             
      +                          ll = (long long)(*(int *)__va_arg(*(int **)ap, (int)0));
  1489  001300  C0DC  FFD9         	movff	vfpfcnvrt@ap,fsr2l
  1490  001304  C0DD  FFDA         	movff	vfpfcnvrt@ap+1,fsr2h
  1491  001308  CFDF F0DE          	movff	indf2,??_vfpfcnvrt
  1492  00130C  0E02               	movlw	2
  1493  00130E  26DE               	addwf	postinc2,f,c
  1494  001310  CFDF F0DF          	movff	indf2,??_vfpfcnvrt+1
  1495  001314  0E00               	movlw	0
  1496  001316  22DD               	addwfc	postdec2,f,c
  1497  001318  C0DE  FFD9         	movff	??_vfpfcnvrt,fsr2l
  1498  00131C  C0DF  FFDA         	movff	??_vfpfcnvrt+1,fsr2h
  1499  001320  CFDE F0E0          	movff	postinc2,vfpfcnvrt@ll
  1500  001324  CFDD F0E1          	movff	postdec2,vfpfcnvrt@ll+1
  1501  001328  0100               	movlb	0	; () banked
  1502  00132A  0E00               	movlw	0
  1503  00132C  BFE1               	btfsc	(vfpfcnvrt@ll+1)& (0+255),7,b
  1504  00132E  0EFF               	movlw	-1
  1505  001330  6FE2               	movwf	(vfpfcnvrt@ll+2)& (0+255),b
  1506  001332  6FE3               	movwf	(vfpfcnvrt@ll+3)& (0+255),b
  1507  001334  6FE4               	movwf	(vfpfcnvrt@ll+4)& (0+255),b
  1508  001336  6FE5               	movwf	(vfpfcnvrt@ll+5)& (0+255),b
  1509  001338  6FE6               	movwf	(vfpfcnvrt@ll+6)& (0+255),b
  1510  00133A  6FE7               	movwf	(vfpfcnvrt@ll+7)& (0+255),b
  1511  00133C                     
  1512                           ; BSR set to: 0
  1513                           ;C:\Program Files\Microchip\xc8\v2.36\pic\sources\c99\common\doprnt.c: 852:             
      +                          return dtoa(fp, ll);
  1514  00133C  C0D8  F0B4         	movff	vfpfcnvrt@fp,dtoa@fp
  1515  001340  C0D9  F0B5         	movff	vfpfcnvrt@fp+1,dtoa@fp+1
  1516  001344  C0E0  F0B6         	movff	vfpfcnvrt@ll,dtoa@d
  1517  001348  C0E1  F0B7         	movff	vfpfcnvrt@ll+1,dtoa@d+1
  1518  00134C  C0E2  F0B8         	movff	vfpfcnvrt@ll+2,dtoa@d+2
  1519  001350  C0E3  F0B9         	movff	vfpfcnvrt@ll+3,dtoa@d+3
  1520  001354  C0E4  F0BA         	movff	vfpfcnvrt@ll+4,dtoa@d+4
  1521  001358  C0E5  F0BB         	movff	vfpfcnvrt@ll+5,dtoa@d+5
  1522  00135C  C0E6  F0BC         	movff	vfpfcnvrt@ll+6,dtoa@d+6
  1523  001360  C0E7  F0BD         	movff	vfpfcnvrt@ll+7,dtoa@d+7
  1524  001364  ECBA  F007         	call	_dtoa	;wreg free
  1525  001368  C0B4  F0D8         	movff	?_dtoa,?_vfpfcnvrt
  1526  00136C  C0B5  F0D9         	movff	?_dtoa+1,?_vfpfcnvrt+1
  1527  001370  EF11  F00A         	goto	l1667
  1528  001374                     l4825:
  1529                           
  1530                           ;C:\Program Files\Microchip\xc8\v2.36\pic\sources\c99\common\doprnt.c: 1372:         if 
      +                          ((*fmt)[0] == '%') {
  1531  001374  C0DA  FFD9         	movff	vfpfcnvrt@fmt,fsr2l
  1532  001378  C0DB  FFDA         	movff	vfpfcnvrt@fmt+1,fsr2h
  1533  00137C  CFDE FFF6          	movff	postinc2,tblptrl
  1534  001380  CFDD FFF7          	movff	postdec2,tblptrh
  1535  001384                     	if	0	;tblptru may be non-zero
  1536  001384                     	endif
  1537  001384                     	if	1	;Program memory is > 0xFFFF, there are 3 active tblptr bytes
  1538  001384  0E00               	movlw	low (__mediumconst shr (0+16))
  1539  001386  6EF8               	movwf	tblptru,c
  1540  001388                     	endif
  1541  001388  0008               	tblrd		*
  1542  00138A  50F5               	movf	tablat,w,c
  1543  00138C  0A25               	xorlw	37
  1544  00138E  A4D8               	btfss	status,2,c
  1545  001390  EFCC  F009         	goto	u2931
  1546  001394  EFCE  F009         	goto	u2930
  1547  001398                     u2931:
  1548  001398  EFE6  F009         	goto	l4835
  1549  00139C                     u2930:
  1550  00139C                     
  1551                           ;C:\Program Files\Microchip\xc8\v2.36\pic\sources\c99\common\doprnt.c: 1373:            
      +                           ++*fmt;
  1552  00139C  C0DA  FFD9         	movff	vfpfcnvrt@fmt,fsr2l
  1553  0013A0  C0DB  FFDA         	movff	vfpfcnvrt@fmt+1,fsr2h
  1554  0013A4  2ADE               	incf	postinc2,f,c
  1555  0013A6  0E00               	movlw	0
  1556  0013A8  22DD               	addwfc	postdec2,f,c
  1557  0013AA                     
  1558                           ;C:\Program Files\Microchip\xc8\v2.36\pic\sources\c99\common\doprnt.c: 1374:            
      +                           fputc((int)'%', fp);
  1559  0013AA  0E00               	movlw	0
  1560  0013AC  6E1D               	movwf	(fputc@c+1)^0,c
  1561  0013AE  0E25               	movlw	37
  1562  0013B0  6E1C               	movwf	fputc@c^0,c
  1563  0013B2  C0D8  F01E         	movff	vfpfcnvrt@fp,fputc@fp
  1564  0013B6  C0D9  F01F         	movff	vfpfcnvrt@fp+1,fputc@fp+1
  1565  0013BA  ECFB  F00E         	call	_fputc	;wreg free
  1566  0013BE                     l4831:
  1567                           
  1568                           ;C:\Program Files\Microchip\xc8\v2.36\pic\sources\c99\common\doprnt.c: 1375:            
      +                           return 1;
  1569  0013BE  0E00               	movlw	0
  1570  0013C0  0100               	movlb	0	; () banked
  1571  0013C2  6FD9               	movwf	(?_vfpfcnvrt+1)& (0+255),b
  1572  0013C4  0E01               	movlw	1
  1573  0013C6  6FD8               	movwf	?_vfpfcnvrt& (0+255),b
  1574  0013C8  EF11  F00A         	goto	l1667
  1575  0013CC                     l4835:
  1576                           
  1577                           ;C:\Program Files\Microchip\xc8\v2.36\pic\sources\c99\common\doprnt.c: 1379:         ++*
      +                          fmt;
  1578  0013CC  C0DA  FFD9         	movff	vfpfcnvrt@fmt,fsr2l
  1579  0013D0  C0DB  FFDA         	movff	vfpfcnvrt@fmt+1,fsr2h
  1580  0013D4  2ADE               	incf	postinc2,f,c
  1581  0013D6  0E00               	movlw	0
  1582  0013D8  22DD               	addwfc	postdec2,f,c
  1583  0013DA                     
  1584                           ;C:\Program Files\Microchip\xc8\v2.36\pic\sources\c99\common\doprnt.c: 1380:         ret
      +                          urn 0;
  1585  0013DA  0E00               	movlw	0
  1586  0013DC  0100               	movlb	0	; () banked
  1587  0013DE  6FD9               	movwf	(?_vfpfcnvrt+1)& (0+255),b
  1588  0013E0  0E00               	movlw	0
  1589  0013E2  6FD8               	movwf	?_vfpfcnvrt& (0+255),b
  1590  0013E4  EF11  F00A         	goto	l1667
  1591  0013E8                     l4841:
  1592                           
  1593                           ;C:\Program Files\Microchip\xc8\v2.36\pic\sources\c99\common\doprnt.c: 1384:     fputc((
      +                          int)(*fmt)[0], fp);
  1594  0013E8  C0DA  FFD9         	movff	vfpfcnvrt@fmt,fsr2l
  1595  0013EC  C0DB  FFDA         	movff	vfpfcnvrt@fmt+1,fsr2h
  1596  0013F0  CFDE FFF6          	movff	postinc2,tblptrl
  1597  0013F4  CFDD FFF7          	movff	postdec2,tblptrh
  1598  0013F8                     	if	0	;tblptru may be non-zero
  1599  0013F8                     	endif
  1600  0013F8                     	if	1	;Program memory is > 0xFFFF, there are 3 active tblptr bytes
  1601  0013F8  0E00               	movlw	low (__mediumconst shr (0+16))
  1602  0013FA  6EF8               	movwf	tblptru,c
  1603  0013FC                     	endif
  1604  0013FC  0008               	tblrd		*
  1605  0013FE  50F5               	movf	tablat,w,c
  1606  001400  6E1C               	movwf	fputc@c^0,c
  1607  001402  6A1D               	clrf	(fputc@c+1)^0,c
  1608  001404  C0D8  F01E         	movff	vfpfcnvrt@fp,fputc@fp
  1609  001408  C0D9  F01F         	movff	vfpfcnvrt@fp+1,fputc@fp+1
  1610  00140C  ECFB  F00E         	call	_fputc	;wreg free
  1611  001410                     
  1612                           ;C:\Program Files\Microchip\xc8\v2.36\pic\sources\c99\common\doprnt.c: 1385:     ++*fmt;
  1613  001410  C0DA  FFD9         	movff	vfpfcnvrt@fmt,fsr2l
  1614  001414  C0DB  FFDA         	movff	vfpfcnvrt@fmt+1,fsr2h
  1615  001418  2ADE               	incf	postinc2,f,c
  1616  00141A  0E00               	movlw	0
  1617  00141C  22DD               	addwfc	postdec2,f,c
  1618  00141E  EFDF  F009         	goto	l4831
  1619  001422                     l1667:
  1620  001422  0012               	return		;funcret
  1621  001424                     __end_of_vfpfcnvrt:
  1622                           	callstack 0
  1623                           
  1624 ;; *************** function _dtoa *****************
  1625 ;; Defined at:
  1626 ;;		line 287 in file "C:\Program Files\Microchip\xc8\v2.36\pic\sources\c99\common\doprnt.c"
  1627 ;; Parameters:    Size  Location     Type
  1628 ;;  fp              2   10[BANK0 ] PTR struct _IO_FILE
  1629 ;;		 -> NULL(0), 
  1630 ;;  d               8   12[BANK0 ] long long 
  1631 ;; Auto vars:     Size  Location     Type
  1632 ;;  n               8   36[BANK0 ] long long 
  1633 ;;  i               2   44[BANK0 ] int 
  1634 ;;  s               2   34[BANK0 ] int 
  1635 ;;  w               2   32[BANK0 ] int 
  1636 ;;  p               2   30[BANK0 ] int 
  1637 ;; Return value:  Size  Location     Type
  1638 ;;                  2   10[BANK0 ] int 
  1639 ;; Registers used:
  1640 ;;		wreg, fsr1l, fsr1h, fsr2l, fsr2h, status,2, status,0, cstack
  1641 ;; Tracked objects:
  1642 ;;		On entry : 0/0
  1643 ;;		On exit  : 0/0
  1644 ;;		Unchanged: 0/0
  1645 ;; Data sizes:     COMRAM   BANK0   BANK1   BANK2   BANK3   BANK4   BANK5   BANK6   BANK7   BANK8   BANK9  BANK10  BANK1
      +1  BANK12  BANK14
  1646 ;;      Params:         0      10       0       0       0       0       0       0       0       0       0       0       
      +0       0       0
  1647 ;;      Locals:         0      18       0       0       0       0       0       0       0       0       0       0       
      +0       0       0
  1648 ;;      Temps:          0       8       0       0       0       0       0       0       0       0       0       0       
      +0       0       0
  1649 ;;      Totals:         0      36       0       0       0       0       0       0       0       0       0       0       
      +0       0       0
  1650 ;;Total ram usage:       36 bytes
  1651 ;; Hardware stack levels used: 1
  1652 ;; Hardware stack levels required when called: 12
  1653 ;; This function calls:
  1654 ;;		___aodiv
  1655 ;;		___aomod
  1656 ;;		_abs
  1657 ;;		_pad
  1658 ;; This function is called by:
  1659 ;;		_vfpfcnvrt
  1660 ;; This function uses a non-reentrant model
  1661 ;;
  1662                           
  1663                           	psect	text4
  1664  000F74                     __ptext4:
  1665                           	callstack 0
  1666  000F74                     _dtoa:
  1667                           	callstack 15
  1668  000F74                     
  1669                           ;C:\Program Files\Microchip\xc8\v2.36\pic\sources\c99\common\doprnt.c: 287: static int d
      +                          toa(FILE *fp, long long d);C:\Program Files\Microchip\xc8\v2.36\pic\sources\c99\common\d
      +                          oprnt.c: 288: {;C:\Program Files\Microchip\xc8\v2.36\pic\sources\c99\common\doprnt.c: 28
      +                          9:     int i, p, s, w;;C:\Program Files\Microchip\xc8\v2.36\pic\sources\c99\common\doprn
      +                          t.c: 290:     long long n;;C:\Program Files\Microchip\xc8\v2.36\pic\sources\c99\common\d
      +                          oprnt.c: 293:     n = d;
  1670  000F74  C0B6  F0CE         	movff	dtoa@d,dtoa@n
  1671  000F78  C0B7  F0CF         	movff	dtoa@d+1,dtoa@n+1
  1672  000F7C  C0B8  F0D0         	movff	dtoa@d+2,dtoa@n+2
  1673  000F80  C0B9  F0D1         	movff	dtoa@d+3,dtoa@n+3
  1674  000F84  C0BA  F0D2         	movff	dtoa@d+4,dtoa@n+4
  1675  000F88  C0BB  F0D3         	movff	dtoa@d+5,dtoa@n+5
  1676  000F8C  C0BC  F0D4         	movff	dtoa@d+6,dtoa@n+6
  1677  000F90  C0BD  F0D5         	movff	dtoa@d+7,dtoa@n+7
  1678  000F94                     
  1679                           ;C:\Program Files\Microchip\xc8\v2.36\pic\sources\c99\common\doprnt.c: 294:     s = n < 
      +                          0 ? 1 : 0;
  1680  000F94  0100               	movlb	0	; () banked
  1681  000F96  BFD5               	btfsc	(dtoa@n+7)& (0+255),7,b
  1682  000F98  EFD0  F007         	goto	u2641
  1683  000F9C  EFD3  F007         	goto	u2640
  1684  000FA0                     u2641:
  1685  000FA0  0E01               	movlw	1
  1686  000FA2  EFD4  F007         	goto	u2650
  1687  000FA6                     u2640:
  1688  000FA6  0E00               	movlw	0
  1689  000FA8                     u2650:
  1690  000FA8  6FCC               	movwf	dtoa@s& (0+255),b
  1691  000FAA  6BCD               	clrf	(dtoa@s+1)& (0+255),b
  1692                           
  1693                           ;C:\Program Files\Microchip\xc8\v2.36\pic\sources\c99\common\doprnt.c: 295:     if (s) {
  1694  000FAC  51CC               	movf	dtoa@s& (0+255),w,b
  1695  000FAE  11CD               	iorwf	(dtoa@s+1)& (0+255),w,b
  1696  000FB0  B4D8               	btfsc	status,2,c
  1697  000FB2  EFDD  F007         	goto	u2661
  1698  000FB6  EFDF  F007         	goto	u2660
  1699  000FBA                     u2661:
  1700  000FBA  EFEF  F007         	goto	l4567
  1701  000FBE                     u2660:
  1702  000FBE                     
  1703                           ; BSR set to: 0
  1704                           ;C:\Program Files\Microchip\xc8\v2.36\pic\sources\c99\common\doprnt.c: 296:         n = 
      +                          -n;
  1705  000FBE  1FD5               	comf	(dtoa@n+7)& (0+255),f,b
  1706  000FC0  1FD4               	comf	(dtoa@n+6)& (0+255),f,b
  1707  000FC2  1FD3               	comf	(dtoa@n+5)& (0+255),f,b
  1708  000FC4  1FD2               	comf	(dtoa@n+4)& (0+255),f,b
  1709  000FC6  1FD1               	comf	(dtoa@n+3)& (0+255),f,b
  1710  000FC8  1FD0               	comf	(dtoa@n+2)& (0+255),f,b
  1711  000FCA  1FCF               	comf	(dtoa@n+1)& (0+255),f,b
  1712  000FCC  6DCE               	negf	dtoa@n& (0+255),b
  1713  000FCE  0E00               	movlw	0
  1714  000FD0  23CF               	addwfc	(dtoa@n+1)& (0+255),f,b
  1715  000FD2  23D0               	addwfc	(dtoa@n+2)& (0+255),f,b
  1716  000FD4  23D1               	addwfc	(dtoa@n+3)& (0+255),f,b
  1717  000FD6  23D2               	addwfc	(dtoa@n+4)& (0+255),f,b
  1718  000FD8  23D3               	addwfc	(dtoa@n+5)& (0+255),f,b
  1719  000FDA  23D4               	addwfc	(dtoa@n+6)& (0+255),f,b
  1720  000FDC  23D5               	addwfc	(dtoa@n+7)& (0+255),f,b
  1721  000FDE                     l4567:
  1722                           
  1723                           ; BSR set to: 0
  1724                           ;C:\Program Files\Microchip\xc8\v2.36\pic\sources\c99\common\doprnt.c: 300:     if (!(pr
      +                          ec < 0)) {
  1725  000FDE  BE34               	btfsc	(_prec+1)^0,7,c
  1726  000FE0  EFF4  F007         	goto	u2671
  1727  000FE4  EFF6  F007         	goto	u2670
  1728  000FE8                     u2671:
  1729  000FE8  EFF7  F007         	goto	l4571
  1730  000FEC                     u2670:
  1731  000FEC                     
  1732                           ; BSR set to: 0
  1733                           ;C:\Program Files\Microchip\xc8\v2.36\pic\sources\c99\common\doprnt.c: 301:         flag
      +                          s &= ~(1 << 1);
  1734  000FEC  9235               	bcf	_flags^0,1,c
  1735  000FEE                     l4571:
  1736                           
  1737                           ; BSR set to: 0
  1738                           ;C:\Program Files\Microchip\xc8\v2.36\pic\sources\c99\common\doprnt.c: 303:     p = (0 <
      +                           prec) ? prec : 1;
  1739  000FEE  BE34               	btfsc	(_prec+1)^0,7,c
  1740  000FF0  EF04  F008         	goto	u2680
  1741  000FF4  5034               	movf	(_prec+1)^0,w,c
  1742  000FF6  E106               	bnz	u2681
  1743  000FF8  0433               	decf	_prec^0,w,c
  1744  000FFA  B0D8               	btfsc	status,0,c
  1745  000FFC  EF02  F008         	goto	u2681
  1746  001000  EF04  F008         	goto	u2680
  1747  001004                     u2681:
  1748  001004  EF0A  F008         	goto	l1640
  1749  001008                     u2680:
  1750  001008                     
  1751                           ; BSR set to: 0
  1752  001008  0E00               	movlw	0
  1753  00100A  6FC9               	movwf	(dtoa@p+1)& (0+255),b
  1754  00100C  0E01               	movlw	1
  1755  00100E  6FC8               	movwf	dtoa@p& (0+255),b
  1756  001010  EF0E  F008         	goto	l1642
  1757  001014                     l1640:
  1758                           
  1759                           ; BSR set to: 0
  1760  001014  C033  F0C8         	movff	_prec,dtoa@p
  1761  001018  C034  F0C9         	movff	_prec+1,dtoa@p+1
  1762  00101C                     l1642:
  1763                           
  1764                           ; BSR set to: 0
  1765                           ;C:\Program Files\Microchip\xc8\v2.36\pic\sources\c99\common\doprnt.c: 304:     w = widt
      +                          h;
  1766  00101C  C031  F0CA         	movff	_width,dtoa@w
  1767  001020  C032  F0CB         	movff	_width+1,dtoa@w+1
  1768  001024                     
  1769                           ; BSR set to: 0
  1770                           ;C:\Program Files\Microchip\xc8\v2.36\pic\sources\c99\common\doprnt.c: 305:     if (s ||
      +                           (flags & (1 << 2))) {
  1771  001024  51CC               	movf	dtoa@s& (0+255),w,b
  1772  001026  11CD               	iorwf	(dtoa@s+1)& (0+255),w,b
  1773  001028  A4D8               	btfss	status,2,c
  1774  00102A  EF19  F008         	goto	u2691
  1775  00102E  EF1B  F008         	goto	u2690
  1776  001032                     u2691:
  1777  001032  EF22  F008         	goto	l4579
  1778  001036                     u2690:
  1779  001036                     
  1780                           ; BSR set to: 0
  1781  001036  A435               	btfss	_flags^0,2,c
  1782  001038  EF20  F008         	goto	u2701
  1783  00103C  EF22  F008         	goto	u2700
  1784  001040                     u2701:
  1785  001040  EF25  F008         	goto	l4581
  1786  001044                     u2700:
  1787  001044                     l4579:
  1788                           
  1789                           ; BSR set to: 0
  1790                           ;C:\Program Files\Microchip\xc8\v2.36\pic\sources\c99\common\doprnt.c: 306:         --w;
  1791  001044  07CA               	decf	dtoa@w& (0+255),f,b
  1792  001046  A0D8               	btfss	status,0,c
  1793  001048  07CB               	decf	(dtoa@w+1)& (0+255),f,b
  1794  00104A                     l4581:
  1795                           
  1796                           ; BSR set to: 0
  1797                           ;C:\Program Files\Microchip\xc8\v2.36\pic\sources\c99\common\doprnt.c: 310:     i = size
      +                          of(dbuf) - 1;
  1798  00104A  0E00               	movlw	0
  1799  00104C  6FD7               	movwf	(dtoa@i+1)& (0+255),b
  1800  00104E  0E1F               	movlw	31
  1801  001050  6FD6               	movwf	dtoa@i& (0+255),b
  1802  001052                     
  1803                           ; BSR set to: 0
  1804                           ;C:\Program Files\Microchip\xc8\v2.36\pic\sources\c99\common\doprnt.c: 311:     dbuf[i] 
      +                          = '\0';
  1805  001052  0E00               	movlw	0
  1806  001054  0102               	movlb	2	; () banked
  1807  001056  6F1F               	movwf	(_dbuf+31)& (0+255),b
  1808                           
  1809                           ;C:\Program Files\Microchip\xc8\v2.36\pic\sources\c99\common\doprnt.c: 312:     while (!
      +                          (i < 1) && (n || (0 < p) || ((0 < w) && (flags & (1 << 1))))) {
  1810  001058  EFAB  F008         	goto	l4595
  1811  00105C                     l4585:
  1812                           
  1813                           ; BSR set to: 0
  1814                           ;C:\Program Files\Microchip\xc8\v2.36\pic\sources\c99\common\doprnt.c: 313:         --i;
  1815  00105C  07D6               	decf	dtoa@i& (0+255),f,b
  1816  00105E  A0D8               	btfss	status,0,c
  1817  001060  07D7               	decf	(dtoa@i+1)& (0+255),f,b
  1818  001062                     
  1819                           ; BSR set to: 0
  1820                           ;C:\Program Files\Microchip\xc8\v2.36\pic\sources\c99\common\doprnt.c: 314:         dbuf
      +                          [i] = (char)((int)'0' + abs(n % 10));
  1821  001062  0E00               	movlw	low _dbuf
  1822  001064  25D6               	addwf	dtoa@i& (0+255),w,b
  1823  001066  6ED9               	movwf	fsr2l,c
  1824  001068  0E02               	movlw	high _dbuf
  1825  00106A  21D7               	addwfc	(dtoa@i+1)& (0+255),w,b
  1826  00106C  6EDA               	movwf	fsr2h,c
  1827  00106E  C0CE  F01A         	movff	dtoa@n,___aomod@dividend
  1828  001072  C0CF  F01B         	movff	dtoa@n+1,___aomod@dividend+1
  1829  001076  C0D0  F01C         	movff	dtoa@n+2,___aomod@dividend+2
  1830  00107A  C0D1  F01D         	movff	dtoa@n+3,___aomod@dividend+3
  1831  00107E  C0D2  F01E         	movff	dtoa@n+4,___aomod@dividend+4
  1832  001082  C0D3  F01F         	movff	dtoa@n+5,___aomod@dividend+5
  1833  001086  C0D4  F020         	movff	dtoa@n+6,___aomod@dividend+6
  1834  00108A  C0D5  F021         	movff	dtoa@n+7,___aomod@dividend+7
  1835  00108E  0E0A               	movlw	10
  1836  001090  6E22               	movwf	___aomod@divisor^0,c
  1837  001092  0E00               	movlw	0
  1838  001094  6E23               	movwf	(___aomod@divisor+1)^0,c
  1839  001096  0E00               	movlw	0
  1840  001098  6E24               	movwf	(___aomod@divisor+2)^0,c
  1841  00109A  0E00               	movlw	0
  1842  00109C  6E25               	movwf	(___aomod@divisor+3)^0,c
  1843  00109E  0E00               	movlw	0
  1844  0010A0  6E26               	movwf	(___aomod@divisor+4)^0,c
  1845  0010A2  0E00               	movlw	0
  1846  0010A4  6E27               	movwf	(___aomod@divisor+5)^0,c
  1847  0010A6  0E00               	movlw	0
  1848  0010A8  6E28               	movwf	(___aomod@divisor+6)^0,c
  1849  0010AA  0E00               	movlw	0
  1850  0010AC  6E29               	movwf	(___aomod@divisor+7)^0,c
  1851  0010AE  EC92  F00B         	call	___aomod	;wreg free
  1852  0010B2  C01A  F0BE         	movff	?___aomod,??_dtoa
  1853  0010B6  C01B  F0BF         	movff	?___aomod+1,??_dtoa+1
  1854  0010BA  C01C  F0C0         	movff	?___aomod+2,??_dtoa+2
  1855  0010BE  C01D  F0C1         	movff	?___aomod+3,??_dtoa+3
  1856  0010C2  C01E  F0C2         	movff	?___aomod+4,??_dtoa+4
  1857  0010C6  C01F  F0C3         	movff	?___aomod+5,??_dtoa+5
  1858  0010CA  C020  F0C4         	movff	?___aomod+6,??_dtoa+6
  1859  0010CE  C021  F0C5         	movff	?___aomod+7,??_dtoa+7
  1860  0010D2  C0BE  F02C         	movff	??_dtoa,abs@a
  1861  0010D6  C0C0  F02D         	movff	??_dtoa+2,abs@a+1
  1862  0010DA  EC83  F012         	call	_abs	;wreg free
  1863  0010DE  502C               	movf	?_abs^0,w,c
  1864  0010E0  0F30               	addlw	48
  1865  0010E2  6EDF               	movwf	indf2,c
  1866  0010E4                     
  1867                           ;C:\Program Files\Microchip\xc8\v2.36\pic\sources\c99\common\doprnt.c: 315:         --p;
  1868  0010E4  0100               	movlb	0	; () banked
  1869  0010E6  07C8               	decf	dtoa@p& (0+255),f,b
  1870  0010E8  A0D8               	btfss	status,0,c
  1871  0010EA  07C9               	decf	(dtoa@p+1)& (0+255),f,b
  1872  0010EC                     
  1873                           ; BSR set to: 0
  1874                           ;C:\Program Files\Microchip\xc8\v2.36\pic\sources\c99\common\doprnt.c: 316:         --w;
  1875  0010EC  07CA               	decf	dtoa@w& (0+255),f,b
  1876  0010EE  A0D8               	btfss	status,0,c
  1877  0010F0  07CB               	decf	(dtoa@w+1)& (0+255),f,b
  1878  0010F2                     
  1879                           ; BSR set to: 0
  1880                           ;C:\Program Files\Microchip\xc8\v2.36\pic\sources\c99\common\doprnt.c: 317:         n = 
      +                          n / 10;
  1881  0010F2  C0CE  F01A         	movff	dtoa@n,___aodiv@dividend
  1882  0010F6  C0CF  F01B         	movff	dtoa@n+1,___aodiv@dividend+1
  1883  0010FA  C0D0  F01C         	movff	dtoa@n+2,___aodiv@dividend+2
  1884  0010FE  C0D1  F01D         	movff	dtoa@n+3,___aodiv@dividend+3
  1885  001102  C0D2  F01E         	movff	dtoa@n+4,___aodiv@dividend+4
  1886  001106  C0D3  F01F         	movff	dtoa@n+5,___aodiv@dividend+5
  1887  00110A  C0D4  F020         	movff	dtoa@n+6,___aodiv@dividend+6
  1888  00110E  C0D5  F021         	movff	dtoa@n+7,___aodiv@dividend+7
  1889  001112  0E0A               	movlw	10
  1890  001114  6E22               	movwf	___aodiv@divisor^0,c
  1891  001116  0E00               	movlw	0
  1892  001118  6E23               	movwf	(___aodiv@divisor+1)^0,c
  1893  00111A  0E00               	movlw	0
  1894  00111C  6E24               	movwf	(___aodiv@divisor+2)^0,c
  1895  00111E  0E00               	movlw	0
  1896  001120  6E25               	movwf	(___aodiv@divisor+3)^0,c
  1897  001122  0E00               	movlw	0
  1898  001124  6E26               	movwf	(___aodiv@divisor+4)^0,c
  1899  001126  0E00               	movlw	0
  1900  001128  6E27               	movwf	(___aodiv@divisor+5)^0,c
  1901  00112A  0E00               	movlw	0
  1902  00112C  6E28               	movwf	(___aodiv@divisor+6)^0,c
  1903  00112E  0E00               	movlw	0
  1904  001130  6E29               	movwf	(___aodiv@divisor+7)^0,c
  1905  001132  EC12  F00A         	call	___aodiv	;wreg free
  1906  001136  C01A  F0CE         	movff	?___aodiv,dtoa@n
  1907  00113A  C01B  F0CF         	movff	?___aodiv+1,dtoa@n+1
  1908  00113E  C01C  F0D0         	movff	?___aodiv+2,dtoa@n+2
  1909  001142  C01D  F0D1         	movff	?___aodiv+3,dtoa@n+3
  1910  001146  C01E  F0D2         	movff	?___aodiv+4,dtoa@n+4
  1911  00114A  C01F  F0D3         	movff	?___aodiv+5,dtoa@n+5
  1912  00114E  C020  F0D4         	movff	?___aodiv+6,dtoa@n+6
  1913  001152  C021  F0D5         	movff	?___aodiv+7,dtoa@n+7
  1914  001156                     l4595:
  1915                           
  1916                           ;C:\Program Files\Microchip\xc8\v2.36\pic\sources\c99\common\doprnt.c: 312:     while (!
      +                          (i < 1) && (n || (0 < p) || ((0 < w) && (flags & (1 << 1))))) {
  1917  001156  0100               	movlb	0	; () banked
  1918  001158  BFD7               	btfsc	(dtoa@i+1)& (0+255),7,b
  1919  00115A  EFB7  F008         	goto	u2711
  1920  00115E  51D7               	movf	(dtoa@i+1)& (0+255),w,b
  1921  001160  E108               	bnz	u2710
  1922  001162  05D6               	decf	dtoa@i& (0+255),w,b
  1923  001164  A0D8               	btfss	status,0,c
  1924  001166  EFB7  F008         	goto	u2711
  1925  00116A  EFB9  F008         	goto	u2710
  1926  00116E                     u2711:
  1927  00116E  EFE9  F008         	goto	l4605
  1928  001172                     u2710:
  1929  001172                     
  1930                           ; BSR set to: 0
  1931  001172  51CE               	movf	dtoa@n& (0+255),w,b
  1932  001174  11CF               	iorwf	(dtoa@n+1)& (0+255),w,b
  1933  001176  11D0               	iorwf	(dtoa@n+2)& (0+255),w,b
  1934  001178  11D1               	iorwf	(dtoa@n+3)& (0+255),w,b
  1935  00117A  11D2               	iorwf	(dtoa@n+4)& (0+255),w,b
  1936  00117C  11D3               	iorwf	(dtoa@n+5)& (0+255),w,b
  1937  00117E  11D4               	iorwf	(dtoa@n+6)& (0+255),w,b
  1938  001180  11D5               	iorwf	(dtoa@n+7)& (0+255),w,b
  1939  001182  A4D8               	btfss	status,2,c
  1940  001184  EFC6  F008         	goto	u2721
  1941  001188  EFC8  F008         	goto	u2720
  1942  00118C                     u2721:
  1943  00118C  EF2E  F008         	goto	l4585
  1944  001190                     u2720:
  1945  001190                     
  1946                           ; BSR set to: 0
  1947  001190  BFC9               	btfsc	(dtoa@p+1)& (0+255),7,b
  1948  001192  EFD5  F008         	goto	u2730
  1949  001196  51C9               	movf	(dtoa@p+1)& (0+255),w,b
  1950  001198  E106               	bnz	u2731
  1951  00119A  05C8               	decf	dtoa@p& (0+255),w,b
  1952  00119C  B0D8               	btfsc	status,0,c
  1953  00119E  EFD3  F008         	goto	u2731
  1954  0011A2  EFD5  F008         	goto	u2730
  1955  0011A6                     u2731:
  1956  0011A6  EF2E  F008         	goto	l4585
  1957  0011AA                     u2730:
  1958  0011AA                     
  1959                           ; BSR set to: 0
  1960  0011AA  BFCB               	btfsc	(dtoa@w+1)& (0+255),7,b
  1961  0011AC  EFE0  F008         	goto	u2741
  1962  0011B0  51CB               	movf	(dtoa@w+1)& (0+255),w,b
  1963  0011B2  E108               	bnz	u2740
  1964  0011B4  05CA               	decf	dtoa@w& (0+255),w,b
  1965  0011B6  A0D8               	btfss	status,0,c
  1966  0011B8  EFE0  F008         	goto	u2741
  1967  0011BC  EFE2  F008         	goto	u2740
  1968  0011C0                     u2741:
  1969  0011C0  EFE9  F008         	goto	l4605
  1970  0011C4                     u2740:
  1971  0011C4                     
  1972                           ; BSR set to: 0
  1973  0011C4  B235               	btfsc	_flags^0,1,c
  1974  0011C6  EFE7  F008         	goto	u2751
  1975  0011CA  EFE9  F008         	goto	u2750
  1976  0011CE                     u2751:
  1977  0011CE  EF2E  F008         	goto	l4585
  1978  0011D2                     u2750:
  1979  0011D2                     l4605:
  1980                           
  1981                           ; BSR set to: 0
  1982                           ;C:\Program Files\Microchip\xc8\v2.36\pic\sources\c99\common\doprnt.c: 321:     if (s ||
      +                           (flags & (1 << 2))) {
  1983  0011D2  51CC               	movf	dtoa@s& (0+255),w,b
  1984  0011D4  11CD               	iorwf	(dtoa@s+1)& (0+255),w,b
  1985  0011D6  A4D8               	btfss	status,2,c
  1986  0011D8  EFF0  F008         	goto	u2761
  1987  0011DC  EFF2  F008         	goto	u2760
  1988  0011E0                     u2761:
  1989  0011E0  EFF9  F008         	goto	l4609
  1990  0011E4                     u2760:
  1991  0011E4                     
  1992                           ; BSR set to: 0
  1993  0011E4  A435               	btfss	_flags^0,2,c
  1994  0011E6  EFF7  F008         	goto	u2771
  1995  0011EA  EFF9  F008         	goto	u2770
  1996  0011EE                     u2771:
  1997  0011EE  EF17  F009         	goto	l4619
  1998  0011F2                     u2770:
  1999  0011F2                     l4609:
  2000                           
  2001                           ; BSR set to: 0
  2002                           ;C:\Program Files\Microchip\xc8\v2.36\pic\sources\c99\common\doprnt.c: 322:         --i;
  2003  0011F2  07D6               	decf	dtoa@i& (0+255),f,b
  2004  0011F4  A0D8               	btfss	status,0,c
  2005  0011F6  07D7               	decf	(dtoa@i+1)& (0+255),f,b
  2006  0011F8                     
  2007                           ; BSR set to: 0
  2008                           ;C:\Program Files\Microchip\xc8\v2.36\pic\sources\c99\common\doprnt.c: 323:         dbuf
      +                          [i] = s ? '-' : '+';
  2009  0011F8  51CC               	movf	dtoa@s& (0+255),w,b
  2010  0011FA  11CD               	iorwf	(dtoa@s+1)& (0+255),w,b
  2011  0011FC  A4D8               	btfss	status,2,c
  2012  0011FE  EF03  F009         	goto	u2781
  2013  001202  EF05  F009         	goto	u2780
  2014  001206                     u2781:
  2015  001206  EF0B  F009         	goto	l4615
  2016  00120A                     u2780:
  2017  00120A                     
  2018                           ; BSR set to: 0
  2019  00120A  0E00               	movlw	0
  2020  00120C  6FC7               	movwf	(_dtoa$2297+1)& (0+255),b
  2021  00120E  0E2B               	movlw	43
  2022  001210  6FC6               	movwf	_dtoa$2297& (0+255),b
  2023  001212  EF0F  F009         	goto	l4617
  2024  001216                     l4615:
  2025                           
  2026                           ; BSR set to: 0
  2027  001216  0E00               	movlw	0
  2028  001218  6FC7               	movwf	(_dtoa$2297+1)& (0+255),b
  2029  00121A  0E2D               	movlw	45
  2030  00121C  6FC6               	movwf	_dtoa$2297& (0+255),b
  2031  00121E                     l4617:
  2032                           
  2033                           ; BSR set to: 0
  2034  00121E  0E00               	movlw	low _dbuf
  2035  001220  25D6               	addwf	dtoa@i& (0+255),w,b
  2036  001222  6ED9               	movwf	fsr2l,c
  2037  001224  0E02               	movlw	high _dbuf
  2038  001226  21D7               	addwfc	(dtoa@i+1)& (0+255),w,b
  2039  001228  6EDA               	movwf	fsr2h,c
  2040  00122A  C0C6  FFDF         	movff	_dtoa$2297,indf2
  2041  00122E                     l4619:
  2042                           
  2043                           ; BSR set to: 0
  2044                           ;C:\Program Files\Microchip\xc8\v2.36\pic\sources\c99\common\doprnt.c: 327:     return p
      +                          ad(fp, &dbuf[i], w);
  2045  00122E  C0B4  F0AA         	movff	dtoa@fp,pad@fp
  2046  001232  C0B5  F0AB         	movff	dtoa@fp+1,pad@fp+1
  2047  001236  0E00               	movlw	low _dbuf
  2048  001238  25D6               	addwf	dtoa@i& (0+255),w,b
  2049  00123A  6FAC               	movwf	pad@buf& (0+255),b
  2050  00123C  0E02               	movlw	high _dbuf
  2051  00123E  21D7               	addwfc	(dtoa@i+1)& (0+255),w,b
  2052  001240  6FAD               	movwf	(pad@buf+1)& (0+255),b
  2053  001242  C0CA  F0AE         	movff	dtoa@w,pad@p
  2054  001246  C0CB  F0AF         	movff	dtoa@w+1,pad@p+1
  2055  00124A  ECC8  F00C         	call	_pad	;wreg free
  2056  00124E  C0AA  F0B4         	movff	?_pad,?_dtoa
  2057  001252  C0AB  F0B5         	movff	?_pad+1,?_dtoa+1
  2058  001256  0012               	return		;funcret
  2059  001258                     __end_of_dtoa:
  2060                           	callstack 0
  2061                           
  2062 ;; *************** function _pad *****************
  2063 ;; Defined at:
  2064 ;;		line 72 in file "C:\Program Files\Microchip\xc8\v2.36\pic\sources\c99\common\doprnt.c"
  2065 ;; Parameters:    Size  Location     Type
  2066 ;;  fp              2    0[BANK0 ] PTR struct _IO_FILE
  2067 ;;		 -> NULL(0), 
  2068 ;;  buf             2    2[BANK0 ] PTR unsigned char 
  2069 ;;		 -> dbuf(32), 
  2070 ;;  p               2    4[BANK0 ] int 
  2071 ;; Auto vars:     Size  Location     Type
  2072 ;;  w               2    8[BANK0 ] int 
  2073 ;;  i               2    6[BANK0 ] int 
  2074 ;; Return value:  Size  Location     Type
  2075 ;;                  2    0[BANK0 ] int 
  2076 ;; Registers used:
  2077 ;;		wreg, fsr1l, fsr1h, fsr2l, fsr2h, status,2, status,0, cstack
  2078 ;; Tracked objects:
  2079 ;;		On entry : 0/0
  2080 ;;		On exit  : 0/0
  2081 ;;		Unchanged: 0/0
  2082 ;; Data sizes:     COMRAM   BANK0   BANK1   BANK2   BANK3   BANK4   BANK5   BANK6   BANK7   BANK8   BANK9  BANK10  BANK1
      +1  BANK12  BANK14
  2083 ;;      Params:         0       6       0       0       0       0       0       0       0       0       0       0       
      +0       0       0
  2084 ;;      Locals:         0       4       0       0       0       0       0       0       0       0       0       0       
      +0       0       0
  2085 ;;      Temps:          1       0       0       0       0       0       0       0       0       0       0       0       
      +0       0       0
  2086 ;;      Totals:         1      10       0       0       0       0       0       0       0       0       0       0       
      +0       0       0
  2087 ;;Total ram usage:       11 bytes
  2088 ;; Hardware stack levels used: 1
  2089 ;; Hardware stack levels required when called: 11
  2090 ;; This function calls:
  2091 ;;		_fputc
  2092 ;;		_fputs
  2093 ;;		_strlen
  2094 ;; This function is called by:
  2095 ;;		_dtoa
  2096 ;; This function uses a non-reentrant model
  2097 ;;
  2098                           
  2099                           	psect	text5
  2100  001990                     __ptext5:
  2101                           	callstack 0
  2102  001990                     _pad:
  2103                           	callstack 15
  2104  001990                     
  2105                           ;C:\Program Files\Microchip\xc8\v2.36\pic\sources\c99\common\doprnt.c: 72: static int pa
      +                          d(FILE *fp, char *buf, int p);C:\Program Files\Microchip\xc8\v2.36\pic\sources\c99\commo
      +                          n\doprnt.c: 73: {;C:\Program Files\Microchip\xc8\v2.36\pic\sources\c99\common\doprnt.c: 
      +                          74:     int i, w;;C:\Program Files\Microchip\xc8\v2.36\pic\sources\c99\common\doprnt.c: 
      +                          77:     if (flags & (1 << 0)) {
  2106  001990  A035               	btfss	_flags^0,0,c
  2107  001992  EFCD  F00C         	goto	u2571
  2108  001996  EFCF  F00C         	goto	u2570
  2109  00199A                     u2571:
  2110  00199A  EFD9  F00C         	goto	l4423
  2111  00199E                     u2570:
  2112  00199E                     
  2113                           ;C:\Program Files\Microchip\xc8\v2.36\pic\sources\c99\common\doprnt.c: 78:         fputs
      +                          ((const char *)buf, fp);
  2114  00199E  C0AC  F025         	movff	pad@buf,fputs@s
  2115  0019A2  C0AD  F026         	movff	pad@buf+1,fputs@s+1
  2116  0019A6  C0AA  F027         	movff	pad@fp,fputs@fp
  2117  0019AA  C0AB  F028         	movff	pad@fp+1,fputs@fp+1
  2118  0019AE  ECFB  F011         	call	_fputs	;wreg free
  2119  0019B2                     l4423:
  2120                           
  2121                           ;C:\Program Files\Microchip\xc8\v2.36\pic\sources\c99\common\doprnt.c: 82:     w = (p < 
      +                          0) ? 0 : p;
  2122  0019B2  0100               	movlb	0	; () banked
  2123  0019B4  BFAF               	btfsc	(pad@p+1)& (0+255),7,b
  2124  0019B6  EFDF  F00C         	goto	u2581
  2125  0019BA  EFE1  F00C         	goto	u2580
  2126  0019BE                     u2581:
  2127  0019BE  EFE7  F00C         	goto	l4427
  2128  0019C2                     u2580:
  2129  0019C2                     
  2130                           ; BSR set to: 0
  2131  0019C2  C0AE  F0B2         	movff	pad@p,pad@w
  2132  0019C6  C0AF  F0B3         	movff	pad@p+1,pad@w+1
  2133  0019CA  EFEB  F00C         	goto	l1629
  2134  0019CE                     l4427:
  2135                           
  2136                           ; BSR set to: 0
  2137  0019CE  0E00               	movlw	0
  2138  0019D0  6FB3               	movwf	(pad@w+1)& (0+255),b
  2139  0019D2  0E00               	movlw	0
  2140  0019D4  6FB2               	movwf	pad@w& (0+255),b
  2141  0019D6                     l1629:
  2142                           
  2143                           ; BSR set to: 0
  2144                           ;C:\Program Files\Microchip\xc8\v2.36\pic\sources\c99\common\doprnt.c: 83:     i = 0;
  2145  0019D6  0E00               	movlw	0
  2146  0019D8  6FB1               	movwf	(pad@i+1)& (0+255),b
  2147  0019DA  0E00               	movlw	0
  2148  0019DC  6FB0               	movwf	pad@i& (0+255),b
  2149                           
  2150                           ;C:\Program Files\Microchip\xc8\v2.36\pic\sources\c99\common\doprnt.c: 84:     while (i 
      +                          < w) {
  2151  0019DE  EFFE  F00C         	goto	l4433
  2152  0019E2                     l4429:
  2153                           
  2154                           ; BSR set to: 0
  2155                           ;C:\Program Files\Microchip\xc8\v2.36\pic\sources\c99\common\doprnt.c: 85:         fputc
      +                          (' ', fp);
  2156  0019E2  0E00               	movlw	0
  2157  0019E4  6E1D               	movwf	(fputc@c+1)^0,c
  2158  0019E6  0E20               	movlw	32
  2159  0019E8  6E1C               	movwf	fputc@c^0,c
  2160  0019EA  C0AA  F01E         	movff	pad@fp,fputc@fp
  2161  0019EE  C0AB  F01F         	movff	pad@fp+1,fputc@fp+1
  2162  0019F2  ECFB  F00E         	call	_fputc	;wreg free
  2163  0019F6                     
  2164                           ;C:\Program Files\Microchip\xc8\v2.36\pic\sources\c99\common\doprnt.c: 86:         ++i;
  2165  0019F6  0100               	movlb	0	; () banked
  2166  0019F8  4BB0               	infsnz	pad@i& (0+255),f,b
  2167  0019FA  2BB1               	incf	(pad@i+1)& (0+255),f,b
  2168  0019FC                     l4433:
  2169                           
  2170                           ; BSR set to: 0
  2171                           ;C:\Program Files\Microchip\xc8\v2.36\pic\sources\c99\common\doprnt.c: 84:     while (i 
      +                          < w) {
  2172  0019FC  51B2               	movf	pad@w& (0+255),w,b
  2173  0019FE  5DB0               	subwf	pad@i& (0+255),w,b
  2174  001A00  51B1               	movf	(pad@i+1)& (0+255),w,b
  2175  001A02  0A80               	xorlw	128
  2176  001A04  6E2C               	movwf	??_pad^0,c
  2177  001A06  51B3               	movf	(pad@w+1)& (0+255),w,b
  2178  001A08  0A80               	xorlw	128
  2179  001A0A  582C               	subwfb	??_pad^0,w,c
  2180  001A0C  A0D8               	btfss	status,0,c
  2181  001A0E  EF0B  F00D         	goto	u2591
  2182  001A12  EF0D  F00D         	goto	u2590
  2183  001A16                     u2591:
  2184  001A16  EFF1  F00C         	goto	l4429
  2185  001A1A                     u2590:
  2186  001A1A                     
  2187                           ; BSR set to: 0
  2188                           ;C:\Program Files\Microchip\xc8\v2.36\pic\sources\c99\common\doprnt.c: 90:     if (!(fla
      +                          gs & (1 << 0))) {
  2189  001A1A  B035               	btfsc	_flags^0,0,c
  2190  001A1C  EF12  F00D         	goto	u2601
  2191  001A20  EF14  F00D         	goto	u2600
  2192  001A24                     u2601:
  2193  001A24  EF1E  F00D         	goto	l4437
  2194  001A28                     u2600:
  2195  001A28                     
  2196                           ; BSR set to: 0
  2197                           ;C:\Program Files\Microchip\xc8\v2.36\pic\sources\c99\common\doprnt.c: 91:         fputs
      +                          ((const char *)buf, fp);
  2198  001A28  C0AC  F025         	movff	pad@buf,fputs@s
  2199  001A2C  C0AD  F026         	movff	pad@buf+1,fputs@s+1
  2200  001A30  C0AA  F027         	movff	pad@fp,fputs@fp
  2201  001A34  C0AB  F028         	movff	pad@fp+1,fputs@fp+1
  2202  001A38  ECFB  F011         	call	_fputs	;wreg free
  2203  001A3C                     l4437:
  2204                           
  2205                           ;C:\Program Files\Microchip\xc8\v2.36\pic\sources\c99\common\doprnt.c: 94:     return (i
      +                          nt)(strlen(buf) + (size_t)w);
  2206  001A3C  C0AC  F01A         	movff	pad@buf,strlen@s
  2207  001A40  C0AD  F01B         	movff	pad@buf+1,strlen@s+1
  2208  001A44  ECC4  F012         	call	_strlen	;wreg free
  2209  001A48  0100               	movlb	0	; () banked
  2210  001A4A  51B2               	movf	pad@w& (0+255),w,b
  2211  001A4C  241A               	addwf	?_strlen^0,w,c
  2212  001A4E  6FAA               	movwf	?_pad& (0+255),b
  2213  001A50  51B3               	movf	(pad@w+1)& (0+255),w,b
  2214  001A52  201B               	addwfc	(?_strlen+1)^0,w,c
  2215  001A54  6FAB               	movwf	(?_pad+1)& (0+255),b
  2216  001A56                     
  2217                           ; BSR set to: 0
  2218  001A56  0012               	return		;funcret
  2219  001A58                     __end_of_pad:
  2220                           	callstack 0
  2221                           
  2222 ;; *************** function _strlen *****************
  2223 ;; Defined at:
  2224 ;;		line 5 in file "C:\Program Files\Microchip\xc8\v2.36\pic\sources\c99\common\strlen.c"
  2225 ;; Parameters:    Size  Location     Type
  2226 ;;  s               2   25[COMRAM] PTR const unsigned char 
  2227 ;;		 -> dbuf(32), 
  2228 ;; Auto vars:     Size  Location     Type
  2229 ;;  a               2   27[COMRAM] PTR const unsigned char 
  2230 ;;		 -> dbuf(32), 
  2231 ;; Return value:  Size  Location     Type
  2232 ;;                  2   25[COMRAM] unsigned int 
  2233 ;; Registers used:
  2234 ;;		wreg, fsr2l, fsr2h, status,2, status,0
  2235 ;; Tracked objects:
  2236 ;;		On entry : 0/0
  2237 ;;		On exit  : 0/0
  2238 ;;		Unchanged: 0/0
  2239 ;; Data sizes:     COMRAM   BANK0   BANK1   BANK2   BANK3   BANK4   BANK5   BANK6   BANK7   BANK8   BANK9  BANK10  BANK1
      +1  BANK12  BANK14
  2240 ;;      Params:         2       0       0       0       0       0       0       0       0       0       0       0       
      +0       0       0
  2241 ;;      Locals:         2       0       0       0       0       0       0       0       0       0       0       0       
      +0       0       0
  2242 ;;      Temps:          0       0       0       0       0       0       0       0       0       0       0       0       
      +0       0       0
  2243 ;;      Totals:         4       0       0       0       0       0       0       0       0       0       0       0       
      +0       0       0
  2244 ;;Total ram usage:        4 bytes
  2245 ;; Hardware stack levels used: 1
  2246 ;; Hardware stack levels required when called: 7
  2247 ;; This function calls:
  2248 ;;		Nothing
  2249 ;; This function is called by:
  2250 ;;		_pad
  2251 ;; This function uses a non-reentrant model
  2252 ;;
  2253                           
  2254                           	psect	text6
  2255  002588                     __ptext6:
  2256                           	callstack 0
  2257  002588                     _strlen:
  2258                           	callstack 18
  2259  002588  C01A  F01C         	movff	strlen@s,strlen@a
  2260  00258C  C01B  F01D         	movff	strlen@s+1,strlen@a+1
  2261  002590  EFCC  F012         	goto	l4321
  2262  002594                     l4319:
  2263  002594  4A1A               	infsnz	strlen@s^0,f,c
  2264  002596  2A1B               	incf	(strlen@s+1)^0,f,c
  2265  002598                     l4321:
  2266  002598  C01A  FFD9         	movff	strlen@s,fsr2l
  2267  00259C  C01B  FFDA         	movff	strlen@s+1,fsr2h
  2268  0025A0  50DF               	movf	indf2,w,c
  2269  0025A2  A4D8               	btfss	status,2,c
  2270  0025A4  EFD6  F012         	goto	u2421
  2271  0025A8  EFD8  F012         	goto	u2420
  2272  0025AC                     u2421:
  2273  0025AC  EFCA  F012         	goto	l4319
  2274  0025B0                     u2420:
  2275  0025B0  501C               	movf	strlen@a^0,w,c
  2276  0025B2  5C1A               	subwf	strlen@s^0,w,c
  2277  0025B4  6E1A               	movwf	?_strlen^0,c
  2278  0025B6  501D               	movf	(strlen@a+1)^0,w,c
  2279  0025B8  581B               	subwfb	(strlen@s+1)^0,w,c
  2280  0025BA  6E1B               	movwf	(?_strlen+1)^0,c
  2281  0025BC  0012               	return		;funcret
  2282  0025BE                     __end_of_strlen:
  2283                           	callstack 0
  2284                           
  2285 ;; *************** function _fputs *****************
  2286 ;; Defined at:
  2287 ;;		line 8 in file "C:\Program Files\Microchip\xc8\v2.36\pic\sources\c99\common\nf_fputs.c"
  2288 ;; Parameters:    Size  Location     Type
  2289 ;;  s               2   36[COMRAM] PTR const unsigned char 
  2290 ;;		 -> dbuf(32), 
  2291 ;;  fp              2   38[COMRAM] PTR struct _IO_FILE
  2292 ;;		 -> NULL(0), 
  2293 ;; Auto vars:     Size  Location     Type
  2294 ;;  i               2   41[COMRAM] int 
  2295 ;;  c               1   40[COMRAM] unsigned char 
  2296 ;; Return value:  Size  Location     Type
  2297 ;;                  2   36[COMRAM] int 
  2298 ;; Registers used:
  2299 ;;		wreg, fsr1l, fsr1h, fsr2l, fsr2h, status,2, status,0, cstack
  2300 ;; Tracked objects:
  2301 ;;		On entry : 0/0
  2302 ;;		On exit  : 0/0
  2303 ;;		Unchanged: 0/0
  2304 ;; Data sizes:     COMRAM   BANK0   BANK1   BANK2   BANK3   BANK4   BANK5   BANK6   BANK7   BANK8   BANK9  BANK10  BANK1
      +1  BANK12  BANK14
  2305 ;;      Params:         4       0       0       0       0       0       0       0       0       0       0       0       
      +0       0       0
  2306 ;;      Locals:         3       0       0       0       0       0       0       0       0       0       0       0       
      +0       0       0
  2307 ;;      Temps:          0       0       0       0       0       0       0       0       0       0       0       0       
      +0       0       0
  2308 ;;      Totals:         7       0       0       0       0       0       0       0       0       0       0       0       
      +0       0       0
  2309 ;;Total ram usage:        7 bytes
  2310 ;; Hardware stack levels used: 1
  2311 ;; Hardware stack levels required when called: 10
  2312 ;; This function calls:
  2313 ;;		_fputc
  2314 ;; This function is called by:
  2315 ;;		_pad
  2316 ;; This function uses a non-reentrant model
  2317 ;;
  2318                           
  2319                           	psect	text7
  2320  0023F6                     __ptext7:
  2321                           	callstack 0
  2322  0023F6                     _fputs:
  2323                           	callstack 15
  2324  0023F6  0E00               	movlw	0
  2325  0023F8  6E2B               	movwf	(fputs@i+1)^0,c
  2326  0023FA  0E00               	movlw	0
  2327  0023FC  6E2A               	movwf	fputs@i^0,c
  2328  0023FE  EF0C  F012         	goto	l4315
  2329  002402                     l4311:
  2330  002402  C029  F01C         	movff	fputs@c,fputc@c
  2331  002406  6A1D               	clrf	(fputc@c+1)^0,c
  2332  002408  C027  F01E         	movff	fputs@fp,fputc@fp
  2333  00240C  C028  F01F         	movff	fputs@fp+1,fputc@fp+1
  2334  002410  ECFB  F00E         	call	_fputc	;wreg free
  2335  002414  4A2A               	infsnz	fputs@i^0,f,c
  2336  002416  2A2B               	incf	(fputs@i+1)^0,f,c
  2337  002418                     l4315:
  2338  002418  502A               	movf	fputs@i^0,w,c
  2339  00241A  2425               	addwf	fputs@s^0,w,c
  2340  00241C  6ED9               	movwf	fsr2l,c
  2341  00241E  502B               	movf	(fputs@i+1)^0,w,c
  2342  002420  2026               	addwfc	(fputs@s+1)^0,w,c
  2343  002422  6EDA               	movwf	fsr2h,c
  2344  002424  50DF               	movf	indf2,w,c
  2345  002426  6E29               	movwf	fputs@c^0,c
  2346  002428  5029               	movf	fputs@c^0,w,c
  2347  00242A  A4D8               	btfss	status,2,c
  2348  00242C  EF1A  F012         	goto	u2411
  2349  002430  EF1C  F012         	goto	u2410
  2350  002434                     u2411:
  2351  002434  EF01  F012         	goto	l4311
  2352  002438                     u2410:
  2353  002438  0012               	return		;funcret
  2354  00243A                     __end_of_fputs:
  2355                           	callstack 0
  2356                           
  2357 ;; *************** function _fputc *****************
  2358 ;; Defined at:
  2359 ;;		line 8 in file "C:\Program Files\Microchip\xc8\v2.36\pic\sources\c99\common\nf_fputc.c"
  2360 ;; Parameters:    Size  Location     Type
  2361 ;;  c               2   27[COMRAM] int 
  2362 ;;  fp              2   29[COMRAM] PTR struct _IO_FILE
  2363 ;;		 -> NULL(0), 
  2364 ;; Auto vars:     Size  Location     Type
  2365 ;;		None
  2366 ;; Return value:  Size  Location     Type
  2367 ;;                  2   27[COMRAM] int 
  2368 ;; Registers used:
  2369 ;;		wreg, fsr1l, fsr1h, fsr2l, fsr2h, status,2, status,0, cstack
  2370 ;; Tracked objects:
  2371 ;;		On entry : 0/0
  2372 ;;		On exit  : 0/0
  2373 ;;		Unchanged: 0/0
  2374 ;; Data sizes:     COMRAM   BANK0   BANK1   BANK2   BANK3   BANK4   BANK5   BANK6   BANK7   BANK8   BANK9  BANK10  BANK1
      +1  BANK12  BANK14
  2375 ;;      Params:         4       0       0       0       0       0       0       0       0       0       0       0       
      +0       0       0
  2376 ;;      Locals:         0       0       0       0       0       0       0       0       0       0       0       0       
      +0       0       0
  2377 ;;      Temps:          5       0       0       0       0       0       0       0       0       0       0       0       
      +0       0       0
  2378 ;;      Totals:         9       0       0       0       0       0       0       0       0       0       0       0       
      +0       0       0
  2379 ;;Total ram usage:        9 bytes
  2380 ;; Hardware stack levels used: 1
  2381 ;; Hardware stack levels required when called: 9
  2382 ;; This function calls:
  2383 ;;		_putch
  2384 ;; This function is called by:
  2385 ;;		_pad
  2386 ;;		_vfpfcnvrt
  2387 ;;		_fputs
  2388 ;; This function uses a non-reentrant model
  2389 ;;
  2390                           
  2391                           	psect	text8
  2392  001DF6                     __ptext8:
  2393                           	callstack 0
  2394  001DF6                     _fputc:
  2395                           	callstack 18
  2396  001DF6  501E               	movf	fputc@fp^0,w,c
  2397  001DF8  101F               	iorwf	(fputc@fp+1)^0,w,c
  2398  001DFA  B4D8               	btfsc	status,2,c
  2399  001DFC  EF02  F00F         	goto	u2371
  2400  001E00  EF04  F00F         	goto	u2370
  2401  001E04                     u2371:
  2402  001E04  EF0D  F00F         	goto	l4299
  2403  001E08                     u2370:
  2404  001E08  501E               	movf	fputc@fp^0,w,c
  2405  001E0A  101F               	iorwf	(fputc@fp+1)^0,w,c
  2406  001E0C  A4D8               	btfss	status,2,c
  2407  001E0E  EF0B  F00F         	goto	u2381
  2408  001E12  EF0D  F00F         	goto	u2380
  2409  001E16                     u2381:
  2410  001E16  EF12  F00F         	goto	l4301
  2411  001E1A                     u2380:
  2412  001E1A                     l4299:
  2413  001E1A  501C               	movf	fputc@c^0,w,c
  2414  001E1C  EC65  F014         	call	_putch
  2415  001E20  EF45  F00F         	goto	l1693
  2416  001E24                     l4301:
  2417  001E24  EE20 F009          	lfsr	2,9
  2418  001E28  501E               	movf	fputc@fp^0,w,c
  2419  001E2A  26D9               	addwf	fsr2l,f,c
  2420  001E2C  501F               	movf	(fputc@fp+1)^0,w,c
  2421  001E2E  22DA               	addwfc	fsr2h,f,c
  2422  001E30  50DE               	movf	postinc2,w,c
  2423  001E32  10DE               	iorwf	postinc2,w,c
  2424  001E34  B4D8               	btfsc	status,2,c
  2425  001E36  EF1F  F00F         	goto	u2391
  2426  001E3A  EF21  F00F         	goto	u2390
  2427  001E3E                     u2391:
  2428  001E3E  EF3C  F00F         	goto	l4305
  2429  001E42                     u2390:
  2430  001E42  EE20 F009          	lfsr	2,9
  2431  001E46  501E               	movf	fputc@fp^0,w,c
  2432  001E48  26D9               	addwf	fsr2l,f,c
  2433  001E4A  501F               	movf	(fputc@fp+1)^0,w,c
  2434  001E4C  22DA               	addwfc	fsr2h,f,c
  2435  001E4E  EE10 F003          	lfsr	1,3
  2436  001E52  501E               	movf	fputc@fp^0,w,c
  2437  001E54  26E1               	addwf	fsr1l,f,c
  2438  001E56  501F               	movf	(fputc@fp+1)^0,w,c
  2439  001E58  22E2               	addwfc	fsr1h,f,c
  2440  001E5A  50DE               	movf	postinc2,w,c
  2441  001E5C  5CE6               	subwf	postinc1,w,c
  2442  001E5E  50E6               	movf	postinc1,w,c
  2443  001E60  0A80               	xorlw	128
  2444  001E62  6E24               	movwf	(??_fputc+4)^0,c
  2445  001E64  50DE               	movf	postinc2,w,c
  2446  001E66  0A80               	xorlw	128
  2447  001E68  5824               	subwfb	(??_fputc+4)^0,w,c
  2448  001E6A  B0D8               	btfsc	status,0,c
  2449  001E6C  EF3A  F00F         	goto	u2401
  2450  001E70  EF3C  F00F         	goto	u2400
  2451  001E74                     u2401:
  2452  001E74  EF45  F00F         	goto	l1693
  2453  001E78                     u2400:
  2454  001E78                     l4305:
  2455  001E78  EE20 F003          	lfsr	2,3
  2456  001E7C  501E               	movf	fputc@fp^0,w,c
  2457  001E7E  26D9               	addwf	fsr2l,f,c
  2458  001E80  501F               	movf	(fputc@fp+1)^0,w,c
  2459  001E82  22DA               	addwfc	fsr2h,f,c
  2460  001E84  2ADE               	incf	postinc2,f,c
  2461  001E86  0E00               	movlw	0
  2462  001E88  22DD               	addwfc	postdec2,f,c
  2463  001E8A                     l1693:
  2464  001E8A  0012               	return		;funcret
  2465  001E8C                     __end_of_fputc:
  2466                           	callstack 0
  2467                           
  2468 ;; *************** function _putch *****************
  2469 ;; Defined at:
  2470 ;;		line 201 in file "mcc_generated_files/eusart2.c"
  2471 ;; Parameters:    Size  Location     Type
  2472 ;;  txData          1    wreg     unsigned char 
  2473 ;; Auto vars:     Size  Location     Type
  2474 ;;  txData          1   26[COMRAM] unsigned char 
  2475 ;; Return value:  Size  Location     Type
  2476 ;;                  1    wreg      void 
  2477 ;; Registers used:
  2478 ;;		wreg, fsr2l, fsr2h, status,2, status,0, cstack
  2479 ;; Tracked objects:
  2480 ;;		On entry : 0/0
  2481 ;;		On exit  : 0/0
  2482 ;;		Unchanged: 0/0
  2483 ;; Data sizes:     COMRAM   BANK0   BANK1   BANK2   BANK3   BANK4   BANK5   BANK6   BANK7   BANK8   BANK9  BANK10  BANK1
      +1  BANK12  BANK14
  2484 ;;      Params:         0       0       0       0       0       0       0       0       0       0       0       0       
      +0       0       0
  2485 ;;      Locals:         1       0       0       0       0       0       0       0       0       0       0       0       
      +0       0       0
  2486 ;;      Temps:          0       0       0       0       0       0       0       0       0       0       0       0       
      +0       0       0
  2487 ;;      Totals:         1       0       0       0       0       0       0       0       0       0       0       0       
      +0       0       0
  2488 ;;Total ram usage:        1 bytes
  2489 ;; Hardware stack levels used: 1
  2490 ;; Hardware stack levels required when called: 8
  2491 ;; This function calls:
  2492 ;;		_EUSART2_Write
  2493 ;; This function is called by:
  2494 ;;		_fputc
  2495 ;; This function uses a non-reentrant model
  2496 ;;
  2497                           
  2498                           	psect	text9
  2499  0028CA                     __ptext9:
  2500                           	callstack 0
  2501  0028CA                     _putch:
  2502                           	callstack 18
  2503                           
  2504                           ;incstack = 0
  2505                           ;putch@txData stored from wreg
  2506  0028CA  6E1B               	movwf	putch@txData^0,c
  2507  0028CC                     
  2508                           ;mcc_generated_files/eusart2.c: 201: void putch(char txData);mcc_generated_files/eusart2
      +                          .c: 202: {;mcc_generated_files/eusart2.c: 203:     EUSART2_Write(txData);
  2509  0028CC  501B               	movf	putch@txData^0,w,c
  2510  0028CE  EC7C  F011         	call	_EUSART2_Write
  2511  0028D2  0012               	return		;funcret
  2512  0028D4                     __end_of_putch:
  2513                           	callstack 0
  2514                           
  2515 ;; *************** function _EUSART2_Write *****************
  2516 ;; Defined at:
  2517 ;;		line 173 in file "mcc_generated_files/eusart2.c"
  2518 ;; Parameters:    Size  Location     Type
  2519 ;;  txData          1    wreg     unsigned char 
  2520 ;; Auto vars:     Size  Location     Type
  2521 ;;  txData          1   25[COMRAM] unsigned char 
  2522 ;; Return value:  Size  Location     Type
  2523 ;;                  1    wreg      void 
  2524 ;; Registers used:
  2525 ;;		wreg, fsr2l, fsr2h, status,2, status,0
  2526 ;; Tracked objects:
  2527 ;;		On entry : 0/0
  2528 ;;		On exit  : 0/0
  2529 ;;		Unchanged: 0/0
  2530 ;; Data sizes:     COMRAM   BANK0   BANK1   BANK2   BANK3   BANK4   BANK5   BANK6   BANK7   BANK8   BANK9  BANK10  BANK1
      +1  BANK12  BANK14
  2531 ;;      Params:         0       0       0       0       0       0       0       0       0       0       0       0       
      +0       0       0
  2532 ;;      Locals:         1       0       0       0       0       0       0       0       0       0       0       0       
      +0       0       0
  2533 ;;      Temps:          0       0       0       0       0       0       0       0       0       0       0       0       
      +0       0       0
  2534 ;;      Totals:         1       0       0       0       0       0       0       0       0       0       0       0       
      +0       0       0
  2535 ;;Total ram usage:        1 bytes
  2536 ;; Hardware stack levels used: 1
  2537 ;; Hardware stack levels required when called: 7
  2538 ;; This function calls:
  2539 ;;		Nothing
  2540 ;; This function is called by:
  2541 ;;		_putch
  2542 ;; This function uses a non-reentrant model
  2543 ;;
  2544                           
  2545                           	psect	text10
  2546  0022F8                     __ptext10:
  2547                           	callstack 0
  2548  0022F8                     _EUSART2_Write:
  2549                           	callstack 18
  2550                           
  2551                           ;incstack = 0
  2552                           ;EUSART2_Write@txData stored from wreg
  2553  0022F8  6E1A               	movwf	EUSART2_Write@txData^0,c
  2554  0022FA                     l4277:
  2555                           
  2556                           ;mcc_generated_files/eusart2.c: 175:     while(0 == eusart2TxBufferRemaining)
  2557  0022FA  5045               	movf	_eusart2TxBufferRemaining^0,w,c	;volatile
  2558  0022FC  B4D8               	btfsc	status,2,c
  2559  0022FE  EF83  F011         	goto	u2341
  2560  002302  EF85  F011         	goto	u2340
  2561  002306                     u2341:
  2562  002306  EF7D  F011         	goto	l4277
  2563  00230A                     u2340:
  2564  00230A                     
  2565                           ;mcc_generated_files/eusart2.c: 179:     if(0 == PIE3bits.TX2IE)
  2566  00230A  010E               	movlb	14	; () banked
  2567  00230C  BDC0               	btfsc	192,6,b	;volatile
  2568  00230E  EF8B  F011         	goto	u2351
  2569  002312  EF8D  F011         	goto	u2350
  2570  002316                     u2351:
  2571  002316  EF91  F011         	goto	l183
  2572  00231A                     u2350:
  2573  00231A                     
  2574                           ; BSR set to: 14
  2575                           ;mcc_generated_files/eusart2.c: 180:     {;mcc_generated_files/eusart2.c: 181:         T
      +                          X2REG = txData;
  2576  00231A  C01A  FE95         	movff	EUSART2_Write@txData,3733	;volatile
  2577                           
  2578                           ;mcc_generated_files/eusart2.c: 182:     }
  2579  00231E  EFA6  F011         	goto	l4291
  2580  002322                     l183:
  2581                           
  2582                           ; BSR set to: 14
  2583                           ;mcc_generated_files/eusart2.c: 184:     {;mcc_generated_files/eusart2.c: 185:         P
      +                          IE3bits.TX2IE = 0;
  2584  002322  9DC0               	bcf	192,6,b	;volatile
  2585  002324                     
  2586                           ; BSR set to: 14
  2587                           ;mcc_generated_files/eusart2.c: 186:         eusart2TxBuffer[eusart2TxHead++] = txData;
  2588  002324  0E9A               	movlw	low _eusart2TxBuffer
  2589  002326  2444               	addwf	_eusart2TxHead^0,w,c	;volatile
  2590  002328  6ED9               	movwf	fsr2l,c
  2591  00232A  6ADA               	clrf	fsr2h,c
  2592  00232C  0E00               	movlw	high _eusart2TxBuffer
  2593  00232E  22DA               	addwfc	fsr2h,f,c
  2594  002330  C01A  FFDF         	movff	EUSART2_Write@txData,indf2
  2595  002334                     
  2596                           ; BSR set to: 14
  2597  002334  2A44               	incf	_eusart2TxHead^0,f,c	;volatile
  2598  002336                     
  2599                           ; BSR set to: 14
  2600                           ;mcc_generated_files/eusart2.c: 187:         if(sizeof(eusart2TxBuffer) <= eusart2TxHead
      +                          )
  2601  002336  0E07               	movlw	7
  2602  002338  6444               	cpfsgt	_eusart2TxHead^0,c	;volatile
  2603  00233A  EFA1  F011         	goto	u2361
  2604  00233E  EFA3  F011         	goto	u2360
  2605  002342                     u2361:
  2606  002342  EFA5  F011         	goto	l4289
  2607  002346                     u2360:
  2608  002346                     
  2609                           ; BSR set to: 14
  2610                           ;mcc_generated_files/eusart2.c: 188:         {;mcc_generated_files/eusart2.c: 189:      
      +                                 eusart2TxHead = 0;
  2611  002346  0E00               	movlw	0
  2612  002348  6E44               	movwf	_eusart2TxHead^0,c	;volatile
  2613  00234A                     l4289:
  2614                           
  2615                           ; BSR set to: 14
  2616                           ;mcc_generated_files/eusart2.c: 191:         eusart2TxBufferRemaining--;
  2617  00234A  0645               	decf	_eusart2TxBufferRemaining^0,f,c	;volatile
  2618  00234C                     l4291:
  2619                           
  2620                           ; BSR set to: 14
  2621                           ;mcc_generated_files/eusart2.c: 193:     PIE3bits.TX2IE = 1;
  2622  00234C  8DC0               	bsf	192,6,b	;volatile
  2623  00234E                     
  2624                           ; BSR set to: 14
  2625  00234E  0012               	return		;funcret
  2626  002350                     __end_of_EUSART2_Write:
  2627                           	callstack 0
  2628                           
  2629 ;; *************** function _abs *****************
  2630 ;; Defined at:
  2631 ;;		line 1 in file "C:\Program Files\Microchip\xc8\v2.36\pic\sources\c99\common\abs.c"
  2632 ;; Parameters:    Size  Location     Type
  2633 ;;  a               2   43[COMRAM] int 
  2634 ;; Auto vars:     Size  Location     Type
  2635 ;;		None
  2636 ;; Return value:  Size  Location     Type
  2637 ;;                  2   43[COMRAM] int 
  2638 ;; Registers used:
  2639 ;;		wreg, status,2, status,0
  2640 ;; Tracked objects:
  2641 ;;		On entry : 0/0
  2642 ;;		On exit  : 0/0
  2643 ;;		Unchanged: 0/0
  2644 ;; Data sizes:     COMRAM   BANK0   BANK1   BANK2   BANK3   BANK4   BANK5   BANK6   BANK7   BANK8   BANK9  BANK10  BANK1
      +1  BANK12  BANK14
  2645 ;;      Params:         2       0       0       0       0       0       0       0       0       0       0       0       
      +0       0       0
  2646 ;;      Locals:         0       0       0       0       0       0       0       0       0       0       0       0       
      +0       0       0
  2647 ;;      Temps:          0       2       0       0       0       0       0       0       0       0       0       0       
      +0       0       0
  2648 ;;      Totals:         2       2       0       0       0       0       0       0       0       0       0       0       
      +0       0       0
  2649 ;;Total ram usage:        4 bytes
  2650 ;; Hardware stack levels used: 1
  2651 ;; Hardware stack levels required when called: 7
  2652 ;; This function calls:
  2653 ;;		Nothing
  2654 ;; This function is called by:
  2655 ;;		_dtoa
  2656 ;; This function uses a non-reentrant model
  2657 ;;
  2658                           
  2659                           	psect	text11
  2660  002506                     __ptext11:
  2661                           	callstack 0
  2662  002506                     _abs:
  2663                           	callstack 19
  2664  002506  BE2D               	btfsc	(abs@a+1)^0,7,c
  2665  002508  EF90  F012         	goto	u2610
  2666  00250C  502D               	movf	(abs@a+1)^0,w,c
  2667  00250E  E106               	bnz	u2611
  2668  002510  042C               	decf	abs@a^0,w,c
  2669  002512  B0D8               	btfsc	status,0,c
  2670  002514  EF8E  F012         	goto	u2611
  2671  002518  EF90  F012         	goto	u2610
  2672  00251C                     u2611:
  2673  00251C  EF9F  F012         	goto	l1678
  2674  002520                     u2610:
  2675  002520  C02C  F0AA         	movff	abs@a,??_abs
  2676  002524  C02D  F0AB         	movff	abs@a+1,??_abs+1
  2677  002528  0100               	movlb	0	; () banked
  2678  00252A  1FAA               	comf	??_abs& (0+255),f,b
  2679  00252C  1FAB               	comf	(??_abs+1)& (0+255),f,b
  2680  00252E  4BAA               	infsnz	??_abs& (0+255),f,b
  2681  002530  2BAB               	incf	(??_abs+1)& (0+255),f,b
  2682  002532  C0AA  F02C         	movff	??_abs,?_abs
  2683  002536  C0AB  F02D         	movff	??_abs+1,?_abs+1
  2684  00253A  EFA3  F012         	goto	l1681
  2685  00253E                     l1678:
  2686  00253E  C02C  F02C         	movff	abs@a,?_abs
  2687  002542  C02D  F02D         	movff	abs@a+1,?_abs+1
  2688  002546                     l1681:
  2689  002546  0012               	return		;funcret
  2690  002548                     __end_of_abs:
  2691                           	callstack 0
  2692                           
  2693 ;; *************** function ___aomod *****************
  2694 ;; Defined at:
  2695 ;;		line 9 in file "C:\Program Files\Microchip\xc8\v2.36\pic\sources\c99\common\aomod.c"
  2696 ;; Parameters:    Size  Location     Type
  2697 ;;  dividend        8   25[COMRAM] long long 
  2698 ;;  divisor         8   33[COMRAM] long long 
  2699 ;; Auto vars:     Size  Location     Type
  2700 ;;  sign            1   42[COMRAM] unsigned char 
  2701 ;;  counter         1   41[COMRAM] unsigned char 
  2702 ;; Return value:  Size  Location     Type
  2703 ;;                  8   25[COMRAM] long long 
  2704 ;; Registers used:
  2705 ;;		wreg, status,2, status,0
  2706 ;; Tracked objects:
  2707 ;;		On entry : 0/0
  2708 ;;		On exit  : 0/0
  2709 ;;		Unchanged: 0/0
  2710 ;; Data sizes:     COMRAM   BANK0   BANK1   BANK2   BANK3   BANK4   BANK5   BANK6   BANK7   BANK8   BANK9  BANK10  BANK1
      +1  BANK12  BANK14
  2711 ;;      Params:        16       0       0       0       0       0       0       0       0       0       0       0       
      +0       0       0
  2712 ;;      Locals:         2       0       0       0       0       0       0       0       0       0       0       0       
      +0       0       0
  2713 ;;      Temps:          0       0       0       0       0       0       0       0       0       0       0       0       
      +0       0       0
  2714 ;;      Totals:        18       0       0       0       0       0       0       0       0       0       0       0       
      +0       0       0
  2715 ;;Total ram usage:       18 bytes
  2716 ;; Hardware stack levels used: 1
  2717 ;; Hardware stack levels required when called: 7
  2718 ;; This function calls:
  2719 ;;		Nothing
  2720 ;; This function is called by:
  2721 ;;		_dtoa
  2722 ;; This function uses a non-reentrant model
  2723 ;;
  2724                           
  2725                           	psect	text12
  2726  001724                     __ptext12:
  2727                           	callstack 0
  2728  001724                     ___aomod:
  2729                           	callstack 19
  2730  001724  0E00               	movlw	0
  2731  001726  6E2B               	movwf	___aomod@sign^0,c
  2732  001728  BE21               	btfsc	(___aomod@dividend+7)^0,7,c
  2733  00172A  EF9B  F00B         	goto	u2510
  2734  00172E  EF99  F00B         	goto	u2511
  2735  001732                     u2511:
  2736  001732  EFAD  F00B         	goto	l4391
  2737  001736                     u2510:
  2738  001736  1E21               	comf	(___aomod@dividend+7)^0,f,c
  2739  001738  1E20               	comf	(___aomod@dividend+6)^0,f,c
  2740  00173A  1E1F               	comf	(___aomod@dividend+5)^0,f,c
  2741  00173C  1E1E               	comf	(___aomod@dividend+4)^0,f,c
  2742  00173E  1E1D               	comf	(___aomod@dividend+3)^0,f,c
  2743  001740  1E1C               	comf	(___aomod@dividend+2)^0,f,c
  2744  001742  1E1B               	comf	(___aomod@dividend+1)^0,f,c
  2745  001744  6C1A               	negf	___aomod@dividend^0,c
  2746  001746  0E00               	movlw	0
  2747  001748  221B               	addwfc	(___aomod@dividend+1)^0,f,c
  2748  00174A  221C               	addwfc	(___aomod@dividend+2)^0,f,c
  2749  00174C  221D               	addwfc	(___aomod@dividend+3)^0,f,c
  2750  00174E  221E               	addwfc	(___aomod@dividend+4)^0,f,c
  2751  001750  221F               	addwfc	(___aomod@dividend+5)^0,f,c
  2752  001752  2220               	addwfc	(___aomod@dividend+6)^0,f,c
  2753  001754  2221               	addwfc	(___aomod@dividend+7)^0,f,c
  2754  001756  0E01               	movlw	1
  2755  001758  6E2B               	movwf	___aomod@sign^0,c
  2756  00175A                     l4391:
  2757  00175A  BE29               	btfsc	(___aomod@divisor+7)^0,7,c
  2758  00175C  EFB4  F00B         	goto	u2520
  2759  001760  EFB2  F00B         	goto	u2521
  2760  001764                     u2521:
  2761  001764  EFC4  F00B         	goto	l4395
  2762  001768                     u2520:
  2763  001768  1E29               	comf	(___aomod@divisor+7)^0,f,c
  2764  00176A  1E28               	comf	(___aomod@divisor+6)^0,f,c
  2765  00176C  1E27               	comf	(___aomod@divisor+5)^0,f,c
  2766  00176E  1E26               	comf	(___aomod@divisor+4)^0,f,c
  2767  001770  1E25               	comf	(___aomod@divisor+3)^0,f,c
  2768  001772  1E24               	comf	(___aomod@divisor+2)^0,f,c
  2769  001774  1E23               	comf	(___aomod@divisor+1)^0,f,c
  2770  001776  6C22               	negf	___aomod@divisor^0,c
  2771  001778  0E00               	movlw	0
  2772  00177A  2223               	addwfc	(___aomod@divisor+1)^0,f,c
  2773  00177C  2224               	addwfc	(___aomod@divisor+2)^0,f,c
  2774  00177E  2225               	addwfc	(___aomod@divisor+3)^0,f,c
  2775  001780  2226               	addwfc	(___aomod@divisor+4)^0,f,c
  2776  001782  2227               	addwfc	(___aomod@divisor+5)^0,f,c
  2777  001784  2228               	addwfc	(___aomod@divisor+6)^0,f,c
  2778  001786  2229               	addwfc	(___aomod@divisor+7)^0,f,c
  2779  001788                     l4395:
  2780  001788  5022               	movf	___aomod@divisor^0,w,c
  2781  00178A  1023               	iorwf	(___aomod@divisor+1)^0,w,c
  2782  00178C  1024               	iorwf	(___aomod@divisor+2)^0,w,c
  2783  00178E  1025               	iorwf	(___aomod@divisor+3)^0,w,c
  2784  001790  1026               	iorwf	(___aomod@divisor+4)^0,w,c
  2785  001792  1027               	iorwf	(___aomod@divisor+5)^0,w,c
  2786  001794  1028               	iorwf	(___aomod@divisor+6)^0,w,c
  2787  001796  1029               	iorwf	(___aomod@divisor+7)^0,w,c
  2788  001798  B4D8               	btfsc	status,2,c
  2789  00179A  EFD1  F00B         	goto	u2531
  2790  00179E  EFD3  F00B         	goto	u2530
  2791  0017A2                     u2531:
  2792  0017A2  EF1B  F00C         	goto	l4411
  2793  0017A6                     u2530:
  2794  0017A6  0E01               	movlw	1
  2795  0017A8  6E2A               	movwf	___aomod@counter^0,c
  2796  0017AA  EFE1  F00B         	goto	l4401
  2797  0017AE                     l4399:
  2798  0017AE  90D8               	bcf	status,0,c
  2799  0017B0  3622               	rlcf	___aomod@divisor^0,f,c
  2800  0017B2  3623               	rlcf	(___aomod@divisor+1)^0,f,c
  2801  0017B4  3624               	rlcf	(___aomod@divisor+2)^0,f,c
  2802  0017B6  3625               	rlcf	(___aomod@divisor+3)^0,f,c
  2803  0017B8  3626               	rlcf	(___aomod@divisor+4)^0,f,c
  2804  0017BA  3627               	rlcf	(___aomod@divisor+5)^0,f,c
  2805  0017BC  3628               	rlcf	(___aomod@divisor+6)^0,f,c
  2806  0017BE  3629               	rlcf	(___aomod@divisor+7)^0,f,c
  2807  0017C0  2A2A               	incf	___aomod@counter^0,f,c
  2808  0017C2                     l4401:
  2809  0017C2  AE29               	btfss	(___aomod@divisor+7)^0,7,c
  2810  0017C4  EFE6  F00B         	goto	u2541
  2811  0017C8  EFE8  F00B         	goto	u2540
  2812  0017CC                     u2541:
  2813  0017CC  EFD7  F00B         	goto	l4399
  2814  0017D0                     u2540:
  2815  0017D0                     l4403:
  2816  0017D0  5022               	movf	___aomod@divisor^0,w,c
  2817  0017D2  5C1A               	subwf	___aomod@dividend^0,w,c
  2818  0017D4  5023               	movf	(___aomod@divisor+1)^0,w,c
  2819  0017D6  581B               	subwfb	(___aomod@dividend+1)^0,w,c
  2820  0017D8  5024               	movf	(___aomod@divisor+2)^0,w,c
  2821  0017DA  581C               	subwfb	(___aomod@dividend+2)^0,w,c
  2822  0017DC  5025               	movf	(___aomod@divisor+3)^0,w,c
  2823  0017DE  581D               	subwfb	(___aomod@dividend+3)^0,w,c
  2824  0017E0  5026               	movf	(___aomod@divisor+4)^0,w,c
  2825  0017E2  581E               	subwfb	(___aomod@dividend+4)^0,w,c
  2826  0017E4  5027               	movf	(___aomod@divisor+5)^0,w,c
  2827  0017E6  581F               	subwfb	(___aomod@dividend+5)^0,w,c
  2828  0017E8  5028               	movf	(___aomod@divisor+6)^0,w,c
  2829  0017EA  5820               	subwfb	(___aomod@dividend+6)^0,w,c
  2830  0017EC  5029               	movf	(___aomod@divisor+7)^0,w,c
  2831  0017EE  5821               	subwfb	(___aomod@dividend+7)^0,w,c
  2832  0017F0  A0D8               	btfss	status,0,c
  2833  0017F2  EFFD  F00B         	goto	u2551
  2834  0017F6  EFFF  F00B         	goto	u2550
  2835  0017FA                     u2551:
  2836  0017FA  EF0F  F00C         	goto	l4407
  2837  0017FE                     u2550:
  2838  0017FE  5022               	movf	___aomod@divisor^0,w,c
  2839  001800  5E1A               	subwf	___aomod@dividend^0,f,c
  2840  001802  5023               	movf	(___aomod@divisor+1)^0,w,c
  2841  001804  5A1B               	subwfb	(___aomod@dividend+1)^0,f,c
  2842  001806  5024               	movf	(___aomod@divisor+2)^0,w,c
  2843  001808  5A1C               	subwfb	(___aomod@dividend+2)^0,f,c
  2844  00180A  5025               	movf	(___aomod@divisor+3)^0,w,c
  2845  00180C  5A1D               	subwfb	(___aomod@dividend+3)^0,f,c
  2846  00180E  5026               	movf	(___aomod@divisor+4)^0,w,c
  2847  001810  5A1E               	subwfb	(___aomod@dividend+4)^0,f,c
  2848  001812  5027               	movf	(___aomod@divisor+5)^0,w,c
  2849  001814  5A1F               	subwfb	(___aomod@dividend+5)^0,f,c
  2850  001816  5028               	movf	(___aomod@divisor+6)^0,w,c
  2851  001818  5A20               	subwfb	(___aomod@dividend+6)^0,f,c
  2852  00181A  5029               	movf	(___aomod@divisor+7)^0,w,c
  2853  00181C  5A21               	subwfb	(___aomod@dividend+7)^0,f,c
  2854  00181E                     l4407:
  2855  00181E  90D8               	bcf	status,0,c
  2856  001820  3229               	rrcf	(___aomod@divisor+7)^0,f,c
  2857  001822  3228               	rrcf	(___aomod@divisor+6)^0,f,c
  2858  001824  3227               	rrcf	(___aomod@divisor+5)^0,f,c
  2859  001826  3226               	rrcf	(___aomod@divisor+4)^0,f,c
  2860  001828  3225               	rrcf	(___aomod@divisor+3)^0,f,c
  2861  00182A  3224               	rrcf	(___aomod@divisor+2)^0,f,c
  2862  00182C  3223               	rrcf	(___aomod@divisor+1)^0,f,c
  2863  00182E  3222               	rrcf	___aomod@divisor^0,f,c
  2864  001830  2E2A               	decfsz	___aomod@counter^0,f,c
  2865  001832  EFE8  F00B         	goto	l4403
  2866  001836                     l4411:
  2867  001836  502B               	movf	___aomod@sign^0,w,c
  2868  001838  B4D8               	btfsc	status,2,c
  2869  00183A  EF21  F00C         	goto	u2561
  2870  00183E  EF23  F00C         	goto	u2560
  2871  001842                     u2561:
  2872  001842  EF33  F00C         	goto	l4415
  2873  001846                     u2560:
  2874  001846  1E21               	comf	(___aomod@dividend+7)^0,f,c
  2875  001848  1E20               	comf	(___aomod@dividend+6)^0,f,c
  2876  00184A  1E1F               	comf	(___aomod@dividend+5)^0,f,c
  2877  00184C  1E1E               	comf	(___aomod@dividend+4)^0,f,c
  2878  00184E  1E1D               	comf	(___aomod@dividend+3)^0,f,c
  2879  001850  1E1C               	comf	(___aomod@dividend+2)^0,f,c
  2880  001852  1E1B               	comf	(___aomod@dividend+1)^0,f,c
  2881  001854  6C1A               	negf	___aomod@dividend^0,c
  2882  001856  0E00               	movlw	0
  2883  001858  221B               	addwfc	(___aomod@dividend+1)^0,f,c
  2884  00185A  221C               	addwfc	(___aomod@dividend+2)^0,f,c
  2885  00185C  221D               	addwfc	(___aomod@dividend+3)^0,f,c
  2886  00185E  221E               	addwfc	(___aomod@dividend+4)^0,f,c
  2887  001860  221F               	addwfc	(___aomod@dividend+5)^0,f,c
  2888  001862  2220               	addwfc	(___aomod@dividend+6)^0,f,c
  2889  001864  2221               	addwfc	(___aomod@dividend+7)^0,f,c
  2890  001866                     l4415:
  2891  001866  C01A  F01A         	movff	___aomod@dividend,?___aomod
  2892  00186A  C01B  F01B         	movff	___aomod@dividend+1,?___aomod+1
  2893  00186E  C01C  F01C         	movff	___aomod@dividend+2,?___aomod+2
  2894  001872  C01D  F01D         	movff	___aomod@dividend+3,?___aomod+3
  2895  001876  C01E  F01E         	movff	___aomod@dividend+4,?___aomod+4
  2896  00187A  C01F  F01F         	movff	___aomod@dividend+5,?___aomod+5
  2897  00187E  C020  F020         	movff	___aomod@dividend+6,?___aomod+6
  2898  001882  C021  F021         	movff	___aomod@dividend+7,?___aomod+7
  2899  001886  0012               	return		;funcret
  2900  001888                     __end_of___aomod:
  2901                           	callstack 0
  2902                           
  2903 ;; *************** function ___aodiv *****************
  2904 ;; Defined at:
  2905 ;;		line 9 in file "C:\Program Files\Microchip\xc8\v2.36\pic\sources\c99\common\aodiv.c"
  2906 ;; Parameters:    Size  Location     Type
  2907 ;;  dividend        8   25[COMRAM] long long 
  2908 ;;  divisor         8   33[COMRAM] long long 
  2909 ;; Auto vars:     Size  Location     Type
  2910 ;;  quotient        8    2[BANK0 ] long long 
  2911 ;;  sign            1    1[BANK0 ] unsigned char 
  2912 ;;  counter         1    0[BANK0 ] unsigned char 
  2913 ;; Return value:  Size  Location     Type
  2914 ;;                  8   25[COMRAM] long long 
  2915 ;; Registers used:
  2916 ;;		wreg, fsr2l, fsr2h, status,2, status,0
  2917 ;; Tracked objects:
  2918 ;;		On entry : 0/0
  2919 ;;		On exit  : 0/0
  2920 ;;		Unchanged: 0/0
  2921 ;; Data sizes:     COMRAM   BANK0   BANK1   BANK2   BANK3   BANK4   BANK5   BANK6   BANK7   BANK8   BANK9  BANK10  BANK1
      +1  BANK12  BANK14
  2922 ;;      Params:        16       0       0       0       0       0       0       0       0       0       0       0       
      +0       0       0
  2923 ;;      Locals:         0      10       0       0       0       0       0       0       0       0       0       0       
      +0       0       0
  2924 ;;      Temps:          0       0       0       0       0       0       0       0       0       0       0       0       
      +0       0       0
  2925 ;;      Totals:        16      10       0       0       0       0       0       0       0       0       0       0       
      +0       0       0
  2926 ;;Total ram usage:       26 bytes
  2927 ;; Hardware stack levels used: 1
  2928 ;; Hardware stack levels required when called: 7
  2929 ;; This function calls:
  2930 ;;		Nothing
  2931 ;; This function is called by:
  2932 ;;		_dtoa
  2933 ;; This function uses a non-reentrant model
  2934 ;;
  2935                           
  2936                           	psect	text13
  2937  001424                     __ptext13:
  2938                           	callstack 0
  2939  001424                     ___aodiv:
  2940                           	callstack 19
  2941  001424  0E00               	movlw	0
  2942  001426  0100               	movlb	0	; () banked
  2943  001428  6FAB               	movwf	___aodiv@sign& (0+255),b
  2944  00142A                     
  2945                           ; BSR set to: 0
  2946  00142A  BE29               	btfsc	(___aodiv@divisor+7)^0,7,c
  2947  00142C  EF1C  F00A         	goto	u2440
  2948  001430  EF1A  F00A         	goto	u2441
  2949  001434                     u2441:
  2950  001434  EF2E  F00A         	goto	l4347
  2951  001438                     u2440:
  2952  001438                     
  2953                           ; BSR set to: 0
  2954  001438  1E29               	comf	(___aodiv@divisor+7)^0,f,c
  2955  00143A  1E28               	comf	(___aodiv@divisor+6)^0,f,c
  2956  00143C  1E27               	comf	(___aodiv@divisor+5)^0,f,c
  2957  00143E  1E26               	comf	(___aodiv@divisor+4)^0,f,c
  2958  001440  1E25               	comf	(___aodiv@divisor+3)^0,f,c
  2959  001442  1E24               	comf	(___aodiv@divisor+2)^0,f,c
  2960  001444  1E23               	comf	(___aodiv@divisor+1)^0,f,c
  2961  001446  6C22               	negf	___aodiv@divisor^0,c
  2962  001448  0E00               	movlw	0
  2963  00144A  2223               	addwfc	(___aodiv@divisor+1)^0,f,c
  2964  00144C  2224               	addwfc	(___aodiv@divisor+2)^0,f,c
  2965  00144E  2225               	addwfc	(___aodiv@divisor+3)^0,f,c
  2966  001450  2226               	addwfc	(___aodiv@divisor+4)^0,f,c
  2967  001452  2227               	addwfc	(___aodiv@divisor+5)^0,f,c
  2968  001454  2228               	addwfc	(___aodiv@divisor+6)^0,f,c
  2969  001456  2229               	addwfc	(___aodiv@divisor+7)^0,f,c
  2970  001458                     
  2971                           ; BSR set to: 0
  2972  001458  0E01               	movlw	1
  2973  00145A  6FAB               	movwf	___aodiv@sign& (0+255),b
  2974  00145C                     l4347:
  2975                           
  2976                           ; BSR set to: 0
  2977  00145C  BE21               	btfsc	(___aodiv@dividend+7)^0,7,c
  2978  00145E  EF35  F00A         	goto	u2450
  2979  001462  EF33  F00A         	goto	u2451
  2980  001466                     u2451:
  2981  001466  EF47  F00A         	goto	l4353
  2982  00146A                     u2450:
  2983  00146A                     
  2984                           ; BSR set to: 0
  2985  00146A  1E21               	comf	(___aodiv@dividend+7)^0,f,c
  2986  00146C  1E20               	comf	(___aodiv@dividend+6)^0,f,c
  2987  00146E  1E1F               	comf	(___aodiv@dividend+5)^0,f,c
  2988  001470  1E1E               	comf	(___aodiv@dividend+4)^0,f,c
  2989  001472  1E1D               	comf	(___aodiv@dividend+3)^0,f,c
  2990  001474  1E1C               	comf	(___aodiv@dividend+2)^0,f,c
  2991  001476  1E1B               	comf	(___aodiv@dividend+1)^0,f,c
  2992  001478  6C1A               	negf	___aodiv@dividend^0,c
  2993  00147A  0E00               	movlw	0
  2994  00147C  221B               	addwfc	(___aodiv@dividend+1)^0,f,c
  2995  00147E  221C               	addwfc	(___aodiv@dividend+2)^0,f,c
  2996  001480  221D               	addwfc	(___aodiv@dividend+3)^0,f,c
  2997  001482  221E               	addwfc	(___aodiv@dividend+4)^0,f,c
  2998  001484  221F               	addwfc	(___aodiv@dividend+5)^0,f,c
  2999  001486  2220               	addwfc	(___aodiv@dividend+6)^0,f,c
  3000  001488  2221               	addwfc	(___aodiv@dividend+7)^0,f,c
  3001  00148A                     
  3002                           ; BSR set to: 0
  3003  00148A  0E01               	movlw	1
  3004  00148C  1BAB               	xorwf	___aodiv@sign& (0+255),f,b
  3005  00148E                     l4353:
  3006                           
  3007                           ; BSR set to: 0
  3008  00148E  EE20  F0AC         	lfsr	2,___aodiv@quotient
  3009  001492  0E07               	movlw	7
  3010  001494                     u2461:
  3011  001494  6ADE               	clrf	postinc2,c
  3012  001496  06E8               	decf	wreg,f,c
  3013  001498  E2FD               	bc	u2461
  3014  00149A                     
  3015                           ; BSR set to: 0
  3016  00149A  5022               	movf	___aodiv@divisor^0,w,c
  3017  00149C  1023               	iorwf	(___aodiv@divisor+1)^0,w,c
  3018  00149E  1024               	iorwf	(___aodiv@divisor+2)^0,w,c
  3019  0014A0  1025               	iorwf	(___aodiv@divisor+3)^0,w,c
  3020  0014A2  1026               	iorwf	(___aodiv@divisor+4)^0,w,c
  3021  0014A4  1027               	iorwf	(___aodiv@divisor+5)^0,w,c
  3022  0014A6  1028               	iorwf	(___aodiv@divisor+6)^0,w,c
  3023  0014A8  1029               	iorwf	(___aodiv@divisor+7)^0,w,c
  3024  0014AA  B4D8               	btfsc	status,2,c
  3025  0014AC  EF5A  F00A         	goto	u2471
  3026  0014B0  EF5C  F00A         	goto	u2470
  3027  0014B4                     u2471:
  3028  0014B4  EFAE  F00A         	goto	l4375
  3029  0014B8                     u2470:
  3030  0014B8                     
  3031                           ; BSR set to: 0
  3032  0014B8  0E01               	movlw	1
  3033  0014BA  6FAA               	movwf	___aodiv@counter& (0+255),b
  3034  0014BC  EF6A  F00A         	goto	l4361
  3035  0014C0                     l4359:
  3036                           
  3037                           ; BSR set to: 0
  3038  0014C0  90D8               	bcf	status,0,c
  3039  0014C2  3622               	rlcf	___aodiv@divisor^0,f,c
  3040  0014C4  3623               	rlcf	(___aodiv@divisor+1)^0,f,c
  3041  0014C6  3624               	rlcf	(___aodiv@divisor+2)^0,f,c
  3042  0014C8  3625               	rlcf	(___aodiv@divisor+3)^0,f,c
  3043  0014CA  3626               	rlcf	(___aodiv@divisor+4)^0,f,c
  3044  0014CC  3627               	rlcf	(___aodiv@divisor+5)^0,f,c
  3045  0014CE  3628               	rlcf	(___aodiv@divisor+6)^0,f,c
  3046  0014D0  3629               	rlcf	(___aodiv@divisor+7)^0,f,c
  3047  0014D2  2BAA               	incf	___aodiv@counter& (0+255),f,b
  3048  0014D4                     l4361:
  3049                           
  3050                           ; BSR set to: 0
  3051  0014D4  AE29               	btfss	(___aodiv@divisor+7)^0,7,c
  3052  0014D6  EF6F  F00A         	goto	u2481
  3053  0014DA  EF71  F00A         	goto	u2480
  3054  0014DE                     u2481:
  3055  0014DE  EF60  F00A         	goto	l4359
  3056  0014E2                     u2480:
  3057  0014E2                     l4363:
  3058                           
  3059                           ; BSR set to: 0
  3060  0014E2  90D8               	bcf	status,0,c
  3061  0014E4  37AC               	rlcf	___aodiv@quotient& (0+255),f,b
  3062  0014E6  37AD               	rlcf	(___aodiv@quotient+1)& (0+255),f,b
  3063  0014E8  37AE               	rlcf	(___aodiv@quotient+2)& (0+255),f,b
  3064  0014EA  37AF               	rlcf	(___aodiv@quotient+3)& (0+255),f,b
  3065  0014EC  37B0               	rlcf	(___aodiv@quotient+4)& (0+255),f,b
  3066  0014EE  37B1               	rlcf	(___aodiv@quotient+5)& (0+255),f,b
  3067  0014F0  37B2               	rlcf	(___aodiv@quotient+6)& (0+255),f,b
  3068  0014F2  37B3               	rlcf	(___aodiv@quotient+7)& (0+255),f,b
  3069  0014F4                     
  3070                           ; BSR set to: 0
  3071  0014F4  5022               	movf	___aodiv@divisor^0,w,c
  3072  0014F6  5C1A               	subwf	___aodiv@dividend^0,w,c
  3073  0014F8  5023               	movf	(___aodiv@divisor+1)^0,w,c
  3074  0014FA  581B               	subwfb	(___aodiv@dividend+1)^0,w,c
  3075  0014FC  5024               	movf	(___aodiv@divisor+2)^0,w,c
  3076  0014FE  581C               	subwfb	(___aodiv@dividend+2)^0,w,c
  3077  001500  5025               	movf	(___aodiv@divisor+3)^0,w,c
  3078  001502  581D               	subwfb	(___aodiv@dividend+3)^0,w,c
  3079  001504  5026               	movf	(___aodiv@divisor+4)^0,w,c
  3080  001506  581E               	subwfb	(___aodiv@dividend+4)^0,w,c
  3081  001508  5027               	movf	(___aodiv@divisor+5)^0,w,c
  3082  00150A  581F               	subwfb	(___aodiv@dividend+5)^0,w,c
  3083  00150C  5028               	movf	(___aodiv@divisor+6)^0,w,c
  3084  00150E  5820               	subwfb	(___aodiv@dividend+6)^0,w,c
  3085  001510  5029               	movf	(___aodiv@divisor+7)^0,w,c
  3086  001512  5821               	subwfb	(___aodiv@dividend+7)^0,w,c
  3087  001514  A0D8               	btfss	status,0,c
  3088  001516  EF8F  F00A         	goto	u2491
  3089  00151A  EF91  F00A         	goto	u2490
  3090  00151E                     u2491:
  3091  00151E  EFA2  F00A         	goto	l4371
  3092  001522                     u2490:
  3093  001522                     
  3094                           ; BSR set to: 0
  3095  001522  5022               	movf	___aodiv@divisor^0,w,c
  3096  001524  5E1A               	subwf	___aodiv@dividend^0,f,c
  3097  001526  5023               	movf	(___aodiv@divisor+1)^0,w,c
  3098  001528  5A1B               	subwfb	(___aodiv@dividend+1)^0,f,c
  3099  00152A  5024               	movf	(___aodiv@divisor+2)^0,w,c
  3100  00152C  5A1C               	subwfb	(___aodiv@dividend+2)^0,f,c
  3101  00152E  5025               	movf	(___aodiv@divisor+3)^0,w,c
  3102  001530  5A1D               	subwfb	(___aodiv@dividend+3)^0,f,c
  3103  001532  5026               	movf	(___aodiv@divisor+4)^0,w,c
  3104  001534  5A1E               	subwfb	(___aodiv@dividend+4)^0,f,c
  3105  001536  5027               	movf	(___aodiv@divisor+5)^0,w,c
  3106  001538  5A1F               	subwfb	(___aodiv@dividend+5)^0,f,c
  3107  00153A  5028               	movf	(___aodiv@divisor+6)^0,w,c
  3108  00153C  5A20               	subwfb	(___aodiv@dividend+6)^0,f,c
  3109  00153E  5029               	movf	(___aodiv@divisor+7)^0,w,c
  3110  001540  5A21               	subwfb	(___aodiv@dividend+7)^0,f,c
  3111  001542                     
  3112                           ; BSR set to: 0
  3113  001542  81AC               	bsf	___aodiv@quotient& (0+255),0,b
  3114  001544                     l4371:
  3115                           
  3116                           ; BSR set to: 0
  3117  001544  90D8               	bcf	status,0,c
  3118  001546  3229               	rrcf	(___aodiv@divisor+7)^0,f,c
  3119  001548  3228               	rrcf	(___aodiv@divisor+6)^0,f,c
  3120  00154A  3227               	rrcf	(___aodiv@divisor+5)^0,f,c
  3121  00154C  3226               	rrcf	(___aodiv@divisor+4)^0,f,c
  3122  00154E  3225               	rrcf	(___aodiv@divisor+3)^0,f,c
  3123  001550  3224               	rrcf	(___aodiv@divisor+2)^0,f,c
  3124  001552  3223               	rrcf	(___aodiv@divisor+1)^0,f,c
  3125  001554  3222               	rrcf	___aodiv@divisor^0,f,c
  3126  001556                     
  3127                           ; BSR set to: 0
  3128  001556  2FAA               	decfsz	___aodiv@counter& (0+255),f,b
  3129  001558  EF71  F00A         	goto	l4363
  3130  00155C                     l4375:
  3131                           
  3132                           ; BSR set to: 0
  3133  00155C  51AB               	movf	___aodiv@sign& (0+255),w,b
  3134  00155E  B4D8               	btfsc	status,2,c
  3135  001560  EFB4  F00A         	goto	u2501
  3136  001564  EFB6  F00A         	goto	u2500
  3137  001568                     u2501:
  3138  001568  EFC6  F00A         	goto	l4379
  3139  00156C                     u2500:
  3140  00156C                     
  3141                           ; BSR set to: 0
  3142  00156C  1FB3               	comf	(___aodiv@quotient+7)& (0+255),f,b
  3143  00156E  1FB2               	comf	(___aodiv@quotient+6)& (0+255),f,b
  3144  001570  1FB1               	comf	(___aodiv@quotient+5)& (0+255),f,b
  3145  001572  1FB0               	comf	(___aodiv@quotient+4)& (0+255),f,b
  3146  001574  1FAF               	comf	(___aodiv@quotient+3)& (0+255),f,b
  3147  001576  1FAE               	comf	(___aodiv@quotient+2)& (0+255),f,b
  3148  001578  1FAD               	comf	(___aodiv@quotient+1)& (0+255),f,b
  3149  00157A  6DAC               	negf	___aodiv@quotient& (0+255),b
  3150  00157C  0E00               	movlw	0
  3151  00157E  23AD               	addwfc	(___aodiv@quotient+1)& (0+255),f,b
  3152  001580  23AE               	addwfc	(___aodiv@quotient+2)& (0+255),f,b
  3153  001582  23AF               	addwfc	(___aodiv@quotient+3)& (0+255),f,b
  3154  001584  23B0               	addwfc	(___aodiv@quotient+4)& (0+255),f,b
  3155  001586  23B1               	addwfc	(___aodiv@quotient+5)& (0+255),f,b
  3156  001588  23B2               	addwfc	(___aodiv@quotient+6)& (0+255),f,b
  3157  00158A  23B3               	addwfc	(___aodiv@quotient+7)& (0+255),f,b
  3158  00158C                     l4379:
  3159                           
  3160                           ; BSR set to: 0
  3161  00158C  C0AC  F01A         	movff	___aodiv@quotient,?___aodiv
  3162  001590  C0AD  F01B         	movff	___aodiv@quotient+1,?___aodiv+1
  3163  001594  C0AE  F01C         	movff	___aodiv@quotient+2,?___aodiv+2
  3164  001598  C0AF  F01D         	movff	___aodiv@quotient+3,?___aodiv+3
  3165  00159C  C0B0  F01E         	movff	___aodiv@quotient+4,?___aodiv+4
  3166  0015A0  C0B1  F01F         	movff	___aodiv@quotient+5,?___aodiv+5
  3167  0015A4  C0B2  F020         	movff	___aodiv@quotient+6,?___aodiv+6
  3168  0015A8  C0B3  F021         	movff	___aodiv@quotient+7,?___aodiv+7
  3169  0015AC                     
  3170                           ; BSR set to: 0
  3171  0015AC  0012               	return		;funcret
  3172  0015AE                     __end_of___aodiv:
  3173                           	callstack 0
  3174                           
  3175 ;; *************** function _SYSTEM_Initialize *****************
  3176 ;; Defined at:
  3177 ;;		line 50 in file "mcc_generated_files/mcc.c"
  3178 ;; Parameters:    Size  Location     Type
  3179 ;;		None
  3180 ;; Auto vars:     Size  Location     Type
  3181 ;;		None
  3182 ;; Return value:  Size  Location     Type
  3183 ;;                  1    wreg      void 
  3184 ;; Registers used:
  3185 ;;		wreg, status,2, status,0, cstack
  3186 ;; Tracked objects:
  3187 ;;		On entry : 0/0
  3188 ;;		On exit  : 0/0
  3189 ;;		Unchanged: 0/0
  3190 ;; Data sizes:     COMRAM   BANK0   BANK1   BANK2   BANK3   BANK4   BANK5   BANK6   BANK7   BANK8   BANK9  BANK10  BANK1
      +1  BANK12  BANK14
  3191 ;;      Params:         0       0       0       0       0       0       0       0       0       0       0       0       
      +0       0       0
  3192 ;;      Locals:         0       0       0       0       0       0       0       0       0       0       0       0       
      +0       0       0
  3193 ;;      Temps:          0       0       0       0       0       0       0       0       0       0       0       0       
      +0       0       0
  3194 ;;      Totals:         0       0       0       0       0       0       0       0       0       0       0       0       
      +0       0       0
  3195 ;;Total ram usage:        0 bytes
  3196 ;; Hardware stack levels used: 1
  3197 ;; Hardware stack levels required when called: 9
  3198 ;; This function calls:
  3199 ;;		_EUSART2_Initialize
  3200 ;;		_I2C1_Initialize
  3201 ;;		_INTERRUPT_Initialize
  3202 ;;		_OSCILLATOR_Initialize
  3203 ;;		_PIN_MANAGER_Initialize
  3204 ;;		_PMD_Initialize
  3205 ;; This function is called by:
  3206 ;;		_main
  3207 ;; This function uses a non-reentrant model
  3208 ;;
  3209                           
  3210                           	psect	text14
  3211  0027D8                     __ptext14:
  3212                           	callstack 0
  3213  0027D8                     _SYSTEM_Initialize:
  3214                           	callstack 21
  3215  0027D8                     
  3216                           ;mcc_generated_files/mcc.c: 52:     INTERRUPT_Initialize();
  3217  0027D8  ECAD  F014         	call	_INTERRUPT_Initialize	;wreg free
  3218  0027DC                     
  3219                           ;mcc_generated_files/mcc.c: 53:     PMD_Initialize();
  3220  0027DC  ECB4  F013         	call	_PMD_Initialize	;wreg free
  3221  0027E0                     
  3222                           ;mcc_generated_files/mcc.c: 54:     I2C1_Initialize();
  3223  0027E0  EC05  F014         	call	_I2C1_Initialize	;wreg free
  3224  0027E4                     
  3225                           ;mcc_generated_files/mcc.c: 55:     PIN_MANAGER_Initialize();
  3226  0027E4  ECD5  F00F         	call	_PIN_MANAGER_Initialize	;wreg free
  3227  0027E8                     
  3228                           ;mcc_generated_files/mcc.c: 56:     OSCILLATOR_Initialize();
  3229  0027E8  ECF9  F013         	call	_OSCILLATOR_Initialize	;wreg free
  3230  0027EC                     
  3231                           ;mcc_generated_files/mcc.c: 57:     EUSART2_Initialize();
  3232  0027EC  EC46  F00F         	call	_EUSART2_Initialize	;wreg free
  3233  0027F0  0012               	return		;funcret
  3234  0027F2                     __end_of_SYSTEM_Initialize:
  3235                           	callstack 0
  3236                           
  3237 ;; *************** function _PMD_Initialize *****************
  3238 ;; Defined at:
  3239 ;;		line 74 in file "mcc_generated_files/mcc.c"
  3240 ;; Parameters:    Size  Location     Type
  3241 ;;		None
  3242 ;; Auto vars:     Size  Location     Type
  3243 ;;		None
  3244 ;; Return value:  Size  Location     Type
  3245 ;;                  1    wreg      void 
  3246 ;; Registers used:
  3247 ;;		wreg, status,2
  3248 ;; Tracked objects:
  3249 ;;		On entry : 0/0
  3250 ;;		On exit  : 0/0
  3251 ;;		Unchanged: 0/0
  3252 ;; Data sizes:     COMRAM   BANK0   BANK1   BANK2   BANK3   BANK4   BANK5   BANK6   BANK7   BANK8   BANK9  BANK10  BANK1
      +1  BANK12  BANK14
  3253 ;;      Params:         0       0       0       0       0       0       0       0       0       0       0       0       
      +0       0       0
  3254 ;;      Locals:         0       0       0       0       0       0       0       0       0       0       0       0       
      +0       0       0
  3255 ;;      Temps:          0       0       0       0       0       0       0       0       0       0       0       0       
      +0       0       0
  3256 ;;      Totals:         0       0       0       0       0       0       0       0       0       0       0       0       
      +0       0       0
  3257 ;;Total ram usage:        0 bytes
  3258 ;; Hardware stack levels used: 1
  3259 ;; Hardware stack levels required when called: 7
  3260 ;; This function calls:
  3261 ;;		Nothing
  3262 ;; This function is called by:
  3263 ;;		_SYSTEM_Initialize
  3264 ;; This function uses a non-reentrant model
  3265 ;;
  3266                           
  3267                           	psect	text15
  3268  002768                     __ptext15:
  3269                           	callstack 0
  3270  002768                     _PMD_Initialize:
  3271                           	callstack 22
  3272  002768                     
  3273                           ;mcc_generated_files/mcc.c: 77:     PMD0 = 0x00;
  3274  002768  0E00               	movlw	0
  3275  00276A  010E               	movlb	14	; () banked
  3276  00276C  6FDC               	movwf	220,b	;volatile
  3277                           
  3278                           ;mcc_generated_files/mcc.c: 79:     PMD1 = 0x00;
  3279  00276E  0E00               	movlw	0
  3280  002770  6FDD               	movwf	221,b	;volatile
  3281                           
  3282                           ;mcc_generated_files/mcc.c: 81:     PMD2 = 0x00;
  3283  002772  0E00               	movlw	0
  3284  002774  6FDE               	movwf	222,b	;volatile
  3285                           
  3286                           ;mcc_generated_files/mcc.c: 83:     PMD3 = 0x00;
  3287  002776  0E00               	movlw	0
  3288  002778  6FDF               	movwf	223,b	;volatile
  3289                           
  3290                           ;mcc_generated_files/mcc.c: 85:     PMD4 = 0x00;
  3291  00277A  0E00               	movlw	0
  3292  00277C  6FE0               	movwf	224,b	;volatile
  3293                           
  3294                           ;mcc_generated_files/mcc.c: 87:     PMD5 = 0x00;
  3295  00277E  0E00               	movlw	0
  3296  002780  6FE1               	movwf	225,b	;volatile
  3297  002782                     
  3298                           ; BSR set to: 14
  3299  002782  0012               	return		;funcret
  3300  002784                     __end_of_PMD_Initialize:
  3301                           	callstack 0
  3302                           
  3303 ;; *************** function _PIN_MANAGER_Initialize *****************
  3304 ;; Defined at:
  3305 ;;		line 55 in file "mcc_generated_files/pin_manager.c"
  3306 ;; Parameters:    Size  Location     Type
  3307 ;;		None
  3308 ;; Auto vars:     Size  Location     Type
  3309 ;;		None
  3310 ;; Return value:  Size  Location     Type
  3311 ;;                  1    wreg      void 
  3312 ;; Registers used:
  3313 ;;		wreg, status,2
  3314 ;; Tracked objects:
  3315 ;;		On entry : 0/0
  3316 ;;		On exit  : 0/0
  3317 ;;		Unchanged: 0/0
  3318 ;; Data sizes:     COMRAM   BANK0   BANK1   BANK2   BANK3   BANK4   BANK5   BANK6   BANK7   BANK8   BANK9  BANK10  BANK1
      +1  BANK12  BANK14
  3319 ;;      Params:         0       0       0       0       0       0       0       0       0       0       0       0       
      +0       0       0
  3320 ;;      Locals:         0       0       0       0       0       0       0       0       0       0       0       0       
      +0       0       0
  3321 ;;      Temps:          0       0       0       0       0       0       0       0       0       0       0       0       
      +0       0       0
  3322 ;;      Totals:         0       0       0       0       0       0       0       0       0       0       0       0       
      +0       0       0
  3323 ;;Total ram usage:        0 bytes
  3324 ;; Hardware stack levels used: 1
  3325 ;; Hardware stack levels required when called: 7
  3326 ;; This function calls:
  3327 ;;		Nothing
  3328 ;; This function is called by:
  3329 ;;		_SYSTEM_Initialize
  3330 ;; This function uses a non-reentrant model
  3331 ;;
  3332                           
  3333                           	psect	text16
  3334  001FAA                     __ptext16:
  3335                           	callstack 0
  3336  001FAA                     _PIN_MANAGER_Initialize:
  3337                           	callstack 22
  3338  001FAA                     
  3339                           ;mcc_generated_files/pin_manager.c: 60:     LATE = 0x00;
  3340  001FAA  0E00               	movlw	0
  3341  001FAC  6E86               	movwf	134,c	;volatile
  3342                           
  3343                           ;mcc_generated_files/pin_manager.c: 61:     LATD = 0x00;
  3344  001FAE  0E00               	movlw	0
  3345  001FB0  6E85               	movwf	133,c	;volatile
  3346                           
  3347                           ;mcc_generated_files/pin_manager.c: 62:     LATA = 0x00;
  3348  001FB2  0E00               	movlw	0
  3349  001FB4  6E82               	movwf	130,c	;volatile
  3350                           
  3351                           ;mcc_generated_files/pin_manager.c: 63:     LATB = 0x00;
  3352  001FB6  0E00               	movlw	0
  3353  001FB8  6E83               	movwf	131,c	;volatile
  3354                           
  3355                           ;mcc_generated_files/pin_manager.c: 64:     LATC = 0x00;
  3356  001FBA  0E00               	movlw	0
  3357  001FBC  6E84               	movwf	132,c	;volatile
  3358                           
  3359                           ;mcc_generated_files/pin_manager.c: 69:     TRISE = 0x07;
  3360  001FBE  0E07               	movlw	7
  3361  001FC0  6E8B               	movwf	139,c	;volatile
  3362  001FC2                     
  3363                           ;mcc_generated_files/pin_manager.c: 70:     TRISA = 0xFF;
  3364  001FC2  6887               	setf	135,c	;volatile
  3365  001FC4                     
  3366                           ;mcc_generated_files/pin_manager.c: 71:     TRISB = 0xFF;
  3367  001FC4  6888               	setf	136,c	;volatile
  3368  001FC6                     
  3369                           ;mcc_generated_files/pin_manager.c: 72:     TRISC = 0xFF;
  3370  001FC6  6889               	setf	137,c	;volatile
  3371                           
  3372                           ;mcc_generated_files/pin_manager.c: 73:     TRISD = 0xFE;
  3373  001FC8  0EFE               	movlw	254
  3374  001FCA  6E8A               	movwf	138,c	;volatile
  3375  001FCC                     
  3376                           ;mcc_generated_files/pin_manager.c: 78:     ANSELD = 0xFF;
  3377  001FCC  010F               	movlb	15	; () banked
  3378  001FCE  6921               	setf	33,b	;volatile
  3379                           
  3380                           ;mcc_generated_files/pin_manager.c: 79:     ANSELC = 0xE7;
  3381  001FD0  0EE7               	movlw	231
  3382  001FD2  6F1C               	movwf	28,b	;volatile
  3383  001FD4                     
  3384                           ; BSR set to: 15
  3385                           ;mcc_generated_files/pin_manager.c: 80:     ANSELB = 0xFF;
  3386  001FD4  6914               	setf	20,b	;volatile
  3387                           
  3388                           ;mcc_generated_files/pin_manager.c: 81:     ANSELE = 0x07;
  3389  001FD6  0E07               	movlw	7
  3390  001FD8  6F29               	movwf	41,b	;volatile
  3391  001FDA                     
  3392                           ; BSR set to: 15
  3393                           ;mcc_generated_files/pin_manager.c: 82:     ANSELA = 0xFF;
  3394  001FDA  690C               	setf	12,b	;volatile
  3395                           
  3396                           ;mcc_generated_files/pin_manager.c: 87:     WPUD = 0x00;
  3397  001FDC  0E00               	movlw	0
  3398  001FDE  6F20               	movwf	32,b	;volatile
  3399                           
  3400                           ;mcc_generated_files/pin_manager.c: 88:     WPUE = 0x00;
  3401  001FE0  0E00               	movlw	0
  3402  001FE2  6F28               	movwf	40,b	;volatile
  3403                           
  3404                           ;mcc_generated_files/pin_manager.c: 89:     WPUB = 0x00;
  3405  001FE4  0E00               	movlw	0
  3406  001FE6  6F13               	movwf	19,b	;volatile
  3407                           
  3408                           ;mcc_generated_files/pin_manager.c: 90:     WPUA = 0x00;
  3409  001FE8  0E00               	movlw	0
  3410  001FEA  6F0B               	movwf	11,b	;volatile
  3411                           
  3412                           ;mcc_generated_files/pin_manager.c: 91:     WPUC = 0x00;
  3413  001FEC  0E00               	movlw	0
  3414  001FEE  6F1B               	movwf	27,b	;volatile
  3415                           
  3416                           ;mcc_generated_files/pin_manager.c: 96:     ODCONE = 0x00;
  3417  001FF0  0E00               	movlw	0
  3418  001FF2  6F27               	movwf	39,b	;volatile
  3419                           
  3420                           ;mcc_generated_files/pin_manager.c: 97:     ODCONA = 0x00;
  3421  001FF4  0E00               	movlw	0
  3422  001FF6  6F0A               	movwf	10,b	;volatile
  3423                           
  3424                           ;mcc_generated_files/pin_manager.c: 98:     ODCONB = 0x00;
  3425  001FF8  0E00               	movlw	0
  3426  001FFA  6F12               	movwf	18,b	;volatile
  3427                           
  3428                           ;mcc_generated_files/pin_manager.c: 99:     ODCONC = 0x00;
  3429  001FFC  0E00               	movlw	0
  3430  001FFE  6F1A               	movwf	26,b	;volatile
  3431                           
  3432                           ;mcc_generated_files/pin_manager.c: 100:     ODCOND = 0x00;
  3433  002000  0E00               	movlw	0
  3434  002002  6F1F               	movwf	31,b	;volatile
  3435  002004                     
  3436                           ; BSR set to: 15
  3437                           ;mcc_generated_files/pin_manager.c: 105:     SLRCONA = 0xFF;
  3438  002004  6909               	setf	9,b	;volatile
  3439  002006                     
  3440                           ; BSR set to: 15
  3441                           ;mcc_generated_files/pin_manager.c: 106:     SLRCONB = 0xFF;
  3442  002006  6911               	setf	17,b	;volatile
  3443  002008                     
  3444                           ; BSR set to: 15
  3445                           ;mcc_generated_files/pin_manager.c: 107:     SLRCONC = 0xFF;
  3446  002008  6919               	setf	25,b	;volatile
  3447  00200A                     
  3448                           ; BSR set to: 15
  3449                           ;mcc_generated_files/pin_manager.c: 108:     SLRCOND = 0xFF;
  3450  00200A  691E               	setf	30,b	;volatile
  3451                           
  3452                           ;mcc_generated_files/pin_manager.c: 109:     SLRCONE = 0x07;
  3453  00200C  0E07               	movlw	7
  3454  00200E  6F26               	movwf	38,b	;volatile
  3455  002010                     
  3456                           ; BSR set to: 15
  3457                           ;mcc_generated_files/pin_manager.c: 114:     INLVLA = 0xFF;
  3458  002010  6908               	setf	8,b	;volatile
  3459  002012                     
  3460                           ; BSR set to: 15
  3461                           ;mcc_generated_files/pin_manager.c: 115:     INLVLB = 0xFF;
  3462  002012  6910               	setf	16,b	;volatile
  3463  002014                     
  3464                           ; BSR set to: 15
  3465                           ;mcc_generated_files/pin_manager.c: 116:     INLVLC = 0xFF;
  3466  002014  6918               	setf	24,b	;volatile
  3467  002016                     
  3468                           ; BSR set to: 15
  3469                           ;mcc_generated_files/pin_manager.c: 117:     INLVLD = 0xFF;
  3470  002016  691D               	setf	29,b	;volatile
  3471                           
  3472                           ;mcc_generated_files/pin_manager.c: 118:     INLVLE = 0x0F;
  3473  002018  0E0F               	movlw	15
  3474  00201A  6F25               	movwf	37,b	;volatile
  3475                           
  3476                           ;mcc_generated_files/pin_manager.c: 127:     SSP1CLKPPS = 0x13;
  3477  00201C  0E13               	movlw	19
  3478  00201E  010E               	movlb	14	; () banked
  3479  002020  6FB2               	movwf	178,b	;volatile
  3480                           
  3481                           ;mcc_generated_files/pin_manager.c: 128:     RC3PPS = 0x0F;
  3482  002022  0E0F               	movlw	15
  3483  002024  6FF5               	movwf	245,b	;volatile
  3484                           
  3485                           ;mcc_generated_files/pin_manager.c: 129:     RC4PPS = 0x10;
  3486  002026  0E10               	movlw	16
  3487  002028  6FF6               	movwf	246,b	;volatile
  3488                           
  3489                           ;mcc_generated_files/pin_manager.c: 130:     RD0PPS = 0x0B;
  3490  00202A  0E0B               	movlw	11
  3491  00202C  6FFA               	movwf	250,b	;volatile
  3492                           
  3493                           ;mcc_generated_files/pin_manager.c: 131:     SSP1DATPPS = 0x14;
  3494  00202E  0E14               	movlw	20
  3495  002030  6FB3               	movwf	179,b	;volatile
  3496  002032                     
  3497                           ; BSR set to: 14
  3498  002032  0012               	return		;funcret
  3499  002034                     __end_of_PIN_MANAGER_Initialize:
  3500                           	callstack 0
  3501                           
  3502 ;; *************** function _OSCILLATOR_Initialize *****************
  3503 ;; Defined at:
  3504 ;;		line 60 in file "mcc_generated_files/mcc.c"
  3505 ;; Parameters:    Size  Location     Type
  3506 ;;		None
  3507 ;; Auto vars:     Size  Location     Type
  3508 ;;		None
  3509 ;; Return value:  Size  Location     Type
  3510 ;;                  1    wreg      void 
  3511 ;; Registers used:
  3512 ;;		wreg, status,2
  3513 ;; Tracked objects:
  3514 ;;		On entry : 0/0
  3515 ;;		On exit  : 0/0
  3516 ;;		Unchanged: 0/0
  3517 ;; Data sizes:     COMRAM   BANK0   BANK1   BANK2   BANK3   BANK4   BANK5   BANK6   BANK7   BANK8   BANK9  BANK10  BANK1
      +1  BANK12  BANK14
  3518 ;;      Params:         0       0       0       0       0       0       0       0       0       0       0       0       
      +0       0       0
  3519 ;;      Locals:         0       0       0       0       0       0       0       0       0       0       0       0       
      +0       0       0
  3520 ;;      Temps:          0       0       0       0       0       0       0       0       0       0       0       0       
      +0       0       0
  3521 ;;      Totals:         0       0       0       0       0       0       0       0       0       0       0       0       
      +0       0       0
  3522 ;;Total ram usage:        0 bytes
  3523 ;; Hardware stack levels used: 1
  3524 ;; Hardware stack levels required when called: 7
  3525 ;; This function calls:
  3526 ;;		Nothing
  3527 ;; This function is called by:
  3528 ;;		_SYSTEM_Initialize
  3529 ;; This function uses a non-reentrant model
  3530 ;;
  3531                           
  3532                           	psect	text17
  3533  0027F2                     __ptext17:
  3534                           	callstack 0
  3535  0027F2                     _OSCILLATOR_Initialize:
  3536                           	callstack 22
  3537  0027F2                     
  3538                           ;mcc_generated_files/mcc.c: 63:     OSCCON1 = 0x60;
  3539  0027F2  0E60               	movlw	96
  3540  0027F4  010E               	movlb	14	; () banked
  3541  0027F6  6FD3               	movwf	211,b	;volatile
  3542                           
  3543                           ;mcc_generated_files/mcc.c: 65:     OSCCON3 = 0x00;
  3544  0027F8  0E00               	movlw	0
  3545  0027FA  6FD5               	movwf	213,b	;volatile
  3546                           
  3547                           ;mcc_generated_files/mcc.c: 67:     OSCEN = 0x00;
  3548  0027FC  0E00               	movlw	0
  3549  0027FE  6FD7               	movwf	215,b	;volatile
  3550                           
  3551                           ;mcc_generated_files/mcc.c: 69:     OSCFRQ = 0x02;
  3552  002800  0E02               	movlw	2
  3553  002802  6FD9               	movwf	217,b	;volatile
  3554                           
  3555                           ;mcc_generated_files/mcc.c: 71:     OSCTUNE = 0x00;
  3556  002804  0E00               	movlw	0
  3557  002806  6FD8               	movwf	216,b	;volatile
  3558  002808                     
  3559                           ; BSR set to: 14
  3560  002808  0012               	return		;funcret
  3561  00280A                     __end_of_OSCILLATOR_Initialize:
  3562                           	callstack 0
  3563                           
  3564 ;; *************** function _INTERRUPT_Initialize *****************
  3565 ;; Defined at:
  3566 ;;		line 52 in file "mcc_generated_files/interrupt_manager.c"
  3567 ;; Parameters:    Size  Location     Type
  3568 ;;		None
  3569 ;; Auto vars:     Size  Location     Type
  3570 ;;		None
  3571 ;; Return value:  Size  Location     Type
  3572 ;;                  1    wreg      void 
  3573 ;; Registers used:
  3574 ;;		None
  3575 ;; Tracked objects:
  3576 ;;		On entry : 0/0
  3577 ;;		On exit  : 0/0
  3578 ;;		Unchanged: 0/0
  3579 ;; Data sizes:     COMRAM   BANK0   BANK1   BANK2   BANK3   BANK4   BANK5   BANK6   BANK7   BANK8   BANK9  BANK10  BANK1
      +1  BANK12  BANK14
  3580 ;;      Params:         0       0       0       0       0       0       0       0       0       0       0       0       
      +0       0       0
  3581 ;;      Locals:         0       0       0       0       0       0       0       0       0       0       0       0       
      +0       0       0
  3582 ;;      Temps:          0       0       0       0       0       0       0       0       0       0       0       0       
      +0       0       0
  3583 ;;      Totals:         0       0       0       0       0       0       0       0       0       0       0       0       
      +0       0       0
  3584 ;;Total ram usage:        0 bytes
  3585 ;; Hardware stack levels used: 1
  3586 ;; Hardware stack levels required when called: 7
  3587 ;; This function calls:
  3588 ;;		Nothing
  3589 ;; This function is called by:
  3590 ;;		_SYSTEM_Initialize
  3591 ;; This function uses a non-reentrant model
  3592 ;;
  3593                           
  3594                           	psect	text18
  3595  00295A                     __ptext18:
  3596                           	callstack 0
  3597  00295A                     _INTERRUPT_Initialize:
  3598                           	callstack 22
  3599  00295A                     
  3600                           ;mcc_generated_files/interrupt_manager.c: 55:     INTCONbits.IPEN = 0;
  3601  00295A  9AF2               	bcf	242,5,c	;volatile
  3602  00295C  0012               	return		;funcret
  3603  00295E                     __end_of_INTERRUPT_Initialize:
  3604                           	callstack 0
  3605                           
  3606 ;; *************** function _I2C1_Initialize *****************
  3607 ;; Defined at:
  3608 ;;		line 167 in file "mcc_generated_files/i2c1_master.c"
  3609 ;; Parameters:    Size  Location     Type
  3610 ;;		None
  3611 ;; Auto vars:     Size  Location     Type
  3612 ;;		None
  3613 ;; Return value:  Size  Location     Type
  3614 ;;                  1    wreg      void 
  3615 ;; Registers used:
  3616 ;;		wreg, status,2
  3617 ;; Tracked objects:
  3618 ;;		On entry : 0/0
  3619 ;;		On exit  : 0/0
  3620 ;;		Unchanged: 0/0
  3621 ;; Data sizes:     COMRAM   BANK0   BANK1   BANK2   BANK3   BANK4   BANK5   BANK6   BANK7   BANK8   BANK9  BANK10  BANK1
      +1  BANK12  BANK14
  3622 ;;      Params:         0       0       0       0       0       0       0       0       0       0       0       0       
      +0       0       0
  3623 ;;      Locals:         0       0       0       0       0       0       0       0       0       0       0       0       
      +0       0       0
  3624 ;;      Temps:          0       0       0       0       0       0       0       0       0       0       0       0       
      +0       0       0
  3625 ;;      Totals:         0       0       0       0       0       0       0       0       0       0       0       0       
      +0       0       0
  3626 ;;Total ram usage:        0 bytes
  3627 ;; Hardware stack levels used: 1
  3628 ;; Hardware stack levels required when called: 7
  3629 ;; This function calls:
  3630 ;;		Nothing
  3631 ;; This function is called by:
  3632 ;;		_SYSTEM_Initialize
  3633 ;; This function uses a non-reentrant model
  3634 ;;
  3635                           
  3636                           	psect	text19
  3637  00280A                     __ptext19:
  3638                           	callstack 0
  3639  00280A                     _I2C1_Initialize:
  3640                           	callstack 22
  3641  00280A                     
  3642                           ;mcc_generated_files/i2c1_master.c: 169:     SSP1STAT = 0x00;
  3643  00280A  0E00               	movlw	0
  3644  00280C  6E94               	movwf	148,c	;volatile
  3645                           
  3646                           ;mcc_generated_files/i2c1_master.c: 170:     SSP1CON1 = 0x08;
  3647  00280E  0E08               	movlw	8
  3648  002810  6E95               	movwf	149,c	;volatile
  3649                           
  3650                           ;mcc_generated_files/i2c1_master.c: 171:     SSP1CON2 = 0x00;
  3651  002812  0E00               	movlw	0
  3652  002814  6E96               	movwf	150,c	;volatile
  3653                           
  3654                           ;mcc_generated_files/i2c1_master.c: 172:     SSP1ADD = 0x09;
  3655  002816  0E09               	movlw	9
  3656  002818  6E92               	movwf	146,c	;volatile
  3657  00281A                     
  3658                           ;mcc_generated_files/i2c1_master.c: 173:     SSP1CON1bits.SSPEN = 0;
  3659  00281A  9A95               	bcf	149,5,c	;volatile
  3660  00281C  0012               	return		;funcret
  3661  00281E                     __end_of_I2C1_Initialize:
  3662                           	callstack 0
  3663                           
  3664 ;; *************** function _EUSART2_Initialize *****************
  3665 ;; Defined at:
  3666 ;;		line 88 in file "mcc_generated_files/eusart2.c"
  3667 ;; Parameters:    Size  Location     Type
  3668 ;;		None
  3669 ;; Auto vars:     Size  Location     Type
  3670 ;;		None
  3671 ;; Return value:  Size  Location     Type
  3672 ;;                  1    wreg      void 
  3673 ;; Registers used:
  3674 ;;		wreg, status,2, status,0, cstack
  3675 ;; Tracked objects:
  3676 ;;		On entry : 0/0
  3677 ;;		On exit  : 0/0
  3678 ;;		Unchanged: 0/0
  3679 ;; Data sizes:     COMRAM   BANK0   BANK1   BANK2   BANK3   BANK4   BANK5   BANK6   BANK7   BANK8   BANK9  BANK10  BANK1
      +1  BANK12  BANK14
  3680 ;;      Params:         0       0       0       0       0       0       0       0       0       0       0       0       
      +0       0       0
  3681 ;;      Locals:         0       0       0       0       0       0       0       0       0       0       0       0       
      +0       0       0
  3682 ;;      Temps:          0       0       0       0       0       0       0       0       0       0       0       0       
      +0       0       0
  3683 ;;      Totals:         0       0       0       0       0       0       0       0       0       0       0       0       
      +0       0       0
  3684 ;;Total ram usage:        0 bytes
  3685 ;; Hardware stack levels used: 1
  3686 ;; Hardware stack levels required when called: 8
  3687 ;; This function calls:
  3688 ;;		_EUSART2_SetErrorHandler
  3689 ;;		_EUSART2_SetFramingErrorHandler
  3690 ;;		_EUSART2_SetOverrunErrorHandler
  3691 ;;		_EUSART2_SetRxInterruptHandler
  3692 ;;		_EUSART2_SetTxInterruptHandler
  3693 ;; This function is called by:
  3694 ;;		_SYSTEM_Initialize
  3695 ;; This function uses a non-reentrant model
  3696 ;;
  3697                           
  3698                           	psect	text20
  3699  001E8C                     __ptext20:
  3700                           	callstack 0
  3701  001E8C                     _EUSART2_Initialize:
  3702                           	callstack 21
  3703  001E8C                     
  3704                           ;mcc_generated_files/eusart2.c: 91:     PIE3bits.RC2IE = 0;
  3705  001E8C  010E               	movlb	14	; () banked
  3706  001E8E  9FC0               	bcf	192,7,b	;volatile
  3707  001E90                     
  3708                           ; BSR set to: 14
  3709                           ;mcc_generated_files/eusart2.c: 92:     EUSART2_SetRxInterruptHandler(EUSART2_Receive_IS
      +                          R);
  3710  001E90  0E20               	movlw	low _EUSART2_Receive_ISR
  3711  001E92  6E1A               	movwf	EUSART2_SetRxInterruptHandler@interruptHandler^0,c
  3712  001E94  0E1B               	movlw	high _EUSART2_Receive_ISR
  3713  001E96  6E1B               	movwf	(EUSART2_SetRxInterruptHandler@interruptHandler+1)^0,c
  3714  001E98  0E00               	movlw	low (_EUSART2_Receive_ISR shr (0+16))
  3715  001E9A  6E1C               	movwf	(EUSART2_SetRxInterruptHandler@interruptHandler+2)^0,c
  3716  001E9C  EC30  F014         	call	_EUSART2_SetRxInterruptHandler	;wreg free
  3717  001EA0                     
  3718                           ;mcc_generated_files/eusart2.c: 93:     PIE3bits.TX2IE = 0;
  3719  001EA0  010E               	movlb	14	; () banked
  3720  001EA2  9DC0               	bcf	192,6,b	;volatile
  3721                           
  3722                           ;mcc_generated_files/eusart2.c: 94:     EUSART2_SetTxInterruptHandler(EUSART2_Transmit_I
      +                          SR);
  3723  001EA4  0EC2               	movlw	low _EUSART2_Transmit_ISR
  3724  001EA6  6E1A               	movwf	EUSART2_SetTxInterruptHandler@interruptHandler^0,c
  3725  001EA8  0E24               	movlw	high _EUSART2_Transmit_ISR
  3726  001EAA  6E1B               	movwf	(EUSART2_SetTxInterruptHandler@interruptHandler+1)^0,c
  3727  001EAC  0E00               	movlw	low (_EUSART2_Transmit_ISR shr (0+16))
  3728  001EAE  6E1C               	movwf	(EUSART2_SetTxInterruptHandler@interruptHandler+2)^0,c
  3729  001EB0  EC29  F014         	call	_EUSART2_SetTxInterruptHandler	;wreg free
  3730  001EB4                     
  3731                           ;mcc_generated_files/eusart2.c: 98:     BAUD2CON = 0x08;
  3732  001EB4  0E08               	movlw	8
  3733  001EB6  010E               	movlb	14	; () banked
  3734  001EB8  6F9A               	movwf	154,b	;volatile
  3735  001EBA                     
  3736                           ; BSR set to: 14
  3737                           ;mcc_generated_files/eusart2.c: 101:     RC2STA = 0x80;
  3738  001EBA  0E80               	movlw	128
  3739  001EBC  6F98               	movwf	152,b	;volatile
  3740  001EBE                     
  3741                           ; BSR set to: 14
  3742                           ;mcc_generated_files/eusart2.c: 104:     TX2STA = 0x24;
  3743  001EBE  0E24               	movlw	36
  3744  001EC0  6F99               	movwf	153,b	;volatile
  3745  001EC2                     
  3746                           ; BSR set to: 14
  3747                           ;mcc_generated_files/eusart2.c: 107:     SP2BRGL = 0x67;
  3748  001EC2  0E67               	movlw	103
  3749  001EC4  6F96               	movwf	150,b	;volatile
  3750  001EC6                     
  3751                           ; BSR set to: 14
  3752                           ;mcc_generated_files/eusart2.c: 110:     SP2BRGH = 0x00;
  3753  001EC6  0E00               	movlw	0
  3754  001EC8  6F97               	movwf	151,b	;volatile
  3755  001ECA                     
  3756                           ; BSR set to: 14
  3757                           ;mcc_generated_files/eusart2.c: 113:     EUSART2_SetFramingErrorHandler(EUSART2_DefaultF
      +                          ramingErrorHandler);
  3758  001ECA  0E7E               	movlw	low _EUSART2_DefaultFramingErrorHandler
  3759  001ECC  6E1A               	movwf	EUSART2_SetFramingErrorHandler@interruptHandler^0,c
  3760  001ECE  0E29               	movlw	high _EUSART2_DefaultFramingErrorHandler
  3761  001ED0  6E1B               	movwf	(EUSART2_SetFramingErrorHandler@interruptHandler+1)^0,c
  3762  001ED2  0E00               	movlw	low (_EUSART2_DefaultFramingErrorHandler shr (0+16))
  3763  001ED4  6E1C               	movwf	(EUSART2_SetFramingErrorHandler@interruptHandler+2)^0,c
  3764  001ED6  EC3E  F014         	call	_EUSART2_SetFramingErrorHandler	;wreg free
  3765  001EDA                     
  3766                           ;mcc_generated_files/eusart2.c: 114:     EUSART2_SetOverrunErrorHandler(EUSART2_DefaultO
      +                          verrunErrorHandler);
  3767  001EDA  0E1C               	movlw	low _EUSART2_DefaultOverrunErrorHandler
  3768  001EDC  6E1A               	movwf	EUSART2_SetOverrunErrorHandler@interruptHandler^0,c
  3769  001EDE  0E29               	movlw	high _EUSART2_DefaultOverrunErrorHandler
  3770  001EE0  6E1B               	movwf	(EUSART2_SetOverrunErrorHandler@interruptHandler+1)^0,c
  3771  001EE2  0E00               	movlw	low (_EUSART2_DefaultOverrunErrorHandler shr (0+16))
  3772  001EE4  6E1C               	movwf	(EUSART2_SetOverrunErrorHandler@interruptHandler+2)^0,c
  3773  001EE6  EC37  F014         	call	_EUSART2_SetOverrunErrorHandler	;wreg free
  3774  001EEA                     
  3775                           ;mcc_generated_files/eusart2.c: 115:     EUSART2_SetErrorHandler(EUSART2_DefaultErrorHan
      +                          dler);
  3776  001EEA  0E54               	movlw	low _EUSART2_DefaultErrorHandler
  3777  001EEC  6E1A               	movwf	EUSART2_SetErrorHandler@interruptHandler^0,c
  3778  001EEE  0E29               	movlw	high _EUSART2_DefaultErrorHandler
  3779  001EF0  6E1B               	movwf	(EUSART2_SetErrorHandler@interruptHandler+1)^0,c
  3780  001EF2  0E00               	movlw	low (_EUSART2_DefaultErrorHandler shr (0+16))
  3781  001EF4  6E1C               	movwf	(EUSART2_SetErrorHandler@interruptHandler+2)^0,c
  3782  001EF6  EC45  F014         	call	_EUSART2_SetErrorHandler	;wreg free
  3783                           
  3784                           ;mcc_generated_files/eusart2.c: 117:     eusart2RxLastError.status = 0;
  3785  001EFA  0E00               	movlw	0
  3786  001EFC  6E3F               	movwf	_eusart2RxLastError^0,c	;volatile
  3787                           
  3788                           ;mcc_generated_files/eusart2.c: 120:     eusart2TxHead = 0;
  3789  001EFE  0E00               	movlw	0
  3790  001F00  6E44               	movwf	_eusart2TxHead^0,c	;volatile
  3791                           
  3792                           ;mcc_generated_files/eusart2.c: 121:     eusart2TxTail = 0;
  3793  001F02  0E00               	movlw	0
  3794  001F04  6E43               	movwf	_eusart2TxTail^0,c	;volatile
  3795                           
  3796                           ;mcc_generated_files/eusart2.c: 122:     eusart2TxBufferRemaining = sizeof(eusart2TxBuff
      +                          er);
  3797  001F06  0E08               	movlw	8
  3798  001F08  6E45               	movwf	_eusart2TxBufferRemaining^0,c	;volatile
  3799                           
  3800                           ;mcc_generated_files/eusart2.c: 124:     eusart2RxHead = 0;
  3801  001F0A  0E00               	movlw	0
  3802  001F0C  6E42               	movwf	_eusart2RxHead^0,c	;volatile
  3803                           
  3804                           ;mcc_generated_files/eusart2.c: 125:     eusart2RxTail = 0;
  3805  001F0E  0E00               	movlw	0
  3806  001F10  6E41               	movwf	_eusart2RxTail^0,c	;volatile
  3807                           
  3808                           ;mcc_generated_files/eusart2.c: 126:     eusart2RxCount = 0;
  3809  001F12  0E00               	movlw	0
  3810  001F14  6E40               	movwf	_eusart2RxCount^0,c	;volatile
  3811  001F16                     
  3812                           ;mcc_generated_files/eusart2.c: 129:     PIE3bits.RC2IE = 1;
  3813  001F16  010E               	movlb	14	; () banked
  3814  001F18  8FC0               	bsf	192,7,b	;volatile
  3815  001F1A                     
  3816                           ; BSR set to: 14
  3817  001F1A  0012               	return		;funcret
  3818  001F1C                     __end_of_EUSART2_Initialize:
  3819                           	callstack 0
  3820                           
  3821 ;; *************** function _EUSART2_SetTxInterruptHandler *****************
  3822 ;; Defined at:
  3823 ;;		line 285 in file "mcc_generated_files/eusart2.c"
  3824 ;; Parameters:    Size  Location     Type
  3825 ;;  interruptHan    3   25[COMRAM] PTR FTN()void 
  3826 ;;		 -> EUSART2_Transmit_ISR(1), 
  3827 ;; Auto vars:     Size  Location     Type
  3828 ;;		None
  3829 ;; Return value:  Size  Location     Type
  3830 ;;                  1    wreg      void 
  3831 ;; Registers used:
  3832 ;;		wreg, status,2, status,0
  3833 ;; Tracked objects:
  3834 ;;		On entry : 0/0
  3835 ;;		On exit  : 0/0
  3836 ;;		Unchanged: 0/0
  3837 ;; Data sizes:     COMRAM   BANK0   BANK1   BANK2   BANK3   BANK4   BANK5   BANK6   BANK7   BANK8   BANK9  BANK10  BANK1
      +1  BANK12  BANK14
  3838 ;;      Params:         3       0       0       0       0       0       0       0       0       0       0       0       
      +0       0       0
  3839 ;;      Locals:         0       0       0       0       0       0       0       0       0       0       0       0       
      +0       0       0
  3840 ;;      Temps:          0       0       0       0       0       0       0       0       0       0       0       0       
      +0       0       0
  3841 ;;      Totals:         3       0       0       0       0       0       0       0       0       0       0       0       
      +0       0       0
  3842 ;;Total ram usage:        3 bytes
  3843 ;; Hardware stack levels used: 1
  3844 ;; Hardware stack levels required when called: 7
  3845 ;; This function calls:
  3846 ;;		Nothing
  3847 ;; This function is called by:
  3848 ;;		_EUSART2_Initialize
  3849 ;; This function uses a non-reentrant model
  3850 ;;
  3851                           
  3852                           	psect	text21
  3853  002852                     __ptext21:
  3854                           	callstack 0
  3855  002852                     _EUSART2_SetTxInterruptHandler:
  3856                           	callstack 21
  3857  002852                     
  3858                           ;mcc_generated_files/eusart2.c: 286:     EUSART2_TxDefaultInterruptHandler = interruptHa
      +                          ndler;
  3859  002852  C01A  F0FD         	movff	EUSART2_SetTxInterruptHandler@interruptHandler,_EUSART2_TxDefaultInterruptHandler
  3860  002856  C01B  F0FE         	movff	EUSART2_SetTxInterruptHandler@interruptHandler+1,_EUSART2_TxDefaultInterruptHandl
      +                          er+1
  3861  00285A  C01C  F0FF         	movff	EUSART2_SetTxInterruptHandler@interruptHandler+2,_EUSART2_TxDefaultInterruptHandl
      +                          er+2
  3862  00285E  0012               	return		;funcret
  3863  002860                     __end_of_EUSART2_SetTxInterruptHandler:
  3864                           	callstack 0
  3865                           
  3866 ;; *************** function _EUSART2_SetRxInterruptHandler *****************
  3867 ;; Defined at:
  3868 ;;		line 289 in file "mcc_generated_files/eusart2.c"
  3869 ;; Parameters:    Size  Location     Type
  3870 ;;  interruptHan    3   25[COMRAM] PTR FTN()void 
  3871 ;;		 -> EUSART2_Receive_ISR(1), 
  3872 ;; Auto vars:     Size  Location     Type
  3873 ;;		None
  3874 ;; Return value:  Size  Location     Type
  3875 ;;                  1    wreg      void 
  3876 ;; Registers used:
  3877 ;;		wreg, status,2, status,0
  3878 ;; Tracked objects:
  3879 ;;		On entry : 0/0
  3880 ;;		On exit  : 0/0
  3881 ;;		Unchanged: 0/0
  3882 ;; Data sizes:     COMRAM   BANK0   BANK1   BANK2   BANK3   BANK4   BANK5   BANK6   BANK7   BANK8   BANK9  BANK10  BANK1
      +1  BANK12  BANK14
  3883 ;;      Params:         3       0       0       0       0       0       0       0       0       0       0       0       
      +0       0       0
  3884 ;;      Locals:         0       0       0       0       0       0       0       0       0       0       0       0       
      +0       0       0
  3885 ;;      Temps:          0       0       0       0       0       0       0       0       0       0       0       0       
      +0       0       0
  3886 ;;      Totals:         3       0       0       0       0       0       0       0       0       0       0       0       
      +0       0       0
  3887 ;;Total ram usage:        3 bytes
  3888 ;; Hardware stack levels used: 1
  3889 ;; Hardware stack levels required when called: 7
  3890 ;; This function calls:
  3891 ;;		Nothing
  3892 ;; This function is called by:
  3893 ;;		_EUSART2_Initialize
  3894 ;; This function uses a non-reentrant model
  3895 ;;
  3896                           
  3897                           	psect	text22
  3898  002860                     __ptext22:
  3899                           	callstack 0
  3900  002860                     _EUSART2_SetRxInterruptHandler:
  3901                           	callstack 21
  3902  002860                     
  3903                           ;mcc_generated_files/eusart2.c: 290:     EUSART2_RxDefaultInterruptHandler = interruptHa
      +                          ndler;
  3904  002860  C01A  F0FA         	movff	EUSART2_SetRxInterruptHandler@interruptHandler,_EUSART2_RxDefaultInterruptHandler
  3905  002864  C01B  F0FB         	movff	EUSART2_SetRxInterruptHandler@interruptHandler+1,_EUSART2_RxDefaultInterruptHandl
      +                          er+1
  3906  002868  C01C  F0FC         	movff	EUSART2_SetRxInterruptHandler@interruptHandler+2,_EUSART2_RxDefaultInterruptHandl
      +                          er+2
  3907  00286C  0012               	return		;funcret
  3908  00286E                     __end_of_EUSART2_SetRxInterruptHandler:
  3909                           	callstack 0
  3910                           
  3911 ;; *************** function _EUSART2_SetOverrunErrorHandler *****************
  3912 ;; Defined at:
  3913 ;;		line 277 in file "mcc_generated_files/eusart2.c"
  3914 ;; Parameters:    Size  Location     Type
  3915 ;;  interruptHan    3   25[COMRAM] PTR FTN()void 
  3916 ;;		 -> EUSART2_DefaultOverrunErrorHandler(1), 
  3917 ;; Auto vars:     Size  Location     Type
  3918 ;;		None
  3919 ;; Return value:  Size  Location     Type
  3920 ;;                  1    wreg      void 
  3921 ;; Registers used:
  3922 ;;		wreg, status,2, status,0
  3923 ;; Tracked objects:
  3924 ;;		On entry : 0/0
  3925 ;;		On exit  : 0/0
  3926 ;;		Unchanged: 0/0
  3927 ;; Data sizes:     COMRAM   BANK0   BANK1   BANK2   BANK3   BANK4   BANK5   BANK6   BANK7   BANK8   BANK9  BANK10  BANK1
      +1  BANK12  BANK14
  3928 ;;      Params:         3       0       0       0       0       0       0       0       0       0       0       0       
      +0       0       0
  3929 ;;      Locals:         0       0       0       0       0       0       0       0       0       0       0       0       
      +0       0       0
  3930 ;;      Temps:          0       0       0       0       0       0       0       0       0       0       0       0       
      +0       0       0
  3931 ;;      Totals:         3       0       0       0       0       0       0       0       0       0       0       0       
      +0       0       0
  3932 ;;Total ram usage:        3 bytes
  3933 ;; Hardware stack levels used: 1
  3934 ;; Hardware stack levels required when called: 7
  3935 ;; This function calls:
  3936 ;;		Nothing
  3937 ;; This function is called by:
  3938 ;;		_EUSART2_Initialize
  3939 ;; This function uses a non-reentrant model
  3940 ;;
  3941                           
  3942                           	psect	text23
  3943  00286E                     __ptext23:
  3944                           	callstack 0
  3945  00286E                     _EUSART2_SetOverrunErrorHandler:
  3946                           	callstack 21
  3947  00286E                     
  3948                           ;mcc_generated_files/eusart2.c: 278:     EUSART2_OverrunErrorHandler = interruptHandler;
  3949  00286E  C01A  F0F4         	movff	EUSART2_SetOverrunErrorHandler@interruptHandler,_EUSART2_OverrunErrorHandler
  3950  002872  C01B  F0F5         	movff	EUSART2_SetOverrunErrorHandler@interruptHandler+1,_EUSART2_OverrunErrorHandler+1
  3951  002876  C01C  F0F6         	movff	EUSART2_SetOverrunErrorHandler@interruptHandler+2,_EUSART2_OverrunErrorHandler+2
  3952  00287A  0012               	return		;funcret
  3953  00287C                     __end_of_EUSART2_SetOverrunErrorHandler:
  3954                           	callstack 0
  3955                           
  3956 ;; *************** function _EUSART2_SetFramingErrorHandler *****************
  3957 ;; Defined at:
  3958 ;;		line 273 in file "mcc_generated_files/eusart2.c"
  3959 ;; Parameters:    Size  Location     Type
  3960 ;;  interruptHan    3   25[COMRAM] PTR FTN()void 
  3961 ;;		 -> EUSART2_DefaultFramingErrorHandler(1), 
  3962 ;; Auto vars:     Size  Location     Type
  3963 ;;		None
  3964 ;; Return value:  Size  Location     Type
  3965 ;;                  1    wreg      void 
  3966 ;; Registers used:
  3967 ;;		wreg, status,2, status,0
  3968 ;; Tracked objects:
  3969 ;;		On entry : 0/0
  3970 ;;		On exit  : 0/0
  3971 ;;		Unchanged: 0/0
  3972 ;; Data sizes:     COMRAM   BANK0   BANK1   BANK2   BANK3   BANK4   BANK5   BANK6   BANK7   BANK8   BANK9  BANK10  BANK1
      +1  BANK12  BANK14
  3973 ;;      Params:         3       0       0       0       0       0       0       0       0       0       0       0       
      +0       0       0
  3974 ;;      Locals:         0       0       0       0       0       0       0       0       0       0       0       0       
      +0       0       0
  3975 ;;      Temps:          0       0       0       0       0       0       0       0       0       0       0       0       
      +0       0       0
  3976 ;;      Totals:         3       0       0       0       0       0       0       0       0       0       0       0       
      +0       0       0
  3977 ;;Total ram usage:        3 bytes
  3978 ;; Hardware stack levels used: 1
  3979 ;; Hardware stack levels required when called: 7
  3980 ;; This function calls:
  3981 ;;		Nothing
  3982 ;; This function is called by:
  3983 ;;		_EUSART2_Initialize
  3984 ;; This function uses a non-reentrant model
  3985 ;;
  3986                           
  3987                           	psect	text24
  3988  00287C                     __ptext24:
  3989                           	callstack 0
  3990  00287C                     _EUSART2_SetFramingErrorHandler:
  3991                           	callstack 21
  3992  00287C                     
  3993                           ;mcc_generated_files/eusart2.c: 274:     EUSART2_FramingErrorHandler = interruptHandler;
  3994  00287C  C01A  F0F7         	movff	EUSART2_SetFramingErrorHandler@interruptHandler,_EUSART2_FramingErrorHandler
  3995  002880  C01B  F0F8         	movff	EUSART2_SetFramingErrorHandler@interruptHandler+1,_EUSART2_FramingErrorHandler+1
  3996  002884  C01C  F0F9         	movff	EUSART2_SetFramingErrorHandler@interruptHandler+2,_EUSART2_FramingErrorHandler+2
  3997  002888  0012               	return		;funcret
  3998  00288A                     __end_of_EUSART2_SetFramingErrorHandler:
  3999                           	callstack 0
  4000                           
  4001 ;; *************** function _EUSART2_SetErrorHandler *****************
  4002 ;; Defined at:
  4003 ;;		line 281 in file "mcc_generated_files/eusart2.c"
  4004 ;; Parameters:    Size  Location     Type
  4005 ;;  interruptHan    3   25[COMRAM] PTR FTN()void 
  4006 ;;		 -> EUSART2_DefaultErrorHandler(1), 
  4007 ;; Auto vars:     Size  Location     Type
  4008 ;;		None
  4009 ;; Return value:  Size  Location     Type
  4010 ;;                  1    wreg      void 
  4011 ;; Registers used:
  4012 ;;		wreg, status,2, status,0
  4013 ;; Tracked objects:
  4014 ;;		On entry : 0/0
  4015 ;;		On exit  : 0/0
  4016 ;;		Unchanged: 0/0
  4017 ;; Data sizes:     COMRAM   BANK0   BANK1   BANK2   BANK3   BANK4   BANK5   BANK6   BANK7   BANK8   BANK9  BANK10  BANK1
      +1  BANK12  BANK14
  4018 ;;      Params:         3       0       0       0       0       0       0       0       0       0       0       0       
      +0       0       0
  4019 ;;      Locals:         0       0       0       0       0       0       0       0       0       0       0       0       
      +0       0       0
  4020 ;;      Temps:          0       0       0       0       0       0       0       0       0       0       0       0       
      +0       0       0
  4021 ;;      Totals:         3       0       0       0       0       0       0       0       0       0       0       0       
      +0       0       0
  4022 ;;Total ram usage:        3 bytes
  4023 ;; Hardware stack levels used: 1
  4024 ;; Hardware stack levels required when called: 7
  4025 ;; This function calls:
  4026 ;;		Nothing
  4027 ;; This function is called by:
  4028 ;;		_EUSART2_Initialize
  4029 ;; This function uses a non-reentrant model
  4030 ;;
  4031                           
  4032                           	psect	text25
  4033  00288A                     __ptext25:
  4034                           	callstack 0
  4035  00288A                     _EUSART2_SetErrorHandler:
  4036                           	callstack 21
  4037  00288A                     
  4038                           ;mcc_generated_files/eusart2.c: 282:     EUSART2_ErrorHandler = interruptHandler;
  4039  00288A  C01A  F0F1         	movff	EUSART2_SetErrorHandler@interruptHandler,_EUSART2_ErrorHandler
  4040  00288E  C01B  F0F2         	movff	EUSART2_SetErrorHandler@interruptHandler+1,_EUSART2_ErrorHandler+1
  4041  002892  C01C  F0F3         	movff	EUSART2_SetErrorHandler@interruptHandler+2,_EUSART2_ErrorHandler+2
  4042  002896  0012               	return		;funcret
  4043  002898                     __end_of_EUSART2_SetErrorHandler:
  4044                           	callstack 0
  4045                           
  4046 ;; *************** function _FRAM_WriteNBytes *****************
  4047 ;; Defined at:
  4048 ;;		line 36 in file "MB85RC256V.c"
  4049 ;; Parameters:    Size  Location     Type
  4050 ;;  startAddr       2   37[COMRAM] unsigned short 
  4051 ;;  data            2   39[COMRAM] PTR unsigned char 
  4052 ;;		 -> main@framDataArray(256), 
  4053 ;;  len             2   41[COMRAM] unsigned int 
  4054 ;; Auto vars:     Size  Location     Type
  4055 ;;		None
  4056 ;; Return value:  Size  Location     Type
  4057 ;;                  1    wreg      void 
  4058 ;; Registers used:
  4059 ;;		wreg, fsr2l, fsr2h, status,2, status,0, prodl, prodh, cstack
  4060 ;; Tracked objects:
  4061 ;;		On entry : 0/0
  4062 ;;		On exit  : 0/0
  4063 ;;		Unchanged: 0/0
  4064 ;; Data sizes:     COMRAM   BANK0   BANK1   BANK2   BANK3   BANK4   BANK5   BANK6   BANK7   BANK8   BANK9  BANK10  BANK1
      +1  BANK12  BANK14
  4065 ;;      Params:         6       0       0       0       0       0       0       0       0       0       0       0       
      +0       0       0
  4066 ;;      Locals:         0       0       0       0       0       0       0       0       0       0       0       0       
      +0       0       0
  4067 ;;      Temps:          2       0       0       0       0       0       0       0       0       0       0       0       
      +0       0       0
  4068 ;;      Totals:         8       0       0       0       0       0       0       0       0       0       0       0       
      +0       0       0
  4069 ;;Total ram usage:        8 bytes
  4070 ;; Hardware stack levels used: 1
  4071 ;; Hardware stack levels required when called: 10
  4072 ;; This function calls:
  4073 ;;		_I2C1_Close
  4074 ;;		_I2C1_MasterWrite
  4075 ;;		_I2C1_Open
  4076 ;;		_I2C1_SetAddressNackCallback
  4077 ;;		_I2C1_SetBuffer
  4078 ;;		_memcpy
  4079 ;;		_memset
  4080 ;; This function is called by:
  4081 ;;		_main
  4082 ;; This function uses a non-reentrant model
  4083 ;;
  4084                           
  4085                           	psect	text26
  4086  001C9C                     __ptext26:
  4087                           	callstack 0
  4088  001C9C                     _FRAM_WriteNBytes:
  4089                           	callstack 20
  4090  001C9C                     
  4091                           ;MB85RC256V.c: 36: void FRAM_WriteNBytes(uint16_t startAddr, uint8_t* data, size_t len);
      +                          MB85RC256V.c: 37: {;MB85RC256V.c: 38:     memset(seqWriteBuffer, 0, sizeof(seqWriteBuffe
      +                          r));
  4092  001C9C  0E00               	movlw	low _seqWriteBuffer
  4093  001C9E  6E1A               	movwf	memset@dest^0,c
  4094  001CA0  0E05               	movlw	high _seqWriteBuffer
  4095  001CA2  6E1B               	movwf	(memset@dest+1)^0,c
  4096  001CA4  0E00               	movlw	0
  4097  001CA6  6E1D               	movwf	(memset@c+1)^0,c
  4098  001CA8  0E00               	movlw	0
  4099  001CAA  6E1C               	movwf	memset@c^0,c
  4100  001CAC  0E01               	movlw	1
  4101  001CAE  6E1F               	movwf	(memset@n+1)^0,c
  4102  001CB0  0E02               	movlw	2
  4103  001CB2  6E1E               	movwf	memset@n^0,c
  4104  001CB4  ECD7  F00A         	call	_memset	;wreg free
  4105  001CB8                     
  4106                           ;MB85RC256V.c: 40:     seqWriteBuffer[0] = (startAddr >> 8);
  4107  001CB8  C026  F02C         	movff	FRAM_WriteNBytes@startAddr,??_FRAM_WriteNBytes
  4108  001CBC  C027  F02D         	movff	FRAM_WriteNBytes@startAddr+1,??_FRAM_WriteNBytes+1
  4109  001CC0  C02D  F02C         	movff	??_FRAM_WriteNBytes+1,??_FRAM_WriteNBytes
  4110  001CC4  6A2D               	clrf	(??_FRAM_WriteNBytes+1)^0,c
  4111  001CC6  C02C  F500         	movff	??_FRAM_WriteNBytes,_seqWriteBuffer
  4112  001CCA                     
  4113                           ;MB85RC256V.c: 41:     seqWriteBuffer[1] = startAddr & 0xFF;
  4114  001CCA  EE25  F001         	lfsr	2,_seqWriteBuffer+1
  4115  001CCE  C026  FFDF         	movff	FRAM_WriteNBytes@startAddr,indf2
  4116  001CD2                     
  4117                           ;MB85RC256V.c: 43:     memcpy(seqWriteBuffer + 2, data, len);
  4118  001CD2  0E02               	movlw	low (_seqWriteBuffer+2)
  4119  001CD4  6E1A               	movwf	memcpy@d1^0,c
  4120  001CD6  0E05               	movlw	high (_seqWriteBuffer+2)
  4121  001CD8  6E1B               	movwf	(memcpy@d1+1)^0,c
  4122  001CDA  C028  F01C         	movff	FRAM_WriteNBytes@data,memcpy@s1
  4123  001CDE  C029  F01D         	movff	FRAM_WriteNBytes@data+1,memcpy@s1+1
  4124  001CE2  C02A  F01E         	movff	FRAM_WriteNBytes@len,memcpy@n
  4125  001CE6  C02B  F01F         	movff	FRAM_WriteNBytes@len+1,memcpy@n+1
  4126  001CEA  ECD3  F011         	call	_memcpy	;wreg free
  4127  001CEE                     l5089:
  4128  001CEE  0E50               	movlw	80
  4129  001CF0  ECF3  F00D         	call	_I2C1_Open
  4130  001CF4  0900               	iorlw	0
  4131  001CF6  B4D8               	btfsc	status,2,c
  4132  001CF8  EF80  F00E         	goto	u3071
  4133  001CFC  EF82  F00E         	goto	u3070
  4134  001D00                     u3071:
  4135  001D00  EF77  F00E         	goto	l5089
  4136  001D04                     u3070:
  4137  001D04                     
  4138                           ;MB85RC256V.c: 46:     I2C1_SetBuffer(seqWriteBuffer, len + 2);
  4139  001D04  0E00               	movlw	low _seqWriteBuffer
  4140  001D06  6E1A               	movwf	I2C1_SetBuffer@buffer^0,c
  4141  001D08  0E05               	movlw	high _seqWriteBuffer
  4142  001D0A  6E1B               	movwf	(I2C1_SetBuffer@buffer+1)^0,c
  4143  001D0C  0E02               	movlw	2
  4144  001D0E  242A               	addwf	FRAM_WriteNBytes@len^0,w,c
  4145  001D10  6E1C               	movwf	I2C1_SetBuffer@bufferSize^0,c
  4146  001D12  0E00               	movlw	0
  4147  001D14  202B               	addwfc	(FRAM_WriteNBytes@len+1)^0,w,c
  4148  001D16  6E1D               	movwf	(I2C1_SetBuffer@bufferSize+1)^0,c
  4149  001D18  EC7F  F013         	call	_I2C1_SetBuffer	;wreg free
  4150  001D1C                     
  4151                           ;MB85RC256V.c: 47:     I2C1_SetAddressNackCallback(((void*)0), ((void*)0));
  4152  001D1C  0E00               	movlw	0
  4153  001D1E  6E20               	movwf	I2C1_SetAddressNackCallback@cb^0,c
  4154  001D20  0E00               	movlw	0
  4155  001D22  6E21               	movwf	(I2C1_SetAddressNackCallback@cb+1)^0,c
  4156  001D24  0E00               	movlw	0
  4157  001D26  6E22               	movwf	(I2C1_SetAddressNackCallback@cb+2)^0,c
  4158  001D28  0E00               	movlw	0
  4159  001D2A  6E23               	movwf	I2C1_SetAddressNackCallback@ptr^0,c
  4160  001D2C  0E00               	movlw	0
  4161  001D2E  6E24               	movwf	(I2C1_SetAddressNackCallback@ptr+1)^0,c
  4162  001D30  ECD0  F013         	call	_I2C1_SetAddressNackCallback	;wreg free
  4163  001D34                     
  4164                           ;MB85RC256V.c: 48:     I2C1_MasterWrite();
  4165  001D34  EC6A  F014         	call	_I2C1_MasterWrite	;wreg free
  4166  001D38                     l5097:
  4167  001D38  EC3F  F013         	call	_I2C1_Close	;wreg free
  4168  001D3C  06E8               	decf	wreg,f,c
  4169  001D3E  B4D8               	btfsc	status,2,c
  4170  001D40  EFA4  F00E         	goto	u3081
  4171  001D44  EFA6  F00E         	goto	u3080
  4172  001D48                     u3081:
  4173  001D48  EF9C  F00E         	goto	l5097
  4174  001D4C                     u3080:
  4175  001D4C  0012               	return		;funcret
  4176  001D4E                     __end_of_FRAM_WriteNBytes:
  4177                           	callstack 0
  4178                           
  4179 ;; *************** function _memset *****************
  4180 ;; Defined at:
  4181 ;;		line 4 in file "C:\Program Files\Microchip\xc8\v2.36\pic\sources\c99\common\memset.c"
  4182 ;; Parameters:    Size  Location     Type
  4183 ;;  dest            2   25[COMRAM] PTR void 
  4184 ;;		 -> seqWriteBuffer(258), main@framDataArray(256), 
  4185 ;;  c               2   27[COMRAM] int 
  4186 ;;  n               2   29[COMRAM] unsigned int 
  4187 ;; Auto vars:     Size  Location     Type
  4188 ;;  s               2   35[COMRAM] PTR unsigned char 
  4189 ;;		 -> seqWriteBuffer(258), main@framDataArray(256), 
  4190 ;;  k               2   33[COMRAM] unsigned int 
  4191 ;; Return value:  Size  Location     Type
  4192 ;;                  2   25[COMRAM] PTR void 
  4193 ;; Registers used:
  4194 ;;		wreg, fsr2l, fsr2h, status,2, status,0
  4195 ;; Tracked objects:
  4196 ;;		On entry : 0/0
  4197 ;;		On exit  : 0/0
  4198 ;;		Unchanged: 0/0
  4199 ;; Data sizes:     COMRAM   BANK0   BANK1   BANK2   BANK3   BANK4   BANK5   BANK6   BANK7   BANK8   BANK9  BANK10  BANK1
      +1  BANK12  BANK14
  4200 ;;      Params:         6       0       0       0       0       0       0       0       0       0       0       0       
      +0       0       0
  4201 ;;      Locals:         4       0       0       0       0       0       0       0       0       0       0       0       
      +0       0       0
  4202 ;;      Temps:          2       0       0       0       0       0       0       0       0       0       0       0       
      +0       0       0
  4203 ;;      Totals:        12       0       0       0       0       0       0       0       0       0       0       0       
      +0       0       0
  4204 ;;Total ram usage:       12 bytes
  4205 ;; Hardware stack levels used: 1
  4206 ;; Hardware stack levels required when called: 7
  4207 ;; This function calls:
  4208 ;;		Nothing
  4209 ;; This function is called by:
  4210 ;;		_main
  4211 ;;		_FRAM_WriteNBytes
  4212 ;; This function uses a non-reentrant model
  4213 ;;
  4214                           
  4215                           	psect	text27
  4216  0015AE                     __ptext27:
  4217                           	callstack 0
  4218  0015AE                     _memset:
  4219                           	callstack 23
  4220  0015AE  C01A  F024         	movff	memset@dest,memset@s
  4221  0015B2  C01B  F025         	movff	memset@dest+1,memset@s+1
  4222  0015B6  501E               	movf	memset@n^0,w,c
  4223  0015B8  101F               	iorwf	(memset@n+1)^0,w,c
  4224  0015BA  A4D8               	btfss	status,2,c
  4225  0015BC  EFE2  F00A         	goto	u3011
  4226  0015C0  EFE4  F00A         	goto	u3010
  4227  0015C4                     u3011:
  4228  0015C4  EFE6  F00A         	goto	l5021
  4229  0015C8                     u3010:
  4230  0015C8  EF91  F00B         	goto	l1589
  4231  0015CC                     l5021:
  4232  0015CC  C024  FFD9         	movff	memset@s,fsr2l
  4233  0015D0  C025  FFDA         	movff	memset@s+1,fsr2h
  4234  0015D4  C01C  FFDF         	movff	memset@c,indf2
  4235  0015D8  501E               	movf	memset@n^0,w,c
  4236  0015DA  2424               	addwf	memset@s^0,w,c
  4237  0015DC  6E20               	movwf	??_memset^0,c
  4238  0015DE  501F               	movf	(memset@n+1)^0,w,c
  4239  0015E0  2025               	addwfc	(memset@s+1)^0,w,c
  4240  0015E2  6E21               	movwf	(??_memset+1)^0,c
  4241  0015E4  0EFF               	movlw	255
  4242  0015E6  2420               	addwf	??_memset^0,w,c
  4243  0015E8  6ED9               	movwf	fsr2l,c
  4244  0015EA  0EFF               	movlw	255
  4245  0015EC  2021               	addwfc	(??_memset+1)^0,w,c
  4246  0015EE  6EDA               	movwf	fsr2h,c
  4247  0015F0  C01C  FFDF         	movff	memset@c,indf2
  4248  0015F4  501F               	movf	(memset@n+1)^0,w,c
  4249  0015F6  E107               	bnz	u3021
  4250  0015F8  0E03               	movlw	3
  4251  0015FA  5C1E               	subwf	memset@n^0,w,c
  4252  0015FC  B0D8               	btfsc	status,0,c
  4253  0015FE  EF03  F00B         	goto	u3021
  4254  001602  EF05  F00B         	goto	u3020
  4255  001606                     u3021:
  4256  001606  EF07  F00B         	goto	l5027
  4257  00160A                     u3020:
  4258  00160A  EF91  F00B         	goto	l1589
  4259  00160E                     l5027:
  4260  00160E  EE20 F001          	lfsr	2,1
  4261  001612  5024               	movf	memset@s^0,w,c
  4262  001614  26D9               	addwf	fsr2l,f,c
  4263  001616  5025               	movf	(memset@s+1)^0,w,c
  4264  001618  22DA               	addwfc	fsr2h,f,c
  4265  00161A  C01C  FFDF         	movff	memset@c,indf2
  4266  00161E  EE20 F002          	lfsr	2,2
  4267  001622  5024               	movf	memset@s^0,w,c
  4268  001624  26D9               	addwf	fsr2l,f,c
  4269  001626  5025               	movf	(memset@s+1)^0,w,c
  4270  001628  22DA               	addwfc	fsr2h,f,c
  4271  00162A  C01C  FFDF         	movff	memset@c,indf2
  4272  00162E  501E               	movf	memset@n^0,w,c
  4273  001630  2424               	addwf	memset@s^0,w,c
  4274  001632  6E20               	movwf	??_memset^0,c
  4275  001634  501F               	movf	(memset@n+1)^0,w,c
  4276  001636  2025               	addwfc	(memset@s+1)^0,w,c
  4277  001638  6E21               	movwf	(??_memset+1)^0,c
  4278  00163A  0EFE               	movlw	254
  4279  00163C  2420               	addwf	??_memset^0,w,c
  4280  00163E  6ED9               	movwf	fsr2l,c
  4281  001640  0EFF               	movlw	255
  4282  001642  2021               	addwfc	(??_memset+1)^0,w,c
  4283  001644  6EDA               	movwf	fsr2h,c
  4284  001646  C01C  FFDF         	movff	memset@c,indf2
  4285  00164A  501E               	movf	memset@n^0,w,c
  4286  00164C  2424               	addwf	memset@s^0,w,c
  4287  00164E  6E20               	movwf	??_memset^0,c
  4288  001650  501F               	movf	(memset@n+1)^0,w,c
  4289  001652  2025               	addwfc	(memset@s+1)^0,w,c
  4290  001654  6E21               	movwf	(??_memset+1)^0,c
  4291  001656  0EFD               	movlw	253
  4292  001658  2420               	addwf	??_memset^0,w,c
  4293  00165A  6ED9               	movwf	fsr2l,c
  4294  00165C  0EFF               	movlw	255
  4295  00165E  2021               	addwfc	(??_memset+1)^0,w,c
  4296  001660  6EDA               	movwf	fsr2h,c
  4297  001662  C01C  FFDF         	movff	memset@c,indf2
  4298  001666  501F               	movf	(memset@n+1)^0,w,c
  4299  001668  E107               	bnz	u3031
  4300  00166A  0E07               	movlw	7
  4301  00166C  5C1E               	subwf	memset@n^0,w,c
  4302  00166E  B0D8               	btfsc	status,0,c
  4303  001670  EF3C  F00B         	goto	u3031
  4304  001674  EF3E  F00B         	goto	u3030
  4305  001678                     u3031:
  4306  001678  EF40  F00B         	goto	l5033
  4307  00167C                     u3030:
  4308  00167C  EF91  F00B         	goto	l1589
  4309  001680                     l5033:
  4310  001680  EE20 F003          	lfsr	2,3
  4311  001684  5024               	movf	memset@s^0,w,c
  4312  001686  26D9               	addwf	fsr2l,f,c
  4313  001688  5025               	movf	(memset@s+1)^0,w,c
  4314  00168A  22DA               	addwfc	fsr2h,f,c
  4315  00168C  C01C  FFDF         	movff	memset@c,indf2
  4316  001690  501E               	movf	memset@n^0,w,c
  4317  001692  2424               	addwf	memset@s^0,w,c
  4318  001694  6E20               	movwf	??_memset^0,c
  4319  001696  501F               	movf	(memset@n+1)^0,w,c
  4320  001698  2025               	addwfc	(memset@s+1)^0,w,c
  4321  00169A  6E21               	movwf	(??_memset+1)^0,c
  4322  00169C  0EFC               	movlw	252
  4323  00169E  2420               	addwf	??_memset^0,w,c
  4324  0016A0  6ED9               	movwf	fsr2l,c
  4325  0016A2  0EFF               	movlw	255
  4326  0016A4  2021               	addwfc	(??_memset+1)^0,w,c
  4327  0016A6  6EDA               	movwf	fsr2h,c
  4328  0016A8  C01C  FFDF         	movff	memset@c,indf2
  4329  0016AC  501F               	movf	(memset@n+1)^0,w,c
  4330  0016AE  E107               	bnz	u3041
  4331  0016B0  0E09               	movlw	9
  4332  0016B2  5C1E               	subwf	memset@n^0,w,c
  4333  0016B4  B0D8               	btfsc	status,0,c
  4334  0016B6  EF5F  F00B         	goto	u3041
  4335  0016BA  EF61  F00B         	goto	u3040
  4336  0016BE                     u3041:
  4337  0016BE  EF63  F00B         	goto	l5039
  4338  0016C2                     u3040:
  4339  0016C2  EF91  F00B         	goto	l1589
  4340  0016C6                     l5039:
  4341  0016C6  C024  F020         	movff	memset@s,??_memset
  4342  0016CA  C025  F021         	movff	memset@s+1,??_memset+1
  4343  0016CE  1E20               	comf	??_memset^0,f,c
  4344  0016D0  1E21               	comf	(??_memset+1)^0,f,c
  4345  0016D2  4A20               	infsnz	??_memset^0,f,c
  4346  0016D4  2A21               	incf	(??_memset+1)^0,f,c
  4347  0016D6  0E03               	movlw	3
  4348  0016D8  1420               	andwf	??_memset^0,w,c
  4349  0016DA  6E22               	movwf	memset@k^0,c
  4350  0016DC  6A23               	clrf	(memset@k+1)^0,c
  4351  0016DE  5022               	movf	memset@k^0,w,c
  4352  0016E0  2624               	addwf	memset@s^0,f,c
  4353  0016E2  5023               	movf	(memset@k+1)^0,w,c
  4354  0016E4  2225               	addwfc	(memset@s+1)^0,f,c
  4355  0016E6  5022               	movf	memset@k^0,w,c
  4356  0016E8  5E1E               	subwf	memset@n^0,f,c
  4357  0016EA  5023               	movf	(memset@k+1)^0,w,c
  4358  0016EC  5A1F               	subwfb	(memset@n+1)^0,f,c
  4359  0016EE  0EFC               	movlw	252
  4360  0016F0  161E               	andwf	memset@n^0,f,c
  4361  0016F2  0EFF               	movlw	255
  4362  0016F4  161F               	andwf	(memset@n+1)^0,f,c
  4363  0016F6  EF88  F00B         	goto	l5047
  4364  0016FA                     l5041:
  4365  0016FA  C024  FFD9         	movff	memset@s,fsr2l
  4366  0016FE  C025  FFDA         	movff	memset@s+1,fsr2h
  4367  001702  C01C  FFDF         	movff	memset@c,indf2
  4368  001706  061E               	decf	memset@n^0,f,c
  4369  001708  A0D8               	btfss	status,0,c
  4370  00170A  061F               	decf	(memset@n+1)^0,f,c
  4371  00170C  4A24               	infsnz	memset@s^0,f,c
  4372  00170E  2A25               	incf	(memset@s+1)^0,f,c
  4373  001710                     l5047:
  4374  001710  501E               	movf	memset@n^0,w,c
  4375  001712  101F               	iorwf	(memset@n+1)^0,w,c
  4376  001714  A4D8               	btfss	status,2,c
  4377  001716  EF8F  F00B         	goto	u3051
  4378  00171A  EF91  F00B         	goto	u3050
  4379  00171E                     u3051:
  4380  00171E  EF7D  F00B         	goto	l5041
  4381  001722                     u3050:
  4382  001722                     l1589:
  4383  001722  0012               	return		;funcret
  4384  001724                     __end_of_memset:
  4385                           	callstack 0
  4386                           
  4387 ;; *************** function _memcpy *****************
  4388 ;; Defined at:
  4389 ;;		line 4 in file "C:\Program Files\Microchip\xc8\v2.36\pic\sources\c99\common\memcpy.c"
  4390 ;; Parameters:    Size  Location     Type
  4391 ;;  d1              2   25[COMRAM] PTR void 
  4392 ;;		 -> __heap_hi(0), RAM(3614), seqWriteBuffer(258), NULL(0), 
  4393 ;;  s1              2   27[COMRAM] PTR const void 
  4394 ;;		 -> main@framDataArray(256), 
  4395 ;;  n               2   29[COMRAM] unsigned int 
  4396 ;; Auto vars:     Size  Location     Type
  4397 ;;  s               2   34[COMRAM] PTR const unsigned char 
  4398 ;;		 -> main@framDataArray(256), 
  4399 ;;  d               2   32[COMRAM] PTR unsigned char 
  4400 ;;		 -> __heap_hi(0), RAM(3614), seqWriteBuffer(258), NULL(0), 
  4401 ;;  tmp             1   31[COMRAM] unsigned char 
  4402 ;; Return value:  Size  Location     Type
  4403 ;;                  2   25[COMRAM] PTR void 
  4404 ;; Registers used:
  4405 ;;		wreg, fsr2l, fsr2h, status,2, status,0
  4406 ;; Tracked objects:
  4407 ;;		On entry : 0/0
  4408 ;;		On exit  : 0/0
  4409 ;;		Unchanged: 0/0
  4410 ;; Data sizes:     COMRAM   BANK0   BANK1   BANK2   BANK3   BANK4   BANK5   BANK6   BANK7   BANK8   BANK9  BANK10  BANK1
      +1  BANK12  BANK14
  4411 ;;      Params:         6       0       0       0       0       0       0       0       0       0       0       0       
      +0       0       0
  4412 ;;      Locals:         5       0       0       0       0       0       0       0       0       0       0       0       
      +0       0       0
  4413 ;;      Temps:          0       0       0       0       0       0       0       0       0       0       0       0       
      +0       0       0
  4414 ;;      Totals:        11       0       0       0       0       0       0       0       0       0       0       0       
      +0       0       0
  4415 ;;Total ram usage:       11 bytes
  4416 ;; Hardware stack levels used: 1
  4417 ;; Hardware stack levels required when called: 7
  4418 ;; This function calls:
  4419 ;;		Nothing
  4420 ;; This function is called by:
  4421 ;;		_FRAM_WriteNBytes
  4422 ;;		_I2C1_WriteNBytes
  4423 ;; This function uses a non-reentrant model
  4424 ;;
  4425                           
  4426                           	psect	text28
  4427  0023A6                     __ptext28:
  4428                           	callstack 0
  4429  0023A6                     _memcpy:
  4430                           	callstack 22
  4431  0023A6  C01C  F023         	movff	memcpy@s1,memcpy@s
  4432  0023AA  C01D  F024         	movff	memcpy@s1+1,memcpy@s+1
  4433  0023AE  C01A  F021         	movff	memcpy@d1,memcpy@d
  4434  0023B2  C01B  F022         	movff	memcpy@d1+1,memcpy@d+1
  4435  0023B6  EFED  F011         	goto	l4859
  4436  0023BA                     l4851:
  4437  0023BA  C023  FFD9         	movff	memcpy@s,fsr2l
  4438  0023BE  C024  FFDA         	movff	memcpy@s+1,fsr2h
  4439  0023C2  50DF               	movf	indf2,w,c
  4440  0023C4  6E20               	movwf	memcpy@tmp^0,c
  4441  0023C6  4A23               	infsnz	memcpy@s^0,f,c
  4442  0023C8  2A24               	incf	(memcpy@s+1)^0,f,c
  4443  0023CA  C021  FFD9         	movff	memcpy@d,fsr2l
  4444  0023CE  C022  FFDA         	movff	memcpy@d+1,fsr2h
  4445  0023D2  C020  FFDF         	movff	memcpy@tmp,indf2
  4446  0023D6  4A21               	infsnz	memcpy@d^0,f,c
  4447  0023D8  2A22               	incf	(memcpy@d+1)^0,f,c
  4448  0023DA                     l4859:
  4449  0023DA  061E               	decf	memcpy@n^0,f,c
  4450  0023DC  A0D8               	btfss	status,0,c
  4451  0023DE  061F               	decf	(memcpy@n+1)^0,f,c
  4452  0023E0  281E               	incf	memcpy@n^0,w,c
  4453  0023E2  E106               	bnz	u2941
  4454  0023E4  281F               	incf	(memcpy@n+1)^0,w,c
  4455  0023E6  A4D8               	btfss	status,2,c
  4456  0023E8  EFF8  F011         	goto	u2941
  4457  0023EC  EFFA  F011         	goto	u2940
  4458  0023F0                     u2941:
  4459  0023F0  EFDD  F011         	goto	l4851
  4460  0023F4                     u2940:
  4461  0023F4  0012               	return		;funcret
  4462  0023F6                     __end_of_memcpy:
  4463                           	callstack 0
  4464                           
  4465 ;; *************** function _FRAM_ReadNBytes *****************
  4466 ;; Defined at:
  4467 ;;		line 87 in file "MB85RC256V.c"
  4468 ;; Parameters:    Size  Location     Type
  4469 ;;  startAddr       2   36[COMRAM] unsigned short 
  4470 ;;  receiveBuffe    2   38[COMRAM] PTR unsigned char 
  4471 ;;		 -> main@framDataArray(256), 
  4472 ;;  numBytes        2   40[COMRAM] unsigned int 
  4473 ;; Auto vars:     Size  Location     Type
  4474 ;;  bufferBlock     4    2[BANK0 ] struct .
  4475 ;;  msgHdr          2    0[BANK0 ] unsigned char [2]
  4476 ;; Return value:  Size  Location     Type
  4477 ;;                  1    wreg      void 
  4478 ;; Registers used:
  4479 ;;		wreg, fsr2l, fsr2h, status,2, status,0, prodl, prodh, cstack
  4480 ;; Tracked objects:
  4481 ;;		On entry : 0/0
  4482 ;;		On exit  : 0/0
  4483 ;;		Unchanged: 0/0
  4484 ;; Data sizes:     COMRAM   BANK0   BANK1   BANK2   BANK3   BANK4   BANK5   BANK6   BANK7   BANK8   BANK9  BANK10  BANK1
      +1  BANK12  BANK14
  4485 ;;      Params:         6       0       0       0       0       0       0       0       0       0       0       0       
      +0       0       0
  4486 ;;      Locals:         0       6       0       0       0       0       0       0       0       0       0       0       
      +0       0       0
  4487 ;;      Temps:          0       0       0       0       0       0       0       0       0       0       0       0       
      +0       0       0
  4488 ;;      Totals:         6       6       0       0       0       0       0       0       0       0       0       0       
      +0       0       0
  4489 ;;Total ram usage:       12 bytes
  4490 ;; Hardware stack levels used: 1
  4491 ;; Hardware stack levels required when called: 10
  4492 ;; This function calls:
  4493 ;;		_I2C1_Close
  4494 ;;		_I2C1_MasterWrite
  4495 ;;		_I2C1_Open
  4496 ;;		_I2C1_SetAddressNackCallback
  4497 ;;		_I2C1_SetBuffer
  4498 ;;		_I2C1_SetDataCompleteCallback
  4499 ;; This function is called by:
  4500 ;;		_main
  4501 ;; This function uses a non-reentrant model
  4502 ;;
  4503                           
  4504                           	psect	text29
  4505  001F1C                     __ptext29:
  4506                           	callstack 0
  4507  001F1C                     _FRAM_ReadNBytes:
  4508                           	callstack 20
  4509  001F1C                     
  4510                           ;MB85RC256V.c: 87: void FRAM_ReadNBytes(uint16_t startAddr, uint8_t *receiveBuffer, size
      +                          _t numBytes);MB85RC256V.c: 88: {;MB85RC256V.c: 89:     i2c1_buffer_t bufferBlock;;MB85RC
      +                          256V.c: 90:     bufferBlock.data = receiveBuffer;
  4511  001F1C  C027  F0AE         	movff	FRAM_ReadNBytes@receiveBuffer,FRAM_ReadNBytes@bufferBlock+2
  4512  001F20  C028  F0AF         	movff	FRAM_ReadNBytes@receiveBuffer+1,FRAM_ReadNBytes@bufferBlock+3
  4513  001F24                     
  4514                           ;MB85RC256V.c: 91:     bufferBlock.len = numBytes;
  4515  001F24  C029  F0AC         	movff	FRAM_ReadNBytes@numBytes,FRAM_ReadNBytes@bufferBlock
  4516  001F28  C02A  F0AD         	movff	FRAM_ReadNBytes@numBytes+1,FRAM_ReadNBytes@bufferBlock+1
  4517  001F2C                     l5103:
  4518  001F2C  0E50               	movlw	80
  4519  001F2E  ECF3  F00D         	call	_I2C1_Open
  4520  001F32  0900               	iorlw	0
  4521  001F34  B4D8               	btfsc	status,2,c
  4522  001F36  EF9F  F00F         	goto	u3091
  4523  001F3A  EFA1  F00F         	goto	u3090
  4524  001F3E                     u3091:
  4525  001F3E  EF96  F00F         	goto	l5103
  4526  001F42                     u3090:
  4527  001F42                     
  4528                           ;MB85RC256V.c: 96:     uint8_t msgHdr[2];;MB85RC256V.c: 97:     msgHdr[0] = (startAddr >
      +                          > 8);
  4529  001F42  5026               	movf	(FRAM_ReadNBytes@startAddr+1)^0,w,c
  4530  001F44  0100               	movlb	0	; () banked
  4531  001F46  6FAA               	movwf	FRAM_ReadNBytes@msgHdr& (0+255),b
  4532  001F48                     
  4533                           ; BSR set to: 0
  4534                           ;MB85RC256V.c: 98:     msgHdr[1] = startAddr & 0xFF;
  4535  001F48  C025  F0AB         	movff	FRAM_ReadNBytes@startAddr,FRAM_ReadNBytes@msgHdr+1
  4536  001F4C                     
  4537                           ; BSR set to: 0
  4538                           ;MB85RC256V.c: 100:     I2C1_SetDataCompleteCallback(rdBlkRegCompleteHandler, &bufferBlo
      +                          ck);
  4539  001F4C  0E3A               	movlw	low _rdBlkRegCompleteHandler@MB85RC256V$F1619
  4540  001F4E  6E20               	movwf	I2C1_SetDataCompleteCallback@cb^0,c
  4541  001F50  0E24               	movlw	high _rdBlkRegCompleteHandler@MB85RC256V$F1619
  4542  001F52  6E21               	movwf	(I2C1_SetDataCompleteCallback@cb+1)^0,c
  4543  001F54  0E00               	movlw	low (_rdBlkRegCompleteHandler@MB85RC256V$F1619 shr (0+16))
  4544  001F56  6E22               	movwf	(I2C1_SetDataCompleteCallback@cb+2)^0,c
  4545  001F58  0EAC               	movlw	low FRAM_ReadNBytes@bufferBlock
  4546  001F5A  6E23               	movwf	I2C1_SetDataCompleteCallback@ptr^0,c
  4547  001F5C  0E00               	movlw	high FRAM_ReadNBytes@bufferBlock
  4548  001F5E  6E24               	movwf	(I2C1_SetDataCompleteCallback@ptr+1)^0,c
  4549  001F60  ECC2  F013         	call	_I2C1_SetDataCompleteCallback	;wreg free
  4550  001F64                     
  4551                           ;MB85RC256V.c: 101:     I2C1_SetBuffer(msgHdr, 2);
  4552  001F64  0EAA               	movlw	low FRAM_ReadNBytes@msgHdr
  4553  001F66  6E1A               	movwf	I2C1_SetBuffer@buffer^0,c
  4554  001F68  0E00               	movlw	high FRAM_ReadNBytes@msgHdr
  4555  001F6A  6E1B               	movwf	(I2C1_SetBuffer@buffer+1)^0,c
  4556  001F6C  0E00               	movlw	0
  4557  001F6E  6E1D               	movwf	(I2C1_SetBuffer@bufferSize+1)^0,c
  4558  001F70  0E02               	movlw	2
  4559  001F72  6E1C               	movwf	I2C1_SetBuffer@bufferSize^0,c
  4560  001F74  EC7F  F013         	call	_I2C1_SetBuffer	;wreg free
  4561  001F78                     
  4562                           ;MB85RC256V.c: 102:     I2C1_SetAddressNackCallback(((void*)0), ((void*)0));
  4563  001F78  0E00               	movlw	0
  4564  001F7A  6E20               	movwf	I2C1_SetAddressNackCallback@cb^0,c
  4565  001F7C  0E00               	movlw	0
  4566  001F7E  6E21               	movwf	(I2C1_SetAddressNackCallback@cb+1)^0,c
  4567  001F80  0E00               	movlw	0
  4568  001F82  6E22               	movwf	(I2C1_SetAddressNackCallback@cb+2)^0,c
  4569  001F84  0E00               	movlw	0
  4570  001F86  6E23               	movwf	I2C1_SetAddressNackCallback@ptr^0,c
  4571  001F88  0E00               	movlw	0
  4572  001F8A  6E24               	movwf	(I2C1_SetAddressNackCallback@ptr+1)^0,c
  4573  001F8C  ECD0  F013         	call	_I2C1_SetAddressNackCallback	;wreg free
  4574  001F90                     
  4575                           ;MB85RC256V.c: 103:     I2C1_MasterWrite();
  4576  001F90  EC6A  F014         	call	_I2C1_MasterWrite	;wreg free
  4577  001F94                     l5117:
  4578  001F94  EC3F  F013         	call	_I2C1_Close	;wreg free
  4579  001F98  06E8               	decf	wreg,f,c
  4580  001F9A  B4D8               	btfsc	status,2,c
  4581  001F9C  EFD2  F00F         	goto	u3101
  4582  001FA0  EFD4  F00F         	goto	u3100
  4583  001FA4                     u3101:
  4584  001FA4  EFCA  F00F         	goto	l5117
  4585  001FA8                     u3100:
  4586  001FA8  0012               	return		;funcret
  4587  001FAA                     __end_of_FRAM_ReadNBytes:
  4588                           	callstack 0
  4589                           
  4590 ;; *************** function _I2C1_SetDataCompleteCallback *****************
  4591 ;; Defined at:
  4592 ;;		line 274 in file "mcc_generated_files/i2c1_master.c"
  4593 ;; Parameters:    Size  Location     Type
  4594 ;;  cb              3   31[COMRAM] PTR FTN(PTR void ,)enum 
  4595 ;;		 -> rd1RegCompleteHandler@MB85RC256V$F1625(1), rdBlkRegCompleteHandler@MB85RC256V$F1619(1), wr1RegCompleteHandler@MB
      +85RC256V$F1610(1), Absolute function(1), 
  4596 ;;		 -> rd1RegCompleteHandler(1), rdBlkRegCompleteHandler(1), wr1RegCompleteHandler(1), 
  4597 ;;  ptr             2   34[COMRAM] PTR void 
  4598 ;;		 -> FRAM_ReadByte@returnValue(1), FRAM_ReadNBytes@bufferBlock(4), FRAM_WriteByte@data(1), I2C1_ReadByte@returnValue(
      +1), 
  4599 ;;		 -> I2C1_ReadNBytes@bufferBlock(4), I2C1_WriteByte@data(1), NULL(0), 
  4600 ;; Auto vars:     Size  Location     Type
  4601 ;;		None
  4602 ;; Return value:  Size  Location     Type
  4603 ;;                  1    wreg      void 
  4604 ;; Registers used:
  4605 ;;		wreg, fsr2l, fsr2h, status,2, status,0, prodl, prodh, cstack
  4606 ;; Tracked objects:
  4607 ;;		On entry : 0/0
  4608 ;;		On exit  : 0/0
  4609 ;;		Unchanged: 0/0
  4610 ;; Data sizes:     COMRAM   BANK0   BANK1   BANK2   BANK3   BANK4   BANK5   BANK6   BANK7   BANK8   BANK9  BANK10  BANK1
      +1  BANK12  BANK14
  4611 ;;      Params:         5       0       0       0       0       0       0       0       0       0       0       0       
      +0       0       0
  4612 ;;      Locals:         0       0       0       0       0       0       0       0       0       0       0       0       
      +0       0       0
  4613 ;;      Temps:          0       0       0       0       0       0       0       0       0       0       0       0       
      +0       0       0
  4614 ;;      Totals:         5       0       0       0       0       0       0       0       0       0       0       0       
      +0       0       0
  4615 ;;Total ram usage:        5 bytes
  4616 ;; Hardware stack levels used: 1
  4617 ;; Hardware stack levels required when called: 8
  4618 ;; This function calls:
  4619 ;;		_I2C1_SetCallback
  4620 ;; This function is called by:
  4621 ;;		_FRAM_ReadNBytes
  4622 ;;		_I2C1_WriteByte
  4623 ;;		_I2C1_ReadNBytes
  4624 ;;		_I2C1_ReadByte
  4625 ;;		_FRAM_WriteByte
  4626 ;;		_FRAM_ReadByte
  4627 ;; This function uses a non-reentrant model
  4628 ;;
  4629                           
  4630                           	psect	text30
  4631  002784                     __ptext30:
  4632                           	callstack 0
  4633  002784                     _I2C1_SetDataCompleteCallback:
  4634                           	callstack 21
  4635  002784                     
  4636                           ;mcc_generated_files/i2c1_master.c: 274: void I2C1_SetDataCompleteCallback(i2c1_callback
      +                          _t cb, void *ptr);mcc_generated_files/i2c1_master.c: 275: {;mcc_generated_files/i2c1_mas
      +                          ter.c: 276:     I2C1_SetCallback(I2C1_DATA_COMPLETE, cb, ptr);
  4637  002784  C020  F01A         	movff	I2C1_SetDataCompleteCallback@cb,I2C1_SetCallback@cb
  4638  002788  C021  F01B         	movff	I2C1_SetDataCompleteCallback@cb+1,I2C1_SetCallback@cb+1
  4639  00278C  C022  F01C         	movff	I2C1_SetDataCompleteCallback@cb+2,I2C1_SetCallback@cb+2
  4640  002790  C023  F01D         	movff	I2C1_SetDataCompleteCallback@ptr,I2C1_SetCallback@ptr
  4641  002794  C024  F01E         	movff	I2C1_SetDataCompleteCallback@ptr+1,I2C1_SetCallback@ptr+1
  4642  002798  0E00               	movlw	0
  4643  00279A  EC1A  F010         	call	_I2C1_SetCallback
  4644  00279E  0012               	return		;funcret
  4645  0027A0                     __end_of_I2C1_SetDataCompleteCallback:
  4646                           	callstack 0
  4647                           
  4648 ;; *************** function _I2C1_SetBuffer *****************
  4649 ;; Defined at:
  4650 ;;		line 264 in file "mcc_generated_files/i2c1_master.c"
  4651 ;; Parameters:    Size  Location     Type
  4652 ;;  buffer          2   25[COMRAM] PTR void 
  4653 ;;		 -> __heap_hi(0), RAM(3614), FRAM_ReadByte@msgHdr(2), FRAM_ReadByte@returnValue(1), 
  4654 ;;		 -> FRAM_ReadNBytes@msgHdr(2), FRAM_ReadNBytes@bufferBlock(4), FRAM_WriteByte@data(1), FRAM_WriteByte@bfr(2), 
  4655 ;;		 -> seqWriteBuffer(258), main@framDataArray(256), I2C1_ReadByte@returnValue(1), I2C1_ReadNBytes@bufferBlock(4), 
  4656 ;;		 -> I2C1_WriteByte@data(1), NULL(0), 
  4657 ;;  bufferSize      2   27[COMRAM] unsigned int 
  4658 ;; Auto vars:     Size  Location     Type
  4659 ;;		None
  4660 ;; Return value:  Size  Location     Type
  4661 ;;                  1    wreg      void 
  4662 ;; Registers used:
  4663 ;;		wreg, status,2, status,0
  4664 ;; Tracked objects:
  4665 ;;		On entry : 0/0
  4666 ;;		On exit  : 0/0
  4667 ;;		Unchanged: 0/0
  4668 ;; Data sizes:     COMRAM   BANK0   BANK1   BANK2   BANK3   BANK4   BANK5   BANK6   BANK7   BANK8   BANK9  BANK10  BANK1
      +1  BANK12  BANK14
  4669 ;;      Params:         4       0       0       0       0       0       0       0       0       0       0       0       
      +0       0       0
  4670 ;;      Locals:         0       0       0       0       0       0       0       0       0       0       0       0       
      +0       0       0
  4671 ;;      Temps:          0       0       0       0       0       0       0       0       0       0       0       0       
      +0       0       0
  4672 ;;      Totals:         4       0       0       0       0       0       0       0       0       0       0       0       
      +0       0       0
  4673 ;;Total ram usage:        4 bytes
  4674 ;; Hardware stack levels used: 1
  4675 ;; Hardware stack levels required when called: 7
  4676 ;; This function calls:
  4677 ;;		Nothing
  4678 ;; This function is called by:
  4679 ;;		_FRAM_WriteNBytes
  4680 ;;		_FRAM_ReadNBytes
  4681 ;;		_I2C1_WriteNBytes
  4682 ;;		_I2C1_WriteByte
  4683 ;;		_I2C1_ReadNBytes
  4684 ;;		_I2C1_ReadByte
  4685 ;;		_FRAM_WriteByte
  4686 ;;		_FRAM_ReadByte
  4687 ;; This function uses a non-reentrant model
  4688 ;;
  4689                           
  4690                           	psect	text31
  4691  0026FE                     __ptext31:
  4692                           	callstack 0
  4693  0026FE                     _I2C1_SetBuffer:
  4694                           	callstack 22
  4695  0026FE                     
  4696                           ;mcc_generated_files/i2c1_master.c: 264: void I2C1_SetBuffer(void *buffer, size_t buffer
      +                          Size);mcc_generated_files/i2c1_master.c: 265: {;mcc_generated_files/i2c1_master.c: 266: 
      +                              if(I2C1_Status.bufferFree)
  4697  0026FE  0100               	movlb	0	; () banked
  4698  002700  A789               	btfss	(_I2C1_Status+41)& (0+255),3,b
  4699  002702  EF85  F013         	goto	u2961
  4700  002706  EF87  F013         	goto	u2960
  4701  00270A                     u2961:
  4702  00270A  EF90  F013         	goto	l528
  4703  00270E                     u2960:
  4704  00270E                     
  4705                           ; BSR set to: 0
  4706                           ;mcc_generated_files/i2c1_master.c: 267:     {;mcc_generated_files/i2c1_master.c: 268:  
      +                                 I2C1_Status.data_ptr = buffer;
  4707  00270E  C01A  F083         	movff	I2C1_SetBuffer@buffer,_I2C1_Status+35
  4708  002712  C01B  F084         	movff	I2C1_SetBuffer@buffer+1,_I2C1_Status+36
  4709  002716                     
  4710                           ; BSR set to: 0
  4711                           ;mcc_generated_files/i2c1_master.c: 269:         I2C1_Status.data_length = bufferSize;
  4712  002716  C01C  F085         	movff	I2C1_SetBuffer@bufferSize,_I2C1_Status+37
  4713  00271A  C01D  F086         	movff	I2C1_SetBuffer@bufferSize+1,_I2C1_Status+38
  4714  00271E                     
  4715                           ; BSR set to: 0
  4716                           ;mcc_generated_files/i2c1_master.c: 270:         I2C1_Status.bufferFree = 0;
  4717  00271E  9789               	bcf	(_I2C1_Status+41)& (0+255),3,b
  4718  002720                     l528:
  4719                           
  4720                           ; BSR set to: 0
  4721  002720  0012               	return		;funcret
  4722  002722                     __end_of_I2C1_SetBuffer:
  4723                           	callstack 0
  4724                           
  4725 ;; *************** function _I2C1_SetAddressNackCallback *****************
  4726 ;; Defined at:
  4727 ;;		line 284 in file "mcc_generated_files/i2c1_master.c"
  4728 ;; Parameters:    Size  Location     Type
  4729 ;;  cb              3   31[COMRAM] PTR FTN(PTR void ,)enum 
  4730 ;;		 -> Absolute function(1), 
  4731 ;;  ptr             2   34[COMRAM] PTR void 
  4732 ;;		 -> NULL(0), 
  4733 ;; Auto vars:     Size  Location     Type
  4734 ;;		None
  4735 ;; Return value:  Size  Location     Type
  4736 ;;                  1    wreg      void 
  4737 ;; Registers used:
  4738 ;;		wreg, fsr2l, fsr2h, status,2, status,0, prodl, prodh, cstack
  4739 ;; Tracked objects:
  4740 ;;		On entry : 0/0
  4741 ;;		On exit  : 0/0
  4742 ;;		Unchanged: 0/0
  4743 ;; Data sizes:     COMRAM   BANK0   BANK1   BANK2   BANK3   BANK4   BANK5   BANK6   BANK7   BANK8   BANK9  BANK10  BANK1
      +1  BANK12  BANK14
  4744 ;;      Params:         5       0       0       0       0       0       0       0       0       0       0       0       
      +0       0       0
  4745 ;;      Locals:         0       0       0       0       0       0       0       0       0       0       0       0       
      +0       0       0
  4746 ;;      Temps:          0       0       0       0       0       0       0       0       0       0       0       0       
      +0       0       0
  4747 ;;      Totals:         5       0       0       0       0       0       0       0       0       0       0       0       
      +0       0       0
  4748 ;;Total ram usage:        5 bytes
  4749 ;; Hardware stack levels used: 1
  4750 ;; Hardware stack levels required when called: 8
  4751 ;; This function calls:
  4752 ;;		_I2C1_SetCallback
  4753 ;; This function is called by:
  4754 ;;		_FRAM_WriteNBytes
  4755 ;;		_FRAM_ReadNBytes
  4756 ;;		_I2C1_WriteNBytes
  4757 ;;		_I2C1_WriteByte
  4758 ;;		_I2C1_ReadNBytes
  4759 ;;		_I2C1_ReadByte
  4760 ;;		_FRAM_WriteByte
  4761 ;;		_FRAM_ReadByte
  4762 ;; This function uses a non-reentrant model
  4763 ;;
  4764                           
  4765                           	psect	text32
  4766  0027A0                     __ptext32:
  4767                           	callstack 0
  4768  0027A0                     _I2C1_SetAddressNackCallback:
  4769                           	callstack 21
  4770  0027A0                     
  4771                           ;mcc_generated_files/i2c1_master.c: 284: void I2C1_SetAddressNackCallback(i2c1_callback_
      +                          t cb, void *ptr);mcc_generated_files/i2c1_master.c: 285: {;mcc_generated_files/i2c1_mast
      +                          er.c: 286:     I2C1_SetCallback(I2C1_ADDR_NACK, cb, ptr);
  4772  0027A0  C020  F01A         	movff	I2C1_SetAddressNackCallback@cb,I2C1_SetCallback@cb
  4773  0027A4  C021  F01B         	movff	I2C1_SetAddressNackCallback@cb+1,I2C1_SetCallback@cb+1
  4774  0027A8  C022  F01C         	movff	I2C1_SetAddressNackCallback@cb+2,I2C1_SetCallback@cb+2
  4775  0027AC  C023  F01D         	movff	I2C1_SetAddressNackCallback@ptr,I2C1_SetCallback@ptr
  4776  0027B0  C024  F01E         	movff	I2C1_SetAddressNackCallback@ptr+1,I2C1_SetCallback@ptr+1
  4777  0027B4  0E02               	movlw	2
  4778  0027B6  EC1A  F010         	call	_I2C1_SetCallback
  4779  0027BA  0012               	return		;funcret
  4780  0027BC                     __end_of_I2C1_SetAddressNackCallback:
  4781                           	callstack 0
  4782                           
  4783 ;; *************** function _I2C1_SetCallback *****************
  4784 ;; Defined at:
  4785 ;;		line 304 in file "mcc_generated_files/i2c1_master.c"
  4786 ;; Parameters:    Size  Location     Type
  4787 ;;  idx             1    wreg     enum E13100
  4788 ;;  cb              3   25[COMRAM] PTR FTN(PTR void ,)enum 
  4789 ;;		 -> rd1RegCompleteHandler@MB85RC256V$F1625(1), rdBlkRegCompleteHandler@MB85RC256V$F1619(1), wr1RegCompleteHandler@MB
      +85RC256V$F1610(1), Absolute function(1), 
  4790 ;;		 -> rd1RegCompleteHandler(1), rdBlkRegCompleteHandler(1), wr1RegCompleteHandler(1), 
  4791 ;;  ptr             2   28[COMRAM] PTR void 
  4792 ;;		 -> FRAM_ReadByte@returnValue(1), FRAM_ReadNBytes@bufferBlock(4), FRAM_WriteByte@data(1), I2C1_ReadByte@returnValue(
      +1), 
  4793 ;;		 -> I2C1_ReadNBytes@bufferBlock(4), I2C1_WriteByte@data(1), NULL(0), 
  4794 ;; Auto vars:     Size  Location     Type
  4795 ;;  idx             1   30[COMRAM] enum E13100
  4796 ;; Return value:  Size  Location     Type
  4797 ;;                  1    wreg      void 
  4798 ;; Registers used:
  4799 ;;		wreg, fsr2l, fsr2h, status,2, status,0, prodl, prodh
  4800 ;; Tracked objects:
  4801 ;;		On entry : 0/0
  4802 ;;		On exit  : 0/0
  4803 ;;		Unchanged: 0/0
  4804 ;; Data sizes:     COMRAM   BANK0   BANK1   BANK2   BANK3   BANK4   BANK5   BANK6   BANK7   BANK8   BANK9  BANK10  BANK1
      +1  BANK12  BANK14
  4805 ;;      Params:         5       0       0       0       0       0       0       0       0       0       0       0       
      +0       0       0
  4806 ;;      Locals:         1       0       0       0       0       0       0       0       0       0       0       0       
      +0       0       0
  4807 ;;      Temps:          0       0       0       0       0       0       0       0       0       0       0       0       
      +0       0       0
  4808 ;;      Totals:         6       0       0       0       0       0       0       0       0       0       0       0       
      +0       0       0
  4809 ;;Total ram usage:        6 bytes
  4810 ;; Hardware stack levels used: 1
  4811 ;; Hardware stack levels required when called: 7
  4812 ;; This function calls:
  4813 ;;		Nothing
  4814 ;; This function is called by:
  4815 ;;		_I2C1_SetDataCompleteCallback
  4816 ;;		_I2C1_SetAddressNackCallback
  4817 ;;		_I2C1_SetWriteCollisionCallback
  4818 ;;		_I2C1_SetDataNackCallback
  4819 ;;		_I2C1_SetTimeoutCallback
  4820 ;; This function uses a non-reentrant model
  4821 ;;
  4822                           
  4823                           	psect	text33
  4824  002034                     __ptext33:
  4825                           	callstack 0
  4826  002034                     _I2C1_SetCallback:
  4827                           	callstack 21
  4828                           
  4829                           ;incstack = 0
  4830                           ;I2C1_SetCallback@idx stored from wreg
  4831  002034  6E1F               	movwf	I2C1_SetCallback@idx^0,c
  4832  002036                     
  4833                           ;mcc_generated_files/i2c1_master.c: 304: static void I2C1_SetCallback(i2c1_callbackIndex
      +                          _t idx, i2c1_callback_t cb, void *ptr);mcc_generated_files/i2c1_master.c: 305: {;mcc_gen
      +                          erated_files/i2c1_master.c: 306:     if(cb)
  4834  002036  501A               	movf	I2C1_SetCallback@cb^0,w,c
  4835  002038  101B               	iorwf	(I2C1_SetCallback@cb+1)^0,w,c
  4836  00203A  101C               	iorwf	(I2C1_SetCallback@cb+2)^0,w,c
  4837  00203C  B4D8               	btfsc	status,2,c
  4838  00203E  EF23  F010         	goto	u2821
  4839  002042  EF25  F010         	goto	u2820
  4840  002046                     u2821:
  4841  002046  EF41  F010         	goto	l4675
  4842  00204A                     u2820:
  4843  00204A                     
  4844                           ;mcc_generated_files/i2c1_master.c: 307:     {;mcc_generated_files/i2c1_master.c: 308:  
      +                                 I2C1_Status.callbackTable[idx] = cb;
  4845  00204A  501F               	movf	I2C1_SetCallback@idx^0,w,c
  4846  00204C  0D03               	mullw	3
  4847  00204E  0E60               	movlw	low _I2C1_Status
  4848  002050  24F3               	addwf	243,w,c
  4849  002052  6ED9               	movwf	fsr2l,c
  4850  002054  0E00               	movlw	high _I2C1_Status
  4851  002056  20F4               	addwfc	prodh,w,c
  4852  002058  6EDA               	movwf	fsr2h,c
  4853  00205A  C01A  FFDE         	movff	I2C1_SetCallback@cb,postinc2
  4854  00205E  C01B  FFDE         	movff	I2C1_SetCallback@cb+1,postinc2
  4855  002062  C01C  FFDE         	movff	I2C1_SetCallback@cb+2,postinc2
  4856                           
  4857                           ;mcc_generated_files/i2c1_master.c: 309:         I2C1_Status.callbackPayload[idx] = ptr;
  4858  002066  501F               	movf	I2C1_SetCallback@idx^0,w,c
  4859  002068  0D02               	mullw	2
  4860  00206A  0E72               	movlw	low (_I2C1_Status+18)
  4861  00206C  24F3               	addwf	243,w,c
  4862  00206E  6ED9               	movwf	fsr2l,c
  4863  002070  0E00               	movlw	high (_I2C1_Status+18)
  4864  002072  20F4               	addwfc	prodh,w,c
  4865  002074  6EDA               	movwf	fsr2h,c
  4866  002076  C01D  FFDE         	movff	I2C1_SetCallback@ptr,postinc2
  4867  00207A  C01E  FFDD         	movff	I2C1_SetCallback@ptr+1,postdec2
  4868                           
  4869                           ;mcc_generated_files/i2c1_master.c: 310:     }
  4870  00207E  EF5B  F010         	goto	l551
  4871  002082                     l4675:
  4872                           
  4873                           ;mcc_generated_files/i2c1_master.c: 312:     {;mcc_generated_files/i2c1_master.c: 313:  
      +                                 I2C1_Status.callbackTable[idx] = I2C1_CallbackReturnStop;
  4874  002082  501F               	movf	I2C1_SetCallback@idx^0,w,c
  4875  002084  0D03               	mullw	3
  4876  002086  0E60               	movlw	low _I2C1_Status
  4877  002088  24F3               	addwf	243,w,c
  4878  00208A  6ED9               	movwf	fsr2l,c
  4879  00208C  0E00               	movlw	high _I2C1_Status
  4880  00208E  20F4               	addwfc	prodh,w,c
  4881  002090  6EDA               	movwf	fsr2h,c
  4882  002092  0E72               	movlw	low _I2C1_CallbackReturnStop
  4883  002094  6EDE               	movwf	postinc2,c
  4884  002096  0E29               	movlw	high _I2C1_CallbackReturnStop
  4885  002098  6EDE               	movwf	postinc2,c
  4886  00209A  0E00               	movlw	low (_I2C1_CallbackReturnStop shr (0+16))
  4887  00209C  6EDE               	movwf	postinc2,c
  4888                           
  4889                           ;mcc_generated_files/i2c1_master.c: 314:         I2C1_Status.callbackPayload[idx] = ((vo
      +                          id*)0);
  4890  00209E  501F               	movf	I2C1_SetCallback@idx^0,w,c
  4891  0020A0  0D02               	mullw	2
  4892  0020A2  0E72               	movlw	low (_I2C1_Status+18)
  4893  0020A4  24F3               	addwf	243,w,c
  4894  0020A6  6ED9               	movwf	fsr2l,c
  4895  0020A8  0E00               	movlw	high (_I2C1_Status+18)
  4896  0020AA  20F4               	addwfc	prodh,w,c
  4897  0020AC  6EDA               	movwf	fsr2h,c
  4898  0020AE  0E00               	movlw	0
  4899  0020B0  6EDE               	movwf	postinc2,c
  4900  0020B2  0E00               	movlw	0
  4901  0020B4  6EDD               	movwf	postdec2,c
  4902  0020B6                     l551:
  4903  0020B6  0012               	return		;funcret
  4904  0020B8                     __end_of_I2C1_SetCallback:
  4905                           	callstack 0
  4906                           
  4907 ;; *************** function _I2C1_Open *****************
  4908 ;; Defined at:
  4909 ;;		line 176 in file "mcc_generated_files/i2c1_master.c"
  4910 ;; Parameters:    Size  Location     Type
  4911 ;;  address         1    wreg     unsigned char 
  4912 ;; Auto vars:     Size  Location     Type
  4913 ;;  address         1   28[COMRAM] unsigned char 
  4914 ;;  returnValue     1   29[COMRAM] enum E355
  4915 ;; Return value:  Size  Location     Type
  4916 ;;                  1    wreg      enum E355
  4917 ;; Registers used:
  4918 ;;		wreg, status,2, status,0, cstack
  4919 ;; Tracked objects:
  4920 ;;		On entry : 0/0
  4921 ;;		On exit  : 0/0
  4922 ;;		Unchanged: 0/0
  4923 ;; Data sizes:     COMRAM   BANK0   BANK1   BANK2   BANK3   BANK4   BANK5   BANK6   BANK7   BANK8   BANK9  BANK10  BANK1
      +1  BANK12  BANK14
  4924 ;;      Params:         0       0       0       0       0       0       0       0       0       0       0       0       
      +0       0       0
  4925 ;;      Locals:         2       0       0       0       0       0       0       0       0       0       0       0       
      +0       0       0
  4926 ;;      Temps:          0       0       0       0       0       0       0       0       0       0       0       0       
      +0       0       0
  4927 ;;      Totals:         2       0       0       0       0       0       0       0       0       0       0       0       
      +0       0       0
  4928 ;;Total ram usage:        2 bytes
  4929 ;; Hardware stack levels used: 1
  4930 ;; Hardware stack levels required when called: 8
  4931 ;; This function calls:
  4932 ;;		_I2C1_MasterClearIrq
  4933 ;;		_I2C1_MasterEnableIrq
  4934 ;;		_I2C1_MasterOpen
  4935 ;;		_I2C1_SetInterruptHandler
  4936 ;; This function is called by:
  4937 ;;		_FRAM_WriteNBytes
  4938 ;;		_FRAM_ReadNBytes
  4939 ;;		_I2C1_WriteNBytes
  4940 ;;		_I2C1_WriteByte
  4941 ;;		_I2C1_ReadNBytes
  4942 ;;		_I2C1_ReadByte
  4943 ;;		_FRAM_WriteByte
  4944 ;;		_FRAM_ReadByte
  4945 ;; This function uses a non-reentrant model
  4946 ;;
  4947                           
  4948                           	psect	text34
  4949  001BE6                     __ptext34:
  4950                           	callstack 0
  4951  001BE6                     _I2C1_Open:
  4952                           	callstack 21
  4953                           
  4954                           ;incstack = 0
  4955                           ;I2C1_Open@address stored from wreg
  4956  001BE6  6E1D               	movwf	I2C1_Open@address^0,c
  4957  001BE8                     
  4958                           ;mcc_generated_files/i2c1_master.c: 176: i2c1_error_t I2C1_Open(i2c1_address_t address);
      +                          mcc_generated_files/i2c1_master.c: 177: {;mcc_generated_files/i2c1_master.c: 178:     i2
      +                          c1_error_t returnValue = I2C1_BUSY;
  4959  001BE8  0E01               	movlw	1
  4960  001BEA  6E1E               	movwf	I2C1_Open@returnValue^0,c
  4961  001BEC                     
  4962                           ;mcc_generated_files/i2c1_master.c: 180:     if(!I2C1_Status.inUse)
  4963  001BEC  0100               	movlb	0	; () banked
  4964  001BEE  B589               	btfsc	(_I2C1_Status+41)& (0+255),2,b
  4965  001BF0  EFFC  F00D         	goto	u2951
  4966  001BF4  EFFE  F00D         	goto	u2950
  4967  001BF8                     u2951:
  4968  001BF8  EF4C  F00E         	goto	l4909
  4969  001BFC                     u2950:
  4970  001BFC                     
  4971                           ; BSR set to: 0
  4972                           ;mcc_generated_files/i2c1_master.c: 181:     {;mcc_generated_files/i2c1_master.c: 182:  
      +                                 I2C1_Status.address = address;
  4973  001BFC  C01D  F082         	movff	I2C1_Open@address,_I2C1_Status+34
  4974  001C00                     
  4975                           ; BSR set to: 0
  4976                           ;mcc_generated_files/i2c1_master.c: 183:         I2C1_Status.busy = 0;
  4977  001C00  9389               	bcf	(_I2C1_Status+41)& (0+255),1,b
  4978  001C02                     
  4979                           ; BSR set to: 0
  4980                           ;mcc_generated_files/i2c1_master.c: 184:         I2C1_Status.inUse = 1;
  4981  001C02  8589               	bsf	(_I2C1_Status+41)& (0+255),2,b
  4982  001C04                     
  4983                           ; BSR set to: 0
  4984                           ;mcc_generated_files/i2c1_master.c: 185:         I2C1_Status.addressNackCheck = 0;
  4985  001C04  9189               	bcf	(_I2C1_Status+41)& (0+255),0,b
  4986  001C06                     
  4987                           ; BSR set to: 0
  4988                           ;mcc_generated_files/i2c1_master.c: 186:         I2C1_Status.state = I2C1_RESET;
  4989  001C06  0E0E               	movlw	14
  4990  001C08  6F87               	movwf	(_I2C1_Status+39)& (0+255),b
  4991  001C0A                     
  4992                           ; BSR set to: 0
  4993                           ;mcc_generated_files/i2c1_master.c: 187:         I2C1_Status.time_out_value = 500;
  4994  001C0A  0E01               	movlw	1
  4995  001C0C  6F81               	movwf	(_I2C1_Status+33)& (0+255),b
  4996  001C0E  0EF4               	movlw	244
  4997  001C10  6F80               	movwf	(_I2C1_Status+32)& (0+255),b
  4998  001C12                     
  4999                           ; BSR set to: 0
  5000                           ;mcc_generated_files/i2c1_master.c: 188:         I2C1_Status.bufferFree = 1;
  5001  001C12  8789               	bsf	(_I2C1_Status+41)& (0+255),3,b
  5002  001C14                     
  5003                           ; BSR set to: 0
  5004                           ;mcc_generated_files/i2c1_master.c: 191:         I2C1_Status.callbackTable[I2C1_DATA_COM
      +                          PLETE]=I2C1_CallbackReturnStop;
  5005  001C14  0E72               	movlw	low _I2C1_CallbackReturnStop
  5006  001C16  6F60               	movwf	_I2C1_Status& (0+255),b
  5007  001C18  0E29               	movlw	high _I2C1_CallbackReturnStop
  5008  001C1A  6F61               	movwf	(_I2C1_Status+1)& (0+255),b
  5009  001C1C  0E00               	movlw	low (_I2C1_CallbackReturnStop shr (0+16))
  5010  001C1E  6F62               	movwf	(_I2C1_Status+2)& (0+255),b
  5011  001C20                     
  5012                           ; BSR set to: 0
  5013                           ;mcc_generated_files/i2c1_master.c: 192:         I2C1_Status.callbackPayload[I2C1_DATA_C
      +                          OMPLETE] = ((void*)0);
  5014  001C20  0E00               	movlw	0
  5015  001C22  6F72               	movwf	(_I2C1_Status+18)& (0+255),b
  5016  001C24  0E00               	movlw	0
  5017  001C26  6F73               	movwf	(_I2C1_Status+19)& (0+255),b
  5018  001C28                     
  5019                           ; BSR set to: 0
  5020                           ;mcc_generated_files/i2c1_master.c: 193:         I2C1_Status.callbackTable[I2C1_WRITE_CO
      +                          LLISION]=I2C1_CallbackReturnStop;
  5021  001C28  0E72               	movlw	low _I2C1_CallbackReturnStop
  5022  001C2A  6F63               	movwf	(_I2C1_Status+3)& (0+255),b
  5023  001C2C  0E29               	movlw	high _I2C1_CallbackReturnStop
  5024  001C2E  6F64               	movwf	(_I2C1_Status+4)& (0+255),b
  5025  001C30  0E00               	movlw	low (_I2C1_CallbackReturnStop shr (0+16))
  5026  001C32  6F65               	movwf	(_I2C1_Status+5)& (0+255),b
  5027  001C34                     
  5028                           ; BSR set to: 0
  5029                           ;mcc_generated_files/i2c1_master.c: 194:         I2C1_Status.callbackPayload[I2C1_WRITE_
      +                          COLLISION] = ((void*)0);
  5030  001C34  0E00               	movlw	0
  5031  001C36  6F74               	movwf	(_I2C1_Status+20)& (0+255),b
  5032  001C38  0E00               	movlw	0
  5033  001C3A  6F75               	movwf	(_I2C1_Status+21)& (0+255),b
  5034  001C3C                     
  5035                           ; BSR set to: 0
  5036                           ;mcc_generated_files/i2c1_master.c: 195:         I2C1_Status.callbackTable[I2C1_ADDR_NAC
      +                          K]=I2C1_CallbackReturnStop;
  5037  001C3C  0E72               	movlw	low _I2C1_CallbackReturnStop
  5038  001C3E  6F66               	movwf	(_I2C1_Status+6)& (0+255),b
  5039  001C40  0E29               	movlw	high _I2C1_CallbackReturnStop
  5040  001C42  6F67               	movwf	(_I2C1_Status+7)& (0+255),b
  5041  001C44  0E00               	movlw	low (_I2C1_CallbackReturnStop shr (0+16))
  5042  001C46  6F68               	movwf	(_I2C1_Status+8)& (0+255),b
  5043  001C48                     
  5044                           ; BSR set to: 0
  5045                           ;mcc_generated_files/i2c1_master.c: 196:         I2C1_Status.callbackPayload[I2C1_ADDR_N
      +                          ACK] = ((void*)0);
  5046  001C48  0E00               	movlw	0
  5047  001C4A  6F76               	movwf	(_I2C1_Status+22)& (0+255),b
  5048  001C4C  0E00               	movlw	0
  5049  001C4E  6F77               	movwf	(_I2C1_Status+23)& (0+255),b
  5050  001C50                     
  5051                           ; BSR set to: 0
  5052                           ;mcc_generated_files/i2c1_master.c: 197:         I2C1_Status.callbackTable[I2C1_DATA_NAC
      +                          K]=I2C1_CallbackReturnStop;
  5053  001C50  0E72               	movlw	low _I2C1_CallbackReturnStop
  5054  001C52  6F69               	movwf	(_I2C1_Status+9)& (0+255),b
  5055  001C54  0E29               	movlw	high _I2C1_CallbackReturnStop
  5056  001C56  6F6A               	movwf	(_I2C1_Status+10)& (0+255),b
  5057  001C58  0E00               	movlw	low (_I2C1_CallbackReturnStop shr (0+16))
  5058  001C5A  6F6B               	movwf	(_I2C1_Status+11)& (0+255),b
  5059  001C5C                     
  5060                           ; BSR set to: 0
  5061                           ;mcc_generated_files/i2c1_master.c: 198:         I2C1_Status.callbackPayload[I2C1_DATA_N
      +                          ACK] = ((void*)0);
  5062  001C5C  0E00               	movlw	0
  5063  001C5E  6F78               	movwf	(_I2C1_Status+24)& (0+255),b
  5064  001C60  0E00               	movlw	0
  5065  001C62  6F79               	movwf	(_I2C1_Status+25)& (0+255),b
  5066  001C64                     
  5067                           ; BSR set to: 0
  5068                           ;mcc_generated_files/i2c1_master.c: 199:         I2C1_Status.callbackTable[I2C1_TIMEOUT]
      +                          =I2C1_CallbackReturnReset;
  5069  001C64  0E6E               	movlw	low _I2C1_CallbackReturnReset
  5070  001C66  6F6C               	movwf	(_I2C1_Status+12)& (0+255),b
  5071  001C68  0E29               	movlw	high _I2C1_CallbackReturnReset
  5072  001C6A  6F6D               	movwf	(_I2C1_Status+13)& (0+255),b
  5073  001C6C  0E00               	movlw	low (_I2C1_CallbackReturnReset shr (0+16))
  5074  001C6E  6F6E               	movwf	(_I2C1_Status+14)& (0+255),b
  5075  001C70                     
  5076                           ; BSR set to: 0
  5077                           ;mcc_generated_files/i2c1_master.c: 200:         I2C1_Status.callbackPayload[I2C1_TIMEOU
      +                          T] = ((void*)0);
  5078  001C70  0E00               	movlw	0
  5079  001C72  6F7A               	movwf	(_I2C1_Status+26)& (0+255),b
  5080  001C74  0E00               	movlw	0
  5081  001C76  6F7B               	movwf	(_I2C1_Status+27)& (0+255),b
  5082  001C78                     
  5083                           ; BSR set to: 0
  5084                           ;mcc_generated_files/i2c1_master.c: 202:         I2C1_SetInterruptHandler(I2C1_MasterIsr
      +                          );
  5085  001C78  0E36               	movlw	low _I2C1_MasterIsr
  5086  001C7A  6E1A               	movwf	I2C1_SetInterruptHandler@InterruptHandler^0,c
  5087  001C7C  0E29               	movlw	high _I2C1_MasterIsr
  5088  001C7E  6E1B               	movwf	(I2C1_SetInterruptHandler@InterruptHandler+1)^0,c
  5089  001C80  0E00               	movlw	low (_I2C1_MasterIsr shr (0+16))
  5090  001C82  6E1C               	movwf	(I2C1_SetInterruptHandler@InterruptHandler+2)^0,c
  5091  001C84  EC4C  F014         	call	_I2C1_SetInterruptHandler	;wreg free
  5092  001C88                     
  5093                           ;mcc_generated_files/i2c1_master.c: 203:         I2C1_MasterClearIrq();
  5094  001C88  EC98  F014         	call	_I2C1_MasterClearIrq	;wreg free
  5095  001C8C                     
  5096                           ;mcc_generated_files/i2c1_master.c: 204:         I2C1_MasterOpen();
  5097  001C8C  ECA3  F013         	call	_I2C1_MasterOpen	;wreg free
  5098  001C90                     
  5099                           ;mcc_generated_files/i2c1_master.c: 205:         I2C1_MasterEnableIrq();
  5100  001C90  EC92  F014         	call	_I2C1_MasterEnableIrq	;wreg free
  5101  001C94                     
  5102                           ;mcc_generated_files/i2c1_master.c: 206:         returnValue = I2C1_NOERR;
  5103  001C94  0E00               	movlw	0
  5104  001C96  6E1E               	movwf	I2C1_Open@returnValue^0,c
  5105  001C98                     l4909:
  5106                           
  5107                           ;mcc_generated_files/i2c1_master.c: 208:     return returnValue;
  5108  001C98  501E               	movf	I2C1_Open@returnValue^0,w,c
  5109  001C9A  0012               	return		;funcret
  5110  001C9C                     __end_of_I2C1_Open:
  5111                           	callstack 0
  5112                           
  5113 ;; *************** function _I2C1_SetInterruptHandler *****************
  5114 ;; Defined at:
  5115 ;;		line 299 in file "mcc_generated_files/i2c1_master.c"
  5116 ;; Parameters:    Size  Location     Type
  5117 ;;  InterruptHan    3   25[COMRAM] PTR FTN()void 
  5118 ;;		 -> I2C1_MasterIsr(1), 
  5119 ;; Auto vars:     Size  Location     Type
  5120 ;;		None
  5121 ;; Return value:  Size  Location     Type
  5122 ;;                  1    wreg      void 
  5123 ;; Registers used:
  5124 ;;		wreg, status,2, status,0
  5125 ;; Tracked objects:
  5126 ;;		On entry : 0/0
  5127 ;;		On exit  : 0/0
  5128 ;;		Unchanged: 0/0
  5129 ;; Data sizes:     COMRAM   BANK0   BANK1   BANK2   BANK3   BANK4   BANK5   BANK6   BANK7   BANK8   BANK9  BANK10  BANK1
      +1  BANK12  BANK14
  5130 ;;      Params:         3       0       0       0       0       0       0       0       0       0       0       0       
      +0       0       0
  5131 ;;      Locals:         0       0       0       0       0       0       0       0       0       0       0       0       
      +0       0       0
  5132 ;;      Temps:          0       0       0       0       0       0       0       0       0       0       0       0       
      +0       0       0
  5133 ;;      Totals:         3       0       0       0       0       0       0       0       0       0       0       0       
      +0       0       0
  5134 ;;Total ram usage:        3 bytes
  5135 ;; Hardware stack levels used: 1
  5136 ;; Hardware stack levels required when called: 7
  5137 ;; This function calls:
  5138 ;;		Nothing
  5139 ;; This function is called by:
  5140 ;;		_I2C1_Open
  5141 ;; This function uses a non-reentrant model
  5142 ;;
  5143                           
  5144                           	psect	text35
  5145  002898                     __ptext35:
  5146                           	callstack 0
  5147  002898                     _I2C1_SetInterruptHandler:
  5148                           	callstack 21
  5149  002898                     
  5150                           ;mcc_generated_files/i2c1_master.c: 299: void I2C1_SetInterruptHandler(void (* Interrupt
      +                          Handler)(void));mcc_generated_files/i2c1_master.c: 300: {;mcc_generated_files/i2c1_maste
      +                          r.c: 301:     MSSP1_InterruptHandler = InterruptHandler;
  5151  002898  C01A  F02E         	movff	I2C1_SetInterruptHandler@InterruptHandler,_MSSP1_InterruptHandler
  5152  00289C  C01B  F02F         	movff	I2C1_SetInterruptHandler@InterruptHandler+1,_MSSP1_InterruptHandler+1
  5153  0028A0  C01C  F030         	movff	I2C1_SetInterruptHandler@InterruptHandler+2,_MSSP1_InterruptHandler+2
  5154  0028A4  0012               	return		;funcret
  5155  0028A6                     __end_of_I2C1_SetInterruptHandler:
  5156                           	callstack 0
  5157                           
  5158 ;; *************** function _I2C1_MasterOpen *****************
  5159 ;; Defined at:
  5160 ;;		line 544 in file "mcc_generated_files/i2c1_master.c"
  5161 ;; Parameters:    Size  Location     Type
  5162 ;;		None
  5163 ;; Auto vars:     Size  Location     Type
  5164 ;;		None
  5165 ;; Return value:  Size  Location     Type
  5166 ;;                  1    wreg      _Bool 
  5167 ;; Registers used:
  5168 ;;		wreg, status,2
  5169 ;; Tracked objects:
  5170 ;;		On entry : 0/0
  5171 ;;		On exit  : 0/0
  5172 ;;		Unchanged: 0/0
  5173 ;; Data sizes:     COMRAM   BANK0   BANK1   BANK2   BANK3   BANK4   BANK5   BANK6   BANK7   BANK8   BANK9  BANK10  BANK1
      +1  BANK12  BANK14
  5174 ;;      Params:         0       0       0       0       0       0       0       0       0       0       0       0       
      +0       0       0
  5175 ;;      Locals:         0       0       0       0       0       0       0       0       0       0       0       0       
      +0       0       0
  5176 ;;      Temps:          0       0       0       0       0       0       0       0       0       0       0       0       
      +0       0       0
  5177 ;;      Totals:         0       0       0       0       0       0       0       0       0       0       0       0       
      +0       0       0
  5178 ;;Total ram usage:        0 bytes
  5179 ;; Hardware stack levels used: 1
  5180 ;; Hardware stack levels required when called: 7
  5181 ;; This function calls:
  5182 ;;		Nothing
  5183 ;; This function is called by:
  5184 ;;		_I2C1_Open
  5185 ;; This function uses a non-reentrant model
  5186 ;;
  5187                           
  5188                           	psect	text36
  5189  002746                     __ptext36:
  5190                           	callstack 0
  5191  002746                     _I2C1_MasterOpen:
  5192                           	callstack 21
  5193  002746                     
  5194                           ;mcc_generated_files/i2c1_master.c: 546:     if(!SSP1CON1bits.SSPEN)
  5195  002746  BA95               	btfsc	149,5,c	;volatile
  5196  002748  EFA8  F013         	goto	u2791
  5197  00274C  EFAA  F013         	goto	u2790
  5198  002750                     u2791:
  5199  002750  EFB3  F013         	goto	l670
  5200  002754                     u2790:
  5201  002754                     
  5202                           ;mcc_generated_files/i2c1_master.c: 547:     {;mcc_generated_files/i2c1_master.c: 548:  
      +                                 SSP1STAT = 0x00;
  5203  002754  0E00               	movlw	0
  5204  002756  6E94               	movwf	148,c	;volatile
  5205                           
  5206                           ;mcc_generated_files/i2c1_master.c: 549:         SSP1CON1 = 0x08;
  5207  002758  0E08               	movlw	8
  5208  00275A  6E95               	movwf	149,c	;volatile
  5209                           
  5210                           ;mcc_generated_files/i2c1_master.c: 550:         SSP1CON2 = 0x00;
  5211  00275C  0E00               	movlw	0
  5212  00275E  6E96               	movwf	150,c	;volatile
  5213                           
  5214                           ;mcc_generated_files/i2c1_master.c: 551:         SSP1ADD = 0x09;
  5215  002760  0E09               	movlw	9
  5216  002762  6E92               	movwf	146,c	;volatile
  5217  002764                     
  5218                           ;mcc_generated_files/i2c1_master.c: 552:         SSP1CON1bits.SSPEN = 1;
  5219  002764  8A95               	bsf	149,5,c	;volatile
  5220  002766                     l670:
  5221  002766  0012               	return		;funcret
  5222  002768                     __end_of_I2C1_MasterOpen:
  5223                           	callstack 0
  5224                           
  5225 ;; *************** function _I2C1_MasterEnableIrq *****************
  5226 ;; Defined at:
  5227 ;;		line 627 in file "mcc_generated_files/i2c1_master.c"
  5228 ;; Parameters:    Size  Location     Type
  5229 ;;		None
  5230 ;; Auto vars:     Size  Location     Type
  5231 ;;		None
  5232 ;; Return value:  Size  Location     Type
  5233 ;;                  1    wreg      void 
  5234 ;; Registers used:
  5235 ;;		None
  5236 ;; Tracked objects:
  5237 ;;		On entry : 0/0
  5238 ;;		On exit  : 0/0
  5239 ;;		Unchanged: 0/0
  5240 ;; Data sizes:     COMRAM   BANK0   BANK1   BANK2   BANK3   BANK4   BANK5   BANK6   BANK7   BANK8   BANK9  BANK10  BANK1
      +1  BANK12  BANK14
  5241 ;;      Params:         0       0       0       0       0       0       0       0       0       0       0       0       
      +0       0       0
  5242 ;;      Locals:         0       0       0       0       0       0       0       0       0       0       0       0       
      +0       0       0
  5243 ;;      Temps:          0       0       0       0       0       0       0       0       0       0       0       0       
      +0       0       0
  5244 ;;      Totals:         0       0       0       0       0       0       0       0       0       0       0       0       
      +0       0       0
  5245 ;;Total ram usage:        0 bytes
  5246 ;; Hardware stack levels used: 1
  5247 ;; Hardware stack levels required when called: 7
  5248 ;; This function calls:
  5249 ;;		Nothing
  5250 ;; This function is called by:
  5251 ;;		_I2C1_Open
  5252 ;;		_I2C1_SetTimeOut
  5253 ;; This function uses a non-reentrant model
  5254 ;;
  5255                           
  5256                           	psect	text37
  5257  002924                     __ptext37:
  5258                           	callstack 0
  5259  002924                     _I2C1_MasterEnableIrq:
  5260                           	callstack 21
  5261  002924                     
  5262                           ;mcc_generated_files/i2c1_master.c: 629:     PIE3bits.SSP1IE = 1;
  5263  002924  010E               	movlb	14	; () banked
  5264  002926  81C0               	bsf	192,0,b	;volatile
  5265  002928                     
  5266                           ; BSR set to: 14
  5267  002928  0012               	return		;funcret
  5268  00292A                     __end_of_I2C1_MasterEnableIrq:
  5269                           	callstack 0
  5270                           
  5271 ;; *************** function _I2C1_MasterWrite *****************
  5272 ;; Defined at:
  5273 ;;		line 252 in file "mcc_generated_files/i2c1_master.c"
  5274 ;; Parameters:    Size  Location     Type
  5275 ;;		None
  5276 ;; Auto vars:     Size  Location     Type
  5277 ;;		None
  5278 ;; Return value:  Size  Location     Type
  5279 ;;                  1    wreg      enum E355
  5280 ;; Registers used:
  5281 ;;		wreg, status,2, cstack
  5282 ;; Tracked objects:
  5283 ;;		On entry : 0/0
  5284 ;;		On exit  : 0/0
  5285 ;;		Unchanged: 0/0
  5286 ;; Data sizes:     COMRAM   BANK0   BANK1   BANK2   BANK3   BANK4   BANK5   BANK6   BANK7   BANK8   BANK9  BANK10  BANK1
      +1  BANK12  BANK14
  5287 ;;      Params:         0       0       0       0       0       0       0       0       0       0       0       0       
      +0       0       0
  5288 ;;      Locals:         0       0       0       0       0       0       0       0       0       0       0       0       
      +0       0       0
  5289 ;;      Temps:          0       0       0       0       0       0       0       0       0       0       0       0       
      +0       0       0
  5290 ;;      Totals:         0       0       0       0       0       0       0       0       0       0       0       0       
      +0       0       0
  5291 ;;Total ram usage:        0 bytes
  5292 ;; Hardware stack levels used: 1
  5293 ;; Hardware stack levels required when called: 9
  5294 ;; This function calls:
  5295 ;;		_I2C1_MasterOperation
  5296 ;; This function is called by:
  5297 ;;		_FRAM_WriteNBytes
  5298 ;;		_FRAM_ReadNBytes
  5299 ;;		_I2C1_WriteNBytes
  5300 ;;		_I2C1_WriteByte
  5301 ;;		_I2C1_ReadNBytes
  5302 ;;		_I2C1_ReadByte
  5303 ;;		_FRAM_WriteByte
  5304 ;;		_FRAM_ReadByte
  5305 ;; This function uses a non-reentrant model
  5306 ;;
  5307                           
  5308                           	psect	text38
  5309  0028D4                     __ptext38:
  5310                           	callstack 0
  5311  0028D4                     _I2C1_MasterWrite:
  5312                           	callstack 20
  5313  0028D4                     
  5314                           ;mcc_generated_files/i2c1_master.c: 254:     return I2C1_MasterOperation(0);;	Return val
      +                          ue of _I2C1_MasterWrite is never used
  5315  0028D4  0E00               	movlw	0
  5316  0028D6  ECA4  F012         	call	_I2C1_MasterOperation
  5317  0028DA  0012               	return		;funcret
  5318  0028DC                     __end_of_I2C1_MasterWrite:
  5319                           	callstack 0
  5320                           
  5321 ;; *************** function _I2C1_MasterOperation *****************
  5322 ;; Defined at:
  5323 ;;		line 226 in file "mcc_generated_files/i2c1_master.c"
  5324 ;; Parameters:    Size  Location     Type
  5325 ;;  read            1    wreg     _Bool 
  5326 ;; Auto vars:     Size  Location     Type
  5327 ;;  read            1   25[COMRAM] _Bool 
  5328 ;;  returnValue     1   26[COMRAM] enum E355
  5329 ;; Return value:  Size  Location     Type
  5330 ;;                  1    wreg      enum E355
  5331 ;; Registers used:
  5332 ;;		wreg, status,2, cstack
  5333 ;; Tracked objects:
  5334 ;;		On entry : 0/0
  5335 ;;		On exit  : 0/0
  5336 ;;		Unchanged: 0/0
  5337 ;; Data sizes:     COMRAM   BANK0   BANK1   BANK2   BANK3   BANK4   BANK5   BANK6   BANK7   BANK8   BANK9  BANK10  BANK1
      +1  BANK12  BANK14
  5338 ;;      Params:         0       0       0       0       0       0       0       0       0       0       0       0       
      +0       0       0
  5339 ;;      Locals:         2       0       0       0       0       0       0       0       0       0       0       0       
      +0       0       0
  5340 ;;      Temps:          0       0       0       0       0       0       0       0       0       0       0       0       
      +0       0       0
  5341 ;;      Totals:         2       0       0       0       0       0       0       0       0       0       0       0       
      +0       0       0
  5342 ;;Total ram usage:        2 bytes
  5343 ;; Hardware stack levels used: 1
  5344 ;; Hardware stack levels required when called: 8
  5345 ;; This function calls:
  5346 ;;		_I2C1_MasterStart
  5347 ;; This function is called by:
  5348 ;;		_I2C1_MasterWrite
  5349 ;;		_I2C1_MasterRead
  5350 ;; This function uses a non-reentrant model
  5351 ;;
  5352                           
  5353                           	psect	text39
  5354  002548                     __ptext39:
  5355                           	callstack 0
  5356  002548                     _I2C1_MasterOperation:
  5357                           	callstack 20
  5358                           
  5359                           ;incstack = 0
  5360                           ;I2C1_MasterOperation@read stored from wreg
  5361  002548  6E1A               	movwf	I2C1_MasterOperation@read^0,c
  5362  00254A                     
  5363                           ;mcc_generated_files/i2c1_master.c: 226: i2c1_error_t I2C1_MasterOperation(_Bool read);m
      +                          cc_generated_files/i2c1_master.c: 227: {;mcc_generated_files/i2c1_master.c: 228:     i2c
      +                          1_error_t returnValue = I2C1_BUSY;
  5364  00254A  0E01               	movlw	1
  5365  00254C  6E1B               	movwf	I2C1_MasterOperation@returnValue^0,c
  5366  00254E                     
  5367                           ;mcc_generated_files/i2c1_master.c: 229:     if(!I2C1_Status.busy)
  5368  00254E  0100               	movlb	0	; () banked
  5369  002550  B389               	btfsc	(_I2C1_Status+41)& (0+255),1,b
  5370  002552  EFAD  F012         	goto	u2801
  5371  002556  EFAF  F012         	goto	u2800
  5372  00255A                     u2801:
  5373  00255A  EFC2  F012         	goto	l4667
  5374  00255E                     u2800:
  5375  00255E                     
  5376                           ; BSR set to: 0
  5377                           ;mcc_generated_files/i2c1_master.c: 230:     {;mcc_generated_files/i2c1_master.c: 231:  
      +                                 I2C1_Status.busy = 1;
  5378  00255E  8389               	bsf	(_I2C1_Status+41)& (0+255),1,b
  5379  002560                     
  5380                           ; BSR set to: 0
  5381                           ;mcc_generated_files/i2c1_master.c: 232:         returnValue = I2C1_NOERR;
  5382  002560  0E00               	movlw	0
  5383  002562  6E1B               	movwf	I2C1_MasterOperation@returnValue^0,c
  5384  002564                     
  5385                           ; BSR set to: 0
  5386                           ;mcc_generated_files/i2c1_master.c: 234:         if(read)
  5387  002564  501A               	movf	I2C1_MasterOperation@read^0,w,c
  5388  002566  B4D8               	btfsc	status,2,c
  5389  002568  EFB8  F012         	goto	u2811
  5390  00256C  EFBA  F012         	goto	u2810
  5391  002570                     u2811:
  5392  002570  EFBE  F012         	goto	l4663
  5393  002574                     u2810:
  5394  002574                     
  5395                           ; BSR set to: 0
  5396                           ;mcc_generated_files/i2c1_master.c: 235:         {;mcc_generated_files/i2c1_master.c: 23
      +                          6:             I2C1_Status.state = I2C1_SEND_ADR_READ;
  5397  002574  0E01               	movlw	1
  5398  002576  6F87               	movwf	(_I2C1_Status+39)& (0+255),b
  5399                           
  5400                           ;mcc_generated_files/i2c1_master.c: 237:         }
  5401  002578  EFC0  F012         	goto	l4665
  5402  00257C                     l4663:
  5403                           
  5404                           ; BSR set to: 0
  5405                           ;mcc_generated_files/i2c1_master.c: 239:         {;mcc_generated_files/i2c1_master.c: 24
      +                          0:             I2C1_Status.state = I2C1_SEND_ADR_WRITE;
  5406  00257C  0E02               	movlw	2
  5407  00257E  6F87               	movwf	(_I2C1_Status+39)& (0+255),b
  5408  002580                     l4665:
  5409                           
  5410                           ; BSR set to: 0
  5411                           ;mcc_generated_files/i2c1_master.c: 242:         I2C1_MasterStart();
  5412  002580  ECAF  F014         	call	_I2C1_MasterStart	;wreg free
  5413  002584                     l4667:
  5414                           
  5415                           ;mcc_generated_files/i2c1_master.c: 244:     return returnValue;
  5416  002584  501B               	movf	I2C1_MasterOperation@returnValue^0,w,c
  5417  002586  0012               	return		;funcret
  5418  002588                     __end_of_I2C1_MasterOperation:
  5419                           	callstack 0
  5420                           
  5421 ;; *************** function _I2C1_MasterStart *****************
  5422 ;; Defined at:
  5423 ;;		line 589 in file "mcc_generated_files/i2c1_master.c"
  5424 ;; Parameters:    Size  Location     Type
  5425 ;;		None
  5426 ;; Auto vars:     Size  Location     Type
  5427 ;;		None
  5428 ;; Return value:  Size  Location     Type
  5429 ;;                  1    wreg      void 
  5430 ;; Registers used:
  5431 ;;		None
  5432 ;; Tracked objects:
  5433 ;;		On entry : 0/0
  5434 ;;		On exit  : 0/0
  5435 ;;		Unchanged: 0/0
  5436 ;; Data sizes:     COMRAM   BANK0   BANK1   BANK2   BANK3   BANK4   BANK5   BANK6   BANK7   BANK8   BANK9  BANK10  BANK1
      +1  BANK12  BANK14
  5437 ;;      Params:         0       0       0       0       0       0       0       0       0       0       0       0       
      +0       0       0
  5438 ;;      Locals:         0       0       0       0       0       0       0       0       0       0       0       0       
      +0       0       0
  5439 ;;      Temps:          0       0       0       0       0       0       0       0       0       0       0       0       
      +0       0       0
  5440 ;;      Totals:         0       0       0       0       0       0       0       0       0       0       0       0       
      +0       0       0
  5441 ;;Total ram usage:        0 bytes
  5442 ;; Hardware stack levels used: 1
  5443 ;; Hardware stack levels required when called: 7
  5444 ;; This function calls:
  5445 ;;		Nothing
  5446 ;; This function is called by:
  5447 ;;		_I2C1_MasterOperation
  5448 ;; This function uses a non-reentrant model
  5449 ;;
  5450                           
  5451                           	psect	text40
  5452  00295E                     __ptext40:
  5453                           	callstack 0
  5454  00295E                     _I2C1_MasterStart:
  5455                           	callstack 20
  5456  00295E                     
  5457                           ;mcc_generated_files/i2c1_master.c: 591:     SSP1CON2bits.SEN = 1;
  5458  00295E  8096               	bsf	150,0,c	;volatile
  5459  002960  0012               	return		;funcret
  5460  002962                     __end_of_I2C1_MasterStart:
  5461                           	callstack 0
  5462                           
  5463 ;; *************** function _I2C1_Close *****************
  5464 ;; Defined at:
  5465 ;;		line 211 in file "mcc_generated_files/i2c1_master.c"
  5466 ;; Parameters:    Size  Location     Type
  5467 ;;		None
  5468 ;; Auto vars:     Size  Location     Type
  5469 ;;  returnValue     1   25[COMRAM] enum E355
  5470 ;; Return value:  Size  Location     Type
  5471 ;;                  1    wreg      enum E355
  5472 ;; Registers used:
  5473 ;;		wreg, status,2, cstack
  5474 ;; Tracked objects:
  5475 ;;		On entry : 0/0
  5476 ;;		On exit  : 0/0
  5477 ;;		Unchanged: 0/0
  5478 ;; Data sizes:     COMRAM   BANK0   BANK1   BANK2   BANK3   BANK4   BANK5   BANK6   BANK7   BANK8   BANK9  BANK10  BANK1
      +1  BANK12  BANK14
  5479 ;;      Params:         0       0       0       0       0       0       0       0       0       0       0       0       
      +0       0       0
  5480 ;;      Locals:         1       0       0       0       0       0       0       0       0       0       0       0       
      +0       0       0
  5481 ;;      Temps:          0       0       0       0       0       0       0       0       0       0       0       0       
      +0       0       0
  5482 ;;      Totals:         1       0       0       0       0       0       0       0       0       0       0       0       
      +0       0       0
  5483 ;;Total ram usage:        1 bytes
  5484 ;; Hardware stack levels used: 1
  5485 ;; Hardware stack levels required when called: 8
  5486 ;; This function calls:
  5487 ;;		_I2C1_MasterClearIrq
  5488 ;;		_I2C1_MasterClose
  5489 ;;		_I2C1_MasterDisableIrq
  5490 ;; This function is called by:
  5491 ;;		_FRAM_WriteNBytes
  5492 ;;		_FRAM_ReadNBytes
  5493 ;;		_I2C1_WriteNBytes
  5494 ;;		_I2C1_WriteByte
  5495 ;;		_I2C1_ReadNBytes
  5496 ;;		_I2C1_ReadByte
  5497 ;;		_FRAM_WriteByte
  5498 ;;		_FRAM_ReadByte
  5499 ;; This function uses a non-reentrant model
  5500 ;;
  5501                           
  5502                           	psect	text41
  5503  00267E                     __ptext41:
  5504                           	callstack 0
  5505  00267E                     _I2C1_Close:
  5506                           	callstack 21
  5507  00267E                     
  5508                           ;mcc_generated_files/i2c1_master.c: 213:     i2c1_error_t returnValue = I2C1_BUSY;
  5509  00267E  0E01               	movlw	1
  5510  002680  6E1A               	movwf	I2C1_Close@returnValue^0,c
  5511  002682                     
  5512                           ;mcc_generated_files/i2c1_master.c: 214:     if(!I2C1_Status.busy)
  5513  002682  0100               	movlb	0	; () banked
  5514  002684  B389               	btfsc	(_I2C1_Status+41)& (0+255),1,b
  5515  002686  EF47  F013         	goto	u2971
  5516  00268A  EF49  F013         	goto	u2970
  5517  00268E                     u2971:
  5518  00268E  EF53  F013         	goto	l4937
  5519  002692                     u2970:
  5520  002692                     
  5521                           ; BSR set to: 0
  5522                           ;mcc_generated_files/i2c1_master.c: 215:     {;mcc_generated_files/i2c1_master.c: 216:  
      +                                 I2C1_Status.inUse = 0;
  5523  002692  9589               	bcf	(_I2C1_Status+41)& (0+255),2,b
  5524                           
  5525                           ;mcc_generated_files/i2c1_master.c: 217:         I2C1_Status.address = 0xff;
  5526  002694  6982               	setf	(_I2C1_Status+34)& (0+255),b
  5527  002696                     
  5528                           ; BSR set to: 0
  5529                           ;mcc_generated_files/i2c1_master.c: 218:         I2C1_MasterClearIrq();
  5530  002696  EC98  F014         	call	_I2C1_MasterClearIrq	;wreg free
  5531                           
  5532                           ;mcc_generated_files/i2c1_master.c: 219:         I2C1_MasterDisableIrq();
  5533  00269A  EC95  F014         	call	_I2C1_MasterDisableIrq	;wreg free
  5534                           
  5535                           ;mcc_generated_files/i2c1_master.c: 220:         I2C1_MasterClose();
  5536  00269E  ECB1  F014         	call	_I2C1_MasterClose	;wreg free
  5537  0026A2                     
  5538                           ;mcc_generated_files/i2c1_master.c: 221:         returnValue = I2C1_Status.error;
  5539  0026A2  C088  F01A         	movff	_I2C1_Status+40,I2C1_Close@returnValue
  5540  0026A6                     l4937:
  5541                           
  5542                           ;mcc_generated_files/i2c1_master.c: 223:     return returnValue;
  5543  0026A6  501A               	movf	I2C1_Close@returnValue^0,w,c
  5544  0026A8  0012               	return		;funcret
  5545  0026AA                     __end_of_I2C1_Close:
  5546                           	callstack 0
  5547                           
  5548 ;; *************** function _I2C1_MasterDisableIrq *****************
  5549 ;; Defined at:
  5550 ;;		line 637 in file "mcc_generated_files/i2c1_master.c"
  5551 ;; Parameters:    Size  Location     Type
  5552 ;;		None
  5553 ;; Auto vars:     Size  Location     Type
  5554 ;;		None
  5555 ;; Return value:  Size  Location     Type
  5556 ;;                  1    wreg      void 
  5557 ;; Registers used:
  5558 ;;		None
  5559 ;; Tracked objects:
  5560 ;;		On entry : 0/0
  5561 ;;		On exit  : 0/0
  5562 ;;		Unchanged: 0/0
  5563 ;; Data sizes:     COMRAM   BANK0   BANK1   BANK2   BANK3   BANK4   BANK5   BANK6   BANK7   BANK8   BANK9  BANK10  BANK1
      +1  BANK12  BANK14
  5564 ;;      Params:         0       0       0       0       0       0       0       0       0       0       0       0       
      +0       0       0
  5565 ;;      Locals:         0       0       0       0       0       0       0       0       0       0       0       0       
      +0       0       0
  5566 ;;      Temps:          0       0       0       0       0       0       0       0       0       0       0       0       
      +0       0       0
  5567 ;;      Totals:         0       0       0       0       0       0       0       0       0       0       0       0       
      +0       0       0
  5568 ;;Total ram usage:        0 bytes
  5569 ;; Hardware stack levels used: 1
  5570 ;; Hardware stack levels required when called: 7
  5571 ;; This function calls:
  5572 ;;		Nothing
  5573 ;; This function is called by:
  5574 ;;		_I2C1_Close
  5575 ;;		_I2C1_SetTimeOut
  5576 ;; This function uses a non-reentrant model
  5577 ;;
  5578                           
  5579                           	psect	text42
  5580  00292A                     __ptext42:
  5581                           	callstack 0
  5582  00292A                     _I2C1_MasterDisableIrq:
  5583                           	callstack 21
  5584  00292A                     
  5585                           ;mcc_generated_files/i2c1_master.c: 639:     PIE3bits.SSP1IE = 0;
  5586  00292A  010E               	movlb	14	; () banked
  5587  00292C  91C0               	bcf	192,0,b	;volatile
  5588  00292E                     
  5589                           ; BSR set to: 14
  5590  00292E  0012               	return		;funcret
  5591  002930                     __end_of_I2C1_MasterDisableIrq:
  5592                           	callstack 0
  5593                           
  5594 ;; *************** function _I2C1_MasterClose *****************
  5595 ;; Defined at:
  5596 ;;		line 558 in file "mcc_generated_files/i2c1_master.c"
  5597 ;; Parameters:    Size  Location     Type
  5598 ;;		None
  5599 ;; Auto vars:     Size  Location     Type
  5600 ;;		None
  5601 ;; Return value:  Size  Location     Type
  5602 ;;                  1    wreg      void 
  5603 ;; Registers used:
  5604 ;;		None
  5605 ;; Tracked objects:
  5606 ;;		On entry : 0/0
  5607 ;;		On exit  : 0/0
  5608 ;;		Unchanged: 0/0
  5609 ;; Data sizes:     COMRAM   BANK0   BANK1   BANK2   BANK3   BANK4   BANK5   BANK6   BANK7   BANK8   BANK9  BANK10  BANK1
      +1  BANK12  BANK14
  5610 ;;      Params:         0       0       0       0       0       0       0       0       0       0       0       0       
      +0       0       0
  5611 ;;      Locals:         0       0       0       0       0       0       0       0       0       0       0       0       
      +0       0       0
  5612 ;;      Temps:          0       0       0       0       0       0       0       0       0       0       0       0       
      +0       0       0
  5613 ;;      Totals:         0       0       0       0       0       0       0       0       0       0       0       0       
      +0       0       0
  5614 ;;Total ram usage:        0 bytes
  5615 ;; Hardware stack levels used: 1
  5616 ;; Hardware stack levels required when called: 7
  5617 ;; This function calls:
  5618 ;;		Nothing
  5619 ;; This function is called by:
  5620 ;;		_I2C1_Close
  5621 ;; This function uses a non-reentrant model
  5622 ;;
  5623                           
  5624                           	psect	text43
  5625  002962                     __ptext43:
  5626                           	callstack 0
  5627  002962                     _I2C1_MasterClose:
  5628                           	callstack 21
  5629  002962                     
  5630                           ;mcc_generated_files/i2c1_master.c: 561:     SSP1CON1bits.SSPEN = 0;
  5631  002962  9A95               	bcf	149,5,c	;volatile
  5632  002964  0012               	return		;funcret
  5633  002966                     __end_of_I2C1_MasterClose:
  5634                           	callstack 0
  5635                           
  5636 ;; *************** function _I2C1_MasterClearIrq *****************
  5637 ;; Defined at:
  5638 ;;		line 642 in file "mcc_generated_files/i2c1_master.c"
  5639 ;; Parameters:    Size  Location     Type
  5640 ;;		None
  5641 ;; Auto vars:     Size  Location     Type
  5642 ;;		None
  5643 ;; Return value:  Size  Location     Type
  5644 ;;                  1    wreg      void 
  5645 ;; Registers used:
  5646 ;;		None
  5647 ;; Tracked objects:
  5648 ;;		On entry : 0/0
  5649 ;;		On exit  : 0/0
  5650 ;;		Unchanged: 0/0
  5651 ;; Data sizes:     COMRAM   BANK0   BANK1   BANK2   BANK3   BANK4   BANK5   BANK6   BANK7   BANK8   BANK9  BANK10  BANK1
      +1  BANK12  BANK14
  5652 ;;      Params:         0       0       0       0       0       0       0       0       0       0       0       0       
      +0       0       0
  5653 ;;      Locals:         0       0       0       0       0       0       0       0       0       0       0       0       
      +0       0       0
  5654 ;;      Temps:          0       0       0       0       0       0       0       0       0       0       0       0       
      +0       0       0
  5655 ;;      Totals:         0       0       0       0       0       0       0       0       0       0       0       0       
      +0       0       0
  5656 ;;Total ram usage:        0 bytes
  5657 ;; Hardware stack levels used: 1
  5658 ;; Hardware stack levels required when called: 7
  5659 ;; This function calls:
  5660 ;;		Nothing
  5661 ;; This function is called by:
  5662 ;;		_I2C1_Open
  5663 ;;		_I2C1_Close
  5664 ;; This function uses a non-reentrant model
  5665 ;;
  5666                           
  5667                           	psect	text44
  5668  002930                     __ptext44:
  5669                           	callstack 0
  5670  002930                     _I2C1_MasterClearIrq:
  5671                           	callstack 21
  5672  002930                     
  5673                           ;mcc_generated_files/i2c1_master.c: 644:     PIR3bits.SSP1IF = 0;
  5674  002930  010E               	movlb	14	; () banked
  5675  002932  91C8               	bcf	200,0,b	;volatile
  5676  002934                     
  5677                           ; BSR set to: 14
  5678  002934  0012               	return		;funcret
  5679  002936                     __end_of_I2C1_MasterClearIrq:
  5680                           	callstack 0
  5681                           
  5682 ;; *************** function _INTERRUPT_InterruptManager *****************
  5683 ;; Defined at:
  5684 ;;		line 58 in file "mcc_generated_files/interrupt_manager.c"
  5685 ;; Parameters:    Size  Location     Type
  5686 ;;		None
  5687 ;; Auto vars:     Size  Location     Type
  5688 ;;		None
  5689 ;; Return value:  Size  Location     Type
  5690 ;;                  1    wreg      void 
  5691 ;; Registers used:
  5692 ;;		wreg, fsr2l, fsr2h, status,2, status,0, pcl, pclath, pclatu, tosl, tblptrl, tblptrh, tblptru, prodl, prodh, cstack
  5693 ;; Tracked objects:
  5694 ;;		On entry : 0/0
  5695 ;;		On exit  : 0/0
  5696 ;;		Unchanged: 0/0
  5697 ;; Data sizes:     COMRAM   BANK0   BANK1   BANK2   BANK3   BANK4   BANK5   BANK6   BANK7   BANK8   BANK9  BANK10  BANK1
      +1  BANK12  BANK14
  5698 ;;      Params:         0       0       0       0       0       0       0       0       0       0       0       0       
      +0       0       0
  5699 ;;      Locals:         0       0       0       0       0       0       0       0       0       0       0       0       
      +0       0       0
  5700 ;;      Temps:         10       0       0       0       0       0       0       0       0       0       0       0       
      +0       0       0
  5701 ;;      Totals:        10       0       0       0       0       0       0       0       0       0       0       0       
      +0       0       0
  5702 ;;Total ram usage:       10 bytes
  5703 ;; Hardware stack levels used: 1
  5704 ;; Hardware stack levels required when called: 6
  5705 ;; This function calls:
  5706 ;;		Absolute function
  5707 ;;		_EUSART2_Receive_ISR
  5708 ;;		_EUSART2_Transmit_ISR
  5709 ;;		_I2C1_MasterIsr
  5710 ;; This function is called by:
  5711 ;;		Interrupt level 2
  5712 ;; This function uses a non-reentrant model
  5713 ;;
  5714                           
  5715                           	psect	intcode
  5716  000008                     __pintcode:
  5717                           	callstack 0
  5718  000008                     _INTERRUPT_InterruptManager:
  5719                           	callstack 15
  5720                           
  5721                           ; BSR set to: 14
  5722                           ;incstack = 0
  5723  000008  8246               	bsf	int$flags,1,c	;set compiler interrupt flag (level 2)
  5724  00000A  CFFA F010          	movff	pclath,??_INTERRUPT_InterruptManager
  5725  00000E  CFFB F011          	movff	pclatu,??_INTERRUPT_InterruptManager+1
  5726  000012  CFD9 F012          	movff	fsr2l,??_INTERRUPT_InterruptManager+2
  5727  000016  CFDA F013          	movff	fsr2h,??_INTERRUPT_InterruptManager+3
  5728  00001A  CFF3 F014          	movff	prodl,??_INTERRUPT_InterruptManager+4
  5729  00001E  CFF4 F015          	movff	prodh,??_INTERRUPT_InterruptManager+5
  5730  000022  CFF6 F016          	movff	tblptrl,??_INTERRUPT_InterruptManager+6
  5731  000026  CFF7 F017          	movff	tblptrh,??_INTERRUPT_InterruptManager+7
  5732  00002A  CFF8 F018          	movff	tblptru,??_INTERRUPT_InterruptManager+8
  5733  00002E  CFF5 F019          	movff	tablat,??_INTERRUPT_InterruptManager+9
  5734  000032                     
  5735                           ;mcc_generated_files/interrupt_manager.c: 61:     if(INTCONbits.PEIE == 1)
  5736  000032  ACF2               	btfss	242,6,c	;volatile
  5737  000034  EF1E  F000         	goto	i2u315_41
  5738  000038  EF20  F000         	goto	i2u315_40
  5739  00003C                     i2u315_41:
  5740  00003C  EF8A  F000         	goto	i2l263
  5741  000040                     i2u315_40:
  5742  000040                     
  5743                           ;mcc_generated_files/interrupt_manager.c: 62:     {;mcc_generated_files/interrupt_manage
      +                          r.c: 63:         if(PIE3bits.TX2IE == 1 && PIR3bits.TX2IF == 1)
  5744  000040  010E               	movlb	14	; () banked
  5745  000042  ADC0               	btfss	192,6,b	;volatile
  5746  000044  EF26  F000         	goto	i2u316_41
  5747  000048  EF28  F000         	goto	i2u316_40
  5748  00004C                     i2u316_41:
  5749  00004C  EF3F  F000         	goto	i2l254
  5750  000050                     i2u316_40:
  5751  000050                     
  5752                           ; BSR set to: 14
  5753  000050  ADC8               	btfss	200,6,b	;volatile
  5754  000052  EF2D  F000         	goto	i2u317_41
  5755  000056  EF2F  F000         	goto	i2u317_40
  5756  00005A                     i2u317_41:
  5757  00005A  EF3F  F000         	goto	i2l254
  5758  00005E                     i2u317_40:
  5759  00005E                     
  5760                           ; BSR set to: 14
  5761                           ;mcc_generated_files/interrupt_manager.c: 64:         {;mcc_generated_files/interrupt_ma
      +                          nager.c: 65:             EUSART2_TxDefaultInterruptHandler();
  5762  00005E  D802               	call	i2u318_48
  5763  000060  EF3D  F000         	goto	i2u318_49
  5764  000064                     i2u318_48:
  5765  000064  0005               	push	
  5766  000066  6EFA               	movwf	pclath,c
  5767  000068  0100               	movlb	0	; () banked
  5768  00006A  51FD               	movf	_EUSART2_TxDefaultInterruptHandler& (0+255),w,b
  5769  00006C  6EFD               	movwf	tosl,c
  5770  00006E  51FE               	movf	(_EUSART2_TxDefaultInterruptHandler+1)& (0+255),w,b
  5771  000070  6EFE               	movwf	tosh,c
  5772  000072  51FF               	movf	(_EUSART2_TxDefaultInterruptHandler+2)& (0+255),w,b
  5773  000074  6EFF               	movwf	tosu,c
  5774  000076  50FA               	movf	pclath,w,c
  5775  000078  0012               	return		;indir
  5776  00007A                     i2u318_49:
  5777                           
  5778                           ;mcc_generated_files/interrupt_manager.c: 66:         }
  5779  00007A  EF8A  F000         	goto	i2l263
  5780  00007E                     i2l254:
  5781                           
  5782                           ; BSR set to: 14
  5783  00007E  AFC0               	btfss	192,7,b	;volatile
  5784  000080  EF44  F000         	goto	i2u319_41
  5785  000084  EF46  F000         	goto	i2u319_40
  5786  000088                     i2u319_41:
  5787  000088  EF5D  F000         	goto	i2l256
  5788  00008C                     i2u319_40:
  5789  00008C                     
  5790                           ; BSR set to: 14
  5791  00008C  AFC8               	btfss	200,7,b	;volatile
  5792  00008E  EF4B  F000         	goto	i2u320_41
  5793  000092  EF4D  F000         	goto	i2u320_40
  5794  000096                     i2u320_41:
  5795  000096  EF5D  F000         	goto	i2l256
  5796  00009A                     i2u320_40:
  5797  00009A                     
  5798                           ; BSR set to: 14
  5799                           ;mcc_generated_files/interrupt_manager.c: 68:         {;mcc_generated_files/interrupt_ma
      +                          nager.c: 69:             EUSART2_RxDefaultInterruptHandler();
  5800  00009A  D802               	call	i2u321_48
  5801  00009C  EF5B  F000         	goto	i2u321_49
  5802  0000A0                     i2u321_48:
  5803  0000A0  0005               	push	
  5804  0000A2  6EFA               	movwf	pclath,c
  5805  0000A4  0100               	movlb	0	; () banked
  5806  0000A6  51FA               	movf	_EUSART2_RxDefaultInterruptHandler& (0+255),w,b
  5807  0000A8  6EFD               	movwf	tosl,c
  5808  0000AA  51FB               	movf	(_EUSART2_RxDefaultInterruptHandler+1)& (0+255),w,b
  5809  0000AC  6EFE               	movwf	tosh,c
  5810  0000AE  51FC               	movf	(_EUSART2_RxDefaultInterruptHandler+2)& (0+255),w,b
  5811  0000B0  6EFF               	movwf	tosu,c
  5812  0000B2  50FA               	movf	pclath,w,c
  5813  0000B4  0012               	return		;indir
  5814  0000B6                     i2u321_49:
  5815                           
  5816                           ;mcc_generated_files/interrupt_manager.c: 70:         }
  5817  0000B6  EF8A  F000         	goto	i2l263
  5818  0000BA                     i2l256:
  5819                           
  5820                           ; BSR set to: 14
  5821  0000BA  A3C0               	btfss	192,1,b	;volatile
  5822  0000BC  EF62  F000         	goto	i2u322_41
  5823  0000C0  EF64  F000         	goto	i2u322_40
  5824  0000C4                     i2u322_41:
  5825  0000C4  EF7A  F000         	goto	i2l258
  5826  0000C8                     i2u322_40:
  5827  0000C8                     
  5828                           ; BSR set to: 14
  5829  0000C8  A3C8               	btfss	200,1,b	;volatile
  5830  0000CA  EF69  F000         	goto	i2u323_41
  5831  0000CE  EF6B  F000         	goto	i2u323_40
  5832  0000D2                     i2u323_41:
  5833  0000D2  EF7A  F000         	goto	i2l258
  5834  0000D6                     i2u323_40:
  5835  0000D6                     i2l5213:
  5836                           
  5837                           ; BSR set to: 14
  5838                           ;mcc_generated_files/interrupt_manager.c: 72:         {;mcc_generated_files/interrupt_ma
      +                          nager.c: 73:             MSSP1_InterruptHandler();
  5839  0000D6  D802               	call	i2u324_48
  5840  0000D8  EF78  F000         	goto	i2u324_49
  5841  0000DC                     i2u324_48:
  5842  0000DC  0005               	push	
  5843  0000DE  6EFA               	movwf	pclath,c
  5844  0000E0  502E               	movf	_MSSP1_InterruptHandler^0,w,c
  5845  0000E2  6EFD               	movwf	tosl,c
  5846  0000E4  502F               	movf	(_MSSP1_InterruptHandler+1)^0,w,c
  5847  0000E6  6EFE               	movwf	tosh,c
  5848  0000E8  5030               	movf	(_MSSP1_InterruptHandler+2)^0,w,c
  5849  0000EA  6EFF               	movwf	tosu,c
  5850  0000EC  50FA               	movf	pclath,w,c
  5851  0000EE  0012               	return		;indir
  5852  0000F0                     i2u324_49:
  5853                           
  5854                           ;mcc_generated_files/interrupt_manager.c: 74:         }
  5855  0000F0  EF8A  F000         	goto	i2l263
  5856  0000F4                     i2l258:
  5857                           
  5858                           ; BSR set to: 14
  5859  0000F4  A1C0               	btfss	192,0,b	;volatile
  5860  0000F6  EF7F  F000         	goto	i2u325_41
  5861  0000FA  EF81  F000         	goto	i2u325_40
  5862  0000FE                     i2u325_41:
  5863  0000FE  EF8A  F000         	goto	i2l257
  5864  000102                     i2u325_40:
  5865  000102                     
  5866                           ; BSR set to: 14
  5867  000102  A1C8               	btfss	200,0,b	;volatile
  5868  000104  EF86  F000         	goto	i2u326_41
  5869  000108  EF88  F000         	goto	i2u326_40
  5870  00010C                     i2u326_41:
  5871  00010C  EF8A  F000         	goto	i2l257
  5872  000110                     i2u326_40:
  5873  000110  EF6B  F000         	goto	i2l5213
  5874  000114                     i2l257:
  5875  000114                     i2l263:
  5876  000114  C019  FFF5         	movff	??_INTERRUPT_InterruptManager+9,tablat
  5877  000118  C018  FFF8         	movff	??_INTERRUPT_InterruptManager+8,tblptru
  5878  00011C  C017  FFF7         	movff	??_INTERRUPT_InterruptManager+7,tblptrh
  5879  000120  C016  FFF6         	movff	??_INTERRUPT_InterruptManager+6,tblptrl
  5880  000124  C015  FFF4         	movff	??_INTERRUPT_InterruptManager+5,prodh
  5881  000128  C014  FFF3         	movff	??_INTERRUPT_InterruptManager+4,prodl
  5882  00012C  C013  FFDA         	movff	??_INTERRUPT_InterruptManager+3,fsr2h
  5883  000130  C012  FFD9         	movff	??_INTERRUPT_InterruptManager+2,fsr2l
  5884  000134  C011  FFFB         	movff	??_INTERRUPT_InterruptManager+1,pclatu
  5885  000138  C010  FFFA         	movff	??_INTERRUPT_InterruptManager,pclath
  5886  00013C  9246               	bcf	int$flags,1,c	;clear compiler interrupt flag (level 2)
  5887  00013E  0011               	retfie		f
  5888  000140                     __end_of_INTERRUPT_InterruptManager:
  5889                           	callstack 0
  5890                           
  5891 ;; *************** function _I2C1_MasterIsr *****************
  5892 ;; Defined at:
  5893 ;;		line 318 in file "mcc_generated_files/i2c1_master.c"
  5894 ;; Parameters:    Size  Location     Type
  5895 ;;		None
  5896 ;; Auto vars:     Size  Location     Type
  5897 ;;		None
  5898 ;; Return value:  Size  Location     Type
  5899 ;;                  1    wreg      void 
  5900 ;; Registers used:
  5901 ;;		wreg, fsr2l, fsr2h, status,2, status,0, pcl, pclath, pclatu, tosl, tblptrl, tblptrh, tblptru, prodl, prodh, cstack
  5902 ;; Tracked objects:
  5903 ;;		On entry : 0/0
  5904 ;;		On exit  : 0/0
  5905 ;;		Unchanged: 0/0
  5906 ;; Data sizes:     COMRAM   BANK0   BANK1   BANK2   BANK3   BANK4   BANK5   BANK6   BANK7   BANK8   BANK9  BANK10  BANK1
      +1  BANK12  BANK14
  5907 ;;      Params:         0       0       0       0       0       0       0       0       0       0       0       0       
      +0       0       0
  5908 ;;      Locals:         0       0       0       0       0       0       0       0       0       0       0       0       
      +0       0       0
  5909 ;;      Temps:          0       0       0       0       0       0       0       0       0       0       0       0       
      +0       0       0
  5910 ;;      Totals:         0       0       0       0       0       0       0       0       0       0       0       0       
      +0       0       0
  5911 ;;Total ram usage:        0 bytes
  5912 ;; Hardware stack levels used: 1
  5913 ;; Hardware stack levels required when called: 5
  5914 ;; This function calls:
  5915 ;;		_I2C1_MasterFsm
  5916 ;; This function is called by:
  5917 ;;		_I2C1_Open
  5918 ;;		_INTERRUPT_InterruptManager
  5919 ;; This function uses a non-reentrant model
  5920 ;;
  5921                           
  5922                           	psect	text46
  5923  002936                     __ptext46:
  5924                           	callstack 0
  5925  002936                     _I2C1_MasterIsr:
  5926                           	callstack 15
  5927  002936                     
  5928                           ;mcc_generated_files/i2c1_master.c: 320:     I2C1_MasterFsm();
  5929  002936  ECDD  F010         	call	_I2C1_MasterFsm	;wreg free
  5930  00293A  0012               	return		;funcret
  5931  00293C                     __end_of_I2C1_MasterIsr:
  5932                           	callstack 0
  5933                           
  5934 ;; *************** function _I2C1_MasterFsm *****************
  5935 ;; Defined at:
  5936 ;;		line 323 in file "mcc_generated_files/i2c1_master.c"
  5937 ;; Parameters:    Size  Location     Type
  5938 ;;		None
  5939 ;; Auto vars:     Size  Location     Type
  5940 ;;		None
  5941 ;; Return value:  Size  Location     Type
  5942 ;;                  1    wreg      void 
  5943 ;; Registers used:
  5944 ;;		wreg, fsr2l, fsr2h, status,2, status,0, pcl, pclath, pclatu, tosl, tblptrl, tblptrh, tblptru, prodl, prodh, cstack
  5945 ;; Tracked objects:
  5946 ;;		On entry : 0/0
  5947 ;;		On exit  : 0/0
  5948 ;;		Unchanged: 0/0
  5949 ;; Data sizes:     COMRAM   BANK0   BANK1   BANK2   BANK3   BANK4   BANK5   BANK6   BANK7   BANK8   BANK9  BANK10  BANK1
      +1  BANK12  BANK14
  5950 ;;      Params:         0       0       0       0       0       0       0       0       0       0       0       0       
      +0       0       0
  5951 ;;      Locals:         0       0       0       0       0       0       0       0       0       0       0       0       
      +0       0       0
  5952 ;;      Temps:          0       0       0       0       0       0       0       0       0       0       0       0       
      +0       0       0
  5953 ;;      Totals:         0       0       0       0       0       0       0       0       0       0       0       0       
      +0       0       0
  5954 ;;Total ram usage:        0 bytes
  5955 ;; Hardware stack levels used: 1
  5956 ;; Hardware stack levels required when called: 4
  5957 ;; This function calls:
  5958 ;;		_I2C1_DO_ADDRESS_NACK
  5959 ;;		_I2C1_DO_IDLE
  5960 ;;		_I2C1_DO_RCEN
  5961 ;;		_I2C1_DO_RESET
  5962 ;;		_I2C1_DO_RX
  5963 ;;		_I2C1_DO_RX_ACK
  5964 ;;		_I2C1_DO_RX_NACK_RESTART
  5965 ;;		_I2C1_DO_RX_NACK_STOP
  5966 ;;		_I2C1_DO_SEND_ADR_READ
  5967 ;;		_I2C1_DO_SEND_ADR_WRITE
  5968 ;;		_I2C1_DO_SEND_RESTART
  5969 ;;		_I2C1_DO_SEND_RESTART_READ
  5970 ;;		_I2C1_DO_SEND_RESTART_WRITE
  5971 ;;		_I2C1_DO_SEND_STOP
  5972 ;;		_I2C1_DO_TX
  5973 ;;		_I2C1_DO_TX_EMPTY
  5974 ;;		_I2C1_MasterIsNack
  5975 ;;		i2_I2C1_MasterClearIrq
  5976 ;; This function is called by:
  5977 ;;		_I2C1_MasterIsr
  5978 ;; This function uses a non-reentrant model
  5979 ;;
  5980                           
  5981                           	psect	text47
  5982  0021BA                     __ptext47:
  5983                           	callstack 0
  5984  0021BA                     _I2C1_MasterFsm:
  5985                           	callstack 15
  5986  0021BA                     
  5987                           ;mcc_generated_files/i2c1_master.c: 325:     I2C1_MasterClearIrq();
  5988  0021BA  EC9E  F014         	call	i2_I2C1_MasterClearIrq	;wreg free
  5989  0021BE                     
  5990                           ;mcc_generated_files/i2c1_master.c: 327:     if(I2C1_Status.addressNackCheck && I2C1_Mas
      +                          terIsNack())
  5991  0021BE  0100               	movlb	0	; () banked
  5992  0021C0  A189               	btfss	(_I2C1_Status+41)& (0+255),0,b
  5993  0021C2  EFE5  F010         	goto	i2u298_41
  5994  0021C6  EFE7  F010         	goto	i2u298_40
  5995  0021CA                     i2u298_41:
  5996  0021CA  EFF4  F010         	goto	i2l5015
  5997  0021CE                     i2u298_40:
  5998  0021CE                     
  5999                           ; BSR set to: 0
  6000  0021CE  EC0F  F014         	call	_I2C1_MasterIsNack	;wreg free
  6001  0021D2  0900               	iorlw	0
  6002  0021D4  B4D8               	btfsc	status,2,c
  6003  0021D6  EFEF  F010         	goto	i2u299_41
  6004  0021DA  EFF1  F010         	goto	i2u299_40
  6005  0021DE                     i2u299_41:
  6006  0021DE  EFF4  F010         	goto	i2l5015
  6007  0021E2                     i2u299_40:
  6008  0021E2                     
  6009                           ;mcc_generated_files/i2c1_master.c: 328:     {;mcc_generated_files/i2c1_master.c: 329:  
      +                                 I2C1_Status.state = I2C1_ADDRESS_NACK;
  6010  0021E2  0E0F               	movlw	15
  6011  0021E4  0100               	movlb	0	; () banked
  6012  0021E6  6F87               	movwf	(_I2C1_Status+39)& (0+255),b
  6013  0021E8                     i2l5015:
  6014                           
  6015                           ;mcc_generated_files/i2c1_master.c: 331:     I2C1_Status.state = fsmStateTable[I2C1_Stat
      +                          us.state]();
  6016  0021E8  0100               	movlb	0	; () banked
  6017  0021EA  5187               	movf	(_I2C1_Status+39)& (0+255),w,b
  6018  0021EC  0D03               	mullw	3
  6019  0021EE  0E01               	movlw	low _fsmStateTable
  6020  0021F0  24F3               	addwf	243,w,c
  6021  0021F2  6EF6               	movwf	tblptrl,c
  6022  0021F4  0E0F               	movlw	high _fsmStateTable
  6023  0021F6  20F4               	addwfc	244,w,c
  6024  0021F8  6EF7               	movwf	tblptrh,c
  6025  0021FA                     	if	1	;There are 3 active tblptr bytes
  6026  0021FA  6AF8               	clrf	tblptru,c
  6027  0021FC  0E00               	movlw	low (__mediumconst shr (0+16))
  6028  0021FE  22F8               	addwfc	tblptru,f,c
  6029  002200                     	endif
  6030  002200  D802               	call	i2u300_48
  6031  002202  EF10  F011         	goto	i2u300_49
  6032  002206                     i2u300_48:
  6033  002206  0005               	push	
  6034  002208  6EFA               	movwf	pclath,c
  6035  00220A  0009               	tblrd		*+
  6036  00220C  50F5               	movf	tablat,w,c
  6037  00220E  6EFD               	movwf	tosl,c
  6038  002210  0009               	tblrd		*+
  6039  002212  50F5               	movf	tablat,w,c
  6040  002214  6EFE               	movwf	tosh,c
  6041  002216  0009               	tblrd		*+
  6042  002218  50F5               	movf	tablat,w,c
  6043  00221A  6EFF               	movwf	tosu,c
  6044  00221C  50FA               	movf	pclath,w,c
  6045  00221E  0012               	return		;indir
  6046  002220                     i2u300_49:
  6047  002220  0100               	movlb	0	; () banked
  6048  002222  6F87               	movwf	(_I2C1_Status+39)& (0+255),b
  6049  002224                     
  6050                           ; BSR set to: 0
  6051  002224  0012               	return		;funcret
  6052  002226                     __end_of_I2C1_MasterFsm:
  6053                           	callstack 0
  6054                           
  6055 ;; *************** function i2_I2C1_MasterClearIrq *****************
  6056 ;; Defined at:
  6057 ;;		line 642 in file "mcc_generated_files/i2c1_master.c"
  6058 ;; Parameters:    Size  Location     Type
  6059 ;;		None
  6060 ;; Auto vars:     Size  Location     Type
  6061 ;;		None
  6062 ;; Return value:  Size  Location     Type
  6063 ;;                  1    wreg      void 
  6064 ;; Registers used:
  6065 ;;		None
  6066 ;; Tracked objects:
  6067 ;;		On entry : 0/0
  6068 ;;		On exit  : 0/0
  6069 ;;		Unchanged: 0/0
  6070 ;; Data sizes:     COMRAM   BANK0   BANK1   BANK2   BANK3   BANK4   BANK5   BANK6   BANK7   BANK8   BANK9  BANK10  BANK1
      +1  BANK12  BANK14
  6071 ;;      Params:         0       0       0       0       0       0       0       0       0       0       0       0       
      +0       0       0
  6072 ;;      Locals:         0       0       0       0       0       0       0       0       0       0       0       0       
      +0       0       0
  6073 ;;      Temps:          0       0       0       0       0       0       0       0       0       0       0       0       
      +0       0       0
  6074 ;;      Totals:         0       0       0       0       0       0       0       0       0       0       0       0       
      +0       0       0
  6075 ;;Total ram usage:        0 bytes
  6076 ;; Hardware stack levels used: 1
  6077 ;; This function calls:
  6078 ;;		Nothing
  6079 ;; This function is called by:
  6080 ;;		_I2C1_MasterFsm
  6081 ;; This function uses a non-reentrant model
  6082 ;;
  6083                           
  6084                           	psect	text48
  6085  00293C                     __ptext48:
  6086                           	callstack 0
  6087  00293C                     i2_I2C1_MasterClearIrq:
  6088                           	callstack 18
  6089  00293C                     
  6090                           ;mcc_generated_files/i2c1_master.c: 644:     PIR3bits.SSP1IF = 0;
  6091  00293C  010E               	movlb	14	; () banked
  6092  00293E  91C8               	bcf	200,0,b	;volatile
  6093  002940                     
  6094                           ; BSR set to: 14
  6095  002940  0012               	return		;funcret
  6096  002942                     __end_ofi2_I2C1_MasterClearIrq:
  6097                           	callstack 0
  6098                           
  6099 ;; *************** function _I2C1_DO_ADDRESS_NACK *****************
  6100 ;; Defined at:
  6101 ;;		line 501 in file "mcc_generated_files/i2c1_master.c"
  6102 ;; Parameters:    Size  Location     Type
  6103 ;;		None
  6104 ;; Auto vars:     Size  Location     Type
  6105 ;;		None
  6106 ;; Return value:  Size  Location     Type
  6107 ;;                  1    wreg      enum E13082
  6108 ;; Registers used:
  6109 ;;		wreg, fsr2l, fsr2h, status,2, status,0, pcl, pclath, pclatu, tosl, prodl, prodh, cstack
  6110 ;; Tracked objects:
  6111 ;;		On entry : 0/0
  6112 ;;		On exit  : 0/0
  6113 ;;		Unchanged: 0/0
  6114 ;; Data sizes:     COMRAM   BANK0   BANK1   BANK2   BANK3   BANK4   BANK5   BANK6   BANK7   BANK8   BANK9  BANK10  BANK1
      +1  BANK12  BANK14
  6115 ;;      Params:         0       0       0       0       0       0       0       0       0       0       0       0       
      +0       0       0
  6116 ;;      Locals:         0       0       0       0       0       0       0       0       0       0       0       0       
      +0       0       0
  6117 ;;      Temps:          2       0       0       0       0       0       0       0       0       0       0       0       
      +0       0       0
  6118 ;;      Totals:         2       0       0       0       0       0       0       0       0       0       0       0       
      +0       0       0
  6119 ;;Total ram usage:        2 bytes
  6120 ;; Hardware stack levels used: 1
  6121 ;; Hardware stack levels required when called: 3
  6122 ;; This function calls:
  6123 ;;		Absolute function
  6124 ;;		_I2C1_CallbackReturnReset
  6125 ;;		_I2C1_CallbackReturnStop
  6126 ;;		_I2C1_DO_SEND_RESTART
  6127 ;;		_I2C1_DO_SEND_STOP
  6128 ;;		_rd1RegCompleteHandler
  6129 ;;		_rd1RegCompleteHandler@MB85RC256V$F1625
  6130 ;;		_rdBlkRegCompleteHandler
  6131 ;;		_rdBlkRegCompleteHandler@MB85RC256V$F1619
  6132 ;;		_wr1RegCompleteHandler
  6133 ;;		_wr1RegCompleteHandler@MB85RC256V$F1610
  6134 ;; This function is called by:
  6135 ;;		_I2C1_MasterFsm
  6136 ;; This function uses a non-reentrant model
  6137 ;;
  6138                           
  6139                           	psect	text49
  6140  002226                     __ptext49:
  6141                           	callstack 0
  6142  002226                     _I2C1_DO_ADDRESS_NACK:
  6143                           	callstack 15
  6144  002226                     
  6145                           ;mcc_generated_files/i2c1_master.c: 503:     I2C1_Status.addressNackCheck = 0;
  6146  002226  0100               	movlb	0	; () banked
  6147  002228  9189               	bcf	(_I2C1_Status+41)& (0+255),0,b
  6148  00222A                     
  6149                           ; BSR set to: 0
  6150                           ;mcc_generated_files/i2c1_master.c: 504:     I2C1_Status.error = I2C1_FAIL;
  6151  00222A  0E02               	movlw	2
  6152  00222C  6F88               	movwf	(_I2C1_Status+40)& (0+255),b
  6153                           
  6154                           ;mcc_generated_files/i2c1_master.c: 505:     switch(I2C1_Status.callbackTable[I2C1_ADDR_
      +                          NACK](I2C1_Status.callbackPayload[I2C1_ADDR_NACK]))
  6155  00222E  EF21  F011         	goto	i2l4801
  6156  002232                     i2l4791:
  6157                           
  6158                           ;mcc_generated_files/i2c1_master.c: 509:             return I2C1_DO_SEND_RESTART();
  6159  002232  EC7E  F014         	call	_I2C1_DO_SEND_RESTART	;wreg free
  6160  002236  EF48  F011         	goto	i2l649
  6161  00223A                     i2l4795:
  6162                           
  6163                           ;mcc_generated_files/i2c1_master.c: 511:             return I2C1_DO_SEND_STOP();
  6164  00223A  EC7A  F014         	call	_I2C1_DO_SEND_STOP	;wreg free
  6165  00223E  EF48  F011         	goto	i2l649
  6166  002242                     i2l4801:
  6167                           
  6168                           ; BSR set to: 0
  6169  002242  C076  F00C         	movff	_I2C1_Status+22,rd1RegCompleteHandler@MB85RC256V$F1625@ptr
  6170  002246  C077  F00D         	movff	_I2C1_Status+23,rd1RegCompleteHandler@MB85RC256V$F1625@ptr+1
  6171  00224A  EE20  F066         	lfsr	2,_I2C1_Status+6
  6172  00224E  D802               	call	i2u289_48
  6173  002250  EF34  F011         	goto	i2u289_49
  6174  002254                     i2u289_48:
  6175  002254  0005               	push	
  6176  002256  6EFA               	movwf	pclath,c
  6177  002258  50DE               	movf	postinc2,w,c
  6178  00225A  6EFD               	movwf	tosl,c
  6179  00225C  50DE               	movf	postinc2,w,c
  6180  00225E  6EFE               	movwf	tosh,c
  6181  002260  50DE               	movf	postinc2,w,c
  6182  002262  6EFF               	movwf	tosu,c
  6183  002264  50FA               	movf	pclath,w,c
  6184  002266  0012               	return		;indir
  6185  002268                     i2u289_49:
  6186  002268  6E0E               	movwf	??_I2C1_DO_ADDRESS_NACK^0,c
  6187  00226A  6A0F               	clrf	(??_I2C1_DO_ADDRESS_NACK+1)^0,c
  6188                           
  6189                           ; Switch on 2 bytes has been partitioned into a top level switch of size 1, and 1 sub-sw
      +                          itches
  6190                           ; Switch size 1, requested type "simple"
  6191                           ; Number of cases is 1, Range of values is 0 to 0
  6192                           ; switch strategies available:
  6193                           ; Name         Instructions Cycles
  6194                           ; simple_byte            4     3 (average)
  6195                           ;	Chosen strategy is simple_byte
  6196  00226C  500F               	movf	(??_I2C1_DO_ADDRESS_NACK+1)^0,w,c
  6197  00226E  0A00               	xorlw	0	; case 0
  6198  002270  B4D8               	btfsc	status,2,c
  6199  002272  EF3D  F011         	goto	i2l5411
  6200  002276  EF1D  F011         	goto	i2l4795
  6201  00227A                     i2l5411:
  6202                           
  6203                           ; Switch size 1, requested type "simple"
  6204                           ; Number of cases is 2, Range of values is 2 to 3
  6205                           ; switch strategies available:
  6206                           ; Name         Instructions Cycles
  6207                           ; simple_byte            7     4 (average)
  6208                           ;	Chosen strategy is simple_byte
  6209  00227A  500E               	movf	??_I2C1_DO_ADDRESS_NACK^0,w,c
  6210  00227C  0A02               	xorlw	2	; case 2
  6211  00227E  B4D8               	btfsc	status,2,c
  6212  002280  EF19  F011         	goto	i2l4791
  6213  002284  0A01               	xorlw	1	; case 3
  6214  002286  B4D8               	btfsc	status,2,c
  6215  002288  EF19  F011         	goto	i2l4791
  6216  00228C  EF1D  F011         	goto	i2l4795
  6217  002290                     i2l649:
  6218  002290  0012               	return		;funcret
  6219  002292                     __end_of_I2C1_DO_ADDRESS_NACK:
  6220                           	callstack 0
  6221                           
  6222 ;; *************** function _I2C1_DO_RESET *****************
  6223 ;; Defined at:
  6224 ;;		line 495 in file "mcc_generated_files/i2c1_master.c"
  6225 ;; Parameters:    Size  Location     Type
  6226 ;;		None
  6227 ;; Auto vars:     Size  Location     Type
  6228 ;;		None
  6229 ;; Return value:  Size  Location     Type
  6230 ;;                  1    wreg      enum E13082
  6231 ;; Registers used:
  6232 ;;		wreg, status,2
  6233 ;; Tracked objects:
  6234 ;;		On entry : 0/0
  6235 ;;		On exit  : 0/0
  6236 ;;		Unchanged: 0/0
  6237 ;; Data sizes:     COMRAM   BANK0   BANK1   BANK2   BANK3   BANK4   BANK5   BANK6   BANK7   BANK8   BANK9  BANK10  BANK1
      +1  BANK12  BANK14
  6238 ;;      Params:         0       0       0       0       0       0       0       0       0       0       0       0       
      +0       0       0
  6239 ;;      Locals:         0       0       0       0       0       0       0       0       0       0       0       0       
      +0       0       0
  6240 ;;      Temps:          0       0       0       0       0       0       0       0       0       0       0       0       
      +0       0       0
  6241 ;;      Totals:         0       0       0       0       0       0       0       0       0       0       0       0       
      +0       0       0
  6242 ;;Total ram usage:        0 bytes
  6243 ;; Hardware stack levels used: 1
  6244 ;; This function calls:
  6245 ;;		Nothing
  6246 ;; This function is called by:
  6247 ;;		_I2C1_MasterFsm
  6248 ;; This function uses a non-reentrant model
  6249 ;;
  6250                           
  6251                           	psect	text50
  6252  0028A6                     __ptext50:
  6253                           	callstack 0
  6254  0028A6                     _I2C1_DO_RESET:
  6255                           	callstack 18
  6256  0028A6                     
  6257                           ;mcc_generated_files/i2c1_master.c: 497:     I2C1_Status.busy = 0;
  6258  0028A6  0100               	movlb	0	; () banked
  6259  0028A8  9389               	bcf	(_I2C1_Status+41)& (0+255),1,b
  6260  0028AA                     
  6261                           ; BSR set to: 0
  6262                           ;mcc_generated_files/i2c1_master.c: 498:     I2C1_Status.error = I2C1_NOERR;
  6263  0028AA  0E00               	movlw	0
  6264  0028AC  6F88               	movwf	(_I2C1_Status+40)& (0+255),b
  6265  0028AE                     
  6266                           ; BSR set to: 0
  6267                           ;mcc_generated_files/i2c1_master.c: 499:     return I2C1_RESET;
  6268  0028AE  0E0E               	movlw	14
  6269  0028B0                     
  6270                           ; BSR set to: 0
  6271  0028B0  0012               	return		;funcret
  6272  0028B2                     __end_of_I2C1_DO_RESET:
  6273                           	callstack 0
  6274                           
  6275 ;; *************** function _I2C1_DO_RX_NACK_RESTART *****************
  6276 ;; Defined at:
  6277 ;;		line 489 in file "mcc_generated_files/i2c1_master.c"
  6278 ;; Parameters:    Size  Location     Type
  6279 ;;		None
  6280 ;; Auto vars:     Size  Location     Type
  6281 ;;		None
  6282 ;; Return value:  Size  Location     Type
  6283 ;;                  1    wreg      enum E13082
  6284 ;; Registers used:
  6285 ;;		wreg, cstack
  6286 ;; Tracked objects:
  6287 ;;		On entry : 0/0
  6288 ;;		On exit  : 0/0
  6289 ;;		Unchanged: 0/0
  6290 ;; Data sizes:     COMRAM   BANK0   BANK1   BANK2   BANK3   BANK4   BANK5   BANK6   BANK7   BANK8   BANK9  BANK10  BANK1
      +1  BANK12  BANK14
  6291 ;;      Params:         0       0       0       0       0       0       0       0       0       0       0       0       
      +0       0       0
  6292 ;;      Locals:         0       0       0       0       0       0       0       0       0       0       0       0       
      +0       0       0
  6293 ;;      Temps:          0       0       0       0       0       0       0       0       0       0       0       0       
      +0       0       0
  6294 ;;      Totals:         0       0       0       0       0       0       0       0       0       0       0       0       
      +0       0       0
  6295 ;;Total ram usage:        0 bytes
  6296 ;; Hardware stack levels used: 1
  6297 ;; Hardware stack levels required when called: 1
  6298 ;; This function calls:
  6299 ;;		_I2C1_MasterSendNack
  6300 ;; This function is called by:
  6301 ;;		_I2C1_DO_RX
  6302 ;;		_I2C1_MasterFsm
  6303 ;; This function uses a non-reentrant model
  6304 ;;
  6305                           
  6306                           	psect	text51
  6307  0028DC                     __ptext51:
  6308                           	callstack 0
  6309  0028DC                     _I2C1_DO_RX_NACK_RESTART:
  6310                           	callstack 17
  6311  0028DC                     
  6312                           ;mcc_generated_files/i2c1_master.c: 491:     I2C1_MasterSendNack();
  6313  0028DC  ECA7  F014         	call	_I2C1_MasterSendNack	;wreg free
  6314  0028E0                     
  6315                           ;mcc_generated_files/i2c1_master.c: 492:     return I2C1_SEND_RESTART;
  6316  0028E0  0E09               	movlw	9
  6317  0028E2  0012               	return		;funcret
  6318  0028E4                     __end_of_I2C1_DO_RX_NACK_RESTART:
  6319                           	callstack 0
  6320                           
  6321 ;; *************** function _I2C1_DO_RX_NACK_STOP *****************
  6322 ;; Defined at:
  6323 ;;		line 483 in file "mcc_generated_files/i2c1_master.c"
  6324 ;; Parameters:    Size  Location     Type
  6325 ;;		None
  6326 ;; Auto vars:     Size  Location     Type
  6327 ;;		None
  6328 ;; Return value:  Size  Location     Type
  6329 ;;                  1    wreg      enum E13082
  6330 ;; Registers used:
  6331 ;;		wreg, cstack
  6332 ;; Tracked objects:
  6333 ;;		On entry : 0/0
  6334 ;;		On exit  : 0/0
  6335 ;;		Unchanged: 0/0
  6336 ;; Data sizes:     COMRAM   BANK0   BANK1   BANK2   BANK3   BANK4   BANK5   BANK6   BANK7   BANK8   BANK9  BANK10  BANK1
      +1  BANK12  BANK14
  6337 ;;      Params:         0       0       0       0       0       0       0       0       0       0       0       0       
      +0       0       0
  6338 ;;      Locals:         0       0       0       0       0       0       0       0       0       0       0       0       
      +0       0       0
  6339 ;;      Temps:          0       0       0       0       0       0       0       0       0       0       0       0       
      +0       0       0
  6340 ;;      Totals:         0       0       0       0       0       0       0       0       0       0       0       0       
      +0       0       0
  6341 ;;Total ram usage:        0 bytes
  6342 ;; Hardware stack levels used: 1
  6343 ;; Hardware stack levels required when called: 1
  6344 ;; This function calls:
  6345 ;;		_I2C1_MasterSendNack
  6346 ;; This function is called by:
  6347 ;;		_I2C1_DO_RX
  6348 ;;		_I2C1_MasterFsm
  6349 ;; This function uses a non-reentrant model
  6350 ;;
  6351                           
  6352                           	psect	text52
  6353  0028E4                     __ptext52:
  6354                           	callstack 0
  6355  0028E4                     _I2C1_DO_RX_NACK_STOP:
  6356                           	callstack 17
  6357  0028E4                     
  6358                           ;mcc_generated_files/i2c1_master.c: 485:     I2C1_MasterSendNack();
  6359  0028E4  ECA7  F014         	call	_I2C1_MasterSendNack	;wreg free
  6360  0028E8                     
  6361                           ;mcc_generated_files/i2c1_master.c: 486:     return I2C1_SEND_STOP;
  6362  0028E8  0E0A               	movlw	10
  6363  0028EA  0012               	return		;funcret
  6364  0028EC                     __end_of_I2C1_DO_RX_NACK_STOP:
  6365                           	callstack 0
  6366                           
  6367 ;; *************** function _I2C1_DO_RX_ACK *****************
  6368 ;; Defined at:
  6369 ;;		line 476 in file "mcc_generated_files/i2c1_master.c"
  6370 ;; Parameters:    Size  Location     Type
  6371 ;;		None
  6372 ;; Auto vars:     Size  Location     Type
  6373 ;;		None
  6374 ;; Return value:  Size  Location     Type
  6375 ;;                  1    wreg      enum E13082
  6376 ;; Registers used:
  6377 ;;		wreg, cstack
  6378 ;; Tracked objects:
  6379 ;;		On entry : 0/0
  6380 ;;		On exit  : 0/0
  6381 ;;		Unchanged: 0/0
  6382 ;; Data sizes:     COMRAM   BANK0   BANK1   BANK2   BANK3   BANK4   BANK5   BANK6   BANK7   BANK8   BANK9  BANK10  BANK1
      +1  BANK12  BANK14
  6383 ;;      Params:         0       0       0       0       0       0       0       0       0       0       0       0       
      +0       0       0
  6384 ;;      Locals:         0       0       0       0       0       0       0       0       0       0       0       0       
      +0       0       0
  6385 ;;      Temps:          0       0       0       0       0       0       0       0       0       0       0       0       
      +0       0       0
  6386 ;;      Totals:         0       0       0       0       0       0       0       0       0       0       0       0       
      +0       0       0
  6387 ;;Total ram usage:        0 bytes
  6388 ;; Hardware stack levels used: 1
  6389 ;; Hardware stack levels required when called: 1
  6390 ;; This function calls:
  6391 ;;		_I2C1_MasterSendAck
  6392 ;; This function is called by:
  6393 ;;		_I2C1_MasterFsm
  6394 ;; This function uses a non-reentrant model
  6395 ;;
  6396                           
  6397                           	psect	text53
  6398  0028EC                     __ptext53:
  6399                           	callstack 0
  6400  0028EC                     _I2C1_DO_RX_ACK:
  6401                           	callstack 17
  6402  0028EC                     
  6403                           ;mcc_generated_files/i2c1_master.c: 478:     I2C1_MasterSendAck();
  6404  0028EC  ECA4  F014         	call	_I2C1_MasterSendAck	;wreg free
  6405  0028F0                     
  6406                           ;mcc_generated_files/i2c1_master.c: 479:     return I2C1_RCEN;
  6407  0028F0  0E05               	movlw	5
  6408  0028F2  0012               	return		;funcret
  6409  0028F4                     __end_of_I2C1_DO_RX_ACK:
  6410                           	callstack 0
  6411                           
  6412 ;; *************** function _I2C1_DO_SEND_STOP *****************
  6413 ;; Defined at:
  6414 ;;		line 470 in file "mcc_generated_files/i2c1_master.c"
  6415 ;; Parameters:    Size  Location     Type
  6416 ;;		None
  6417 ;; Auto vars:     Size  Location     Type
  6418 ;;		None
  6419 ;; Return value:  Size  Location     Type
  6420 ;;                  1    wreg      enum E13082
  6421 ;; Registers used:
  6422 ;;		wreg, cstack
  6423 ;; Tracked objects:
  6424 ;;		On entry : 0/0
  6425 ;;		On exit  : 0/0
  6426 ;;		Unchanged: 0/0
  6427 ;; Data sizes:     COMRAM   BANK0   BANK1   BANK2   BANK3   BANK4   BANK5   BANK6   BANK7   BANK8   BANK9  BANK10  BANK1
      +1  BANK12  BANK14
  6428 ;;      Params:         0       0       0       0       0       0       0       0       0       0       0       0       
      +0       0       0
  6429 ;;      Locals:         0       0       0       0       0       0       0       0       0       0       0       0       
      +0       0       0
  6430 ;;      Temps:          0       0       0       0       0       0       0       0       0       0       0       0       
      +0       0       0
  6431 ;;      Totals:         0       0       0       0       0       0       0       0       0       0       0       0       
      +0       0       0
  6432 ;;Total ram usage:        0 bytes
  6433 ;; Hardware stack levels used: 1
  6434 ;; Hardware stack levels required when called: 1
  6435 ;; This function calls:
  6436 ;;		_I2C1_MasterStop
  6437 ;; This function is called by:
  6438 ;;		_I2C1_DO_TX
  6439 ;;		_I2C1_DO_TX_EMPTY
  6440 ;;		_I2C1_DO_ADDRESS_NACK
  6441 ;;		_I2C1_MasterFsm
  6442 ;; This function uses a non-reentrant model
  6443 ;;
  6444                           
  6445                           	psect	text54
  6446  0028F4                     __ptext54:
  6447                           	callstack 0
  6448  0028F4                     _I2C1_DO_SEND_STOP:
  6449                           	callstack 16
  6450  0028F4                     
  6451                           ;mcc_generated_files/i2c1_master.c: 472:     I2C1_MasterStop();
  6452  0028F4  ECBB  F014         	call	_I2C1_MasterStop	;wreg free
  6453  0028F8                     
  6454                           ;mcc_generated_files/i2c1_master.c: 473:     return I2C1_IDLE;
  6455  0028F8  0E00               	movlw	0
  6456  0028FA  0012               	return		;funcret
  6457  0028FC                     __end_of_I2C1_DO_SEND_STOP:
  6458                           	callstack 0
  6459                           
  6460 ;; *************** function _I2C1_DO_SEND_RESTART *****************
  6461 ;; Defined at:
  6462 ;;		line 464 in file "mcc_generated_files/i2c1_master.c"
  6463 ;; Parameters:    Size  Location     Type
  6464 ;;		None
  6465 ;; Auto vars:     Size  Location     Type
  6466 ;;		None
  6467 ;; Return value:  Size  Location     Type
  6468 ;;                  1    wreg      enum E13082
  6469 ;; Registers used:
  6470 ;;		wreg, cstack
  6471 ;; Tracked objects:
  6472 ;;		On entry : 0/0
  6473 ;;		On exit  : 0/0
  6474 ;;		Unchanged: 0/0
  6475 ;; Data sizes:     COMRAM   BANK0   BANK1   BANK2   BANK3   BANK4   BANK5   BANK6   BANK7   BANK8   BANK9  BANK10  BANK1
      +1  BANK12  BANK14
  6476 ;;      Params:         0       0       0       0       0       0       0       0       0       0       0       0       
      +0       0       0
  6477 ;;      Locals:         0       0       0       0       0       0       0       0       0       0       0       0       
      +0       0       0
  6478 ;;      Temps:          0       0       0       0       0       0       0       0       0       0       0       0       
      +0       0       0
  6479 ;;      Totals:         0       0       0       0       0       0       0       0       0       0       0       0       
      +0       0       0
  6480 ;;Total ram usage:        0 bytes
  6481 ;; Hardware stack levels used: 1
  6482 ;; Hardware stack levels required when called: 1
  6483 ;; This function calls:
  6484 ;;		_I2C1_MasterEnableRestart
  6485 ;; This function is called by:
  6486 ;;		_I2C1_DO_TX_EMPTY
  6487 ;;		_I2C1_DO_ADDRESS_NACK
  6488 ;;		_I2C1_MasterFsm
  6489 ;; This function uses a non-reentrant model
  6490 ;;
  6491                           
  6492                           	psect	text55
  6493  0028FC                     __ptext55:
  6494                           	callstack 0
  6495  0028FC                     _I2C1_DO_SEND_RESTART:
  6496                           	callstack 16
  6497  0028FC                     
  6498                           ;mcc_generated_files/i2c1_master.c: 466:     I2C1_MasterEnableRestart();
  6499  0028FC  ECBD  F014         	call	_I2C1_MasterEnableRestart	;wreg free
  6500  002900                     
  6501                           ;mcc_generated_files/i2c1_master.c: 467:     return I2C1_SEND_ADR_READ;
  6502  002900  0E01               	movlw	1
  6503  002902  0012               	return		;funcret
  6504  002904                     __end_of_I2C1_DO_SEND_RESTART:
  6505                           	callstack 0
  6506                           
  6507 ;; *************** function _I2C1_DO_SEND_RESTART_WRITE *****************
  6508 ;; Defined at:
  6509 ;;		line 457 in file "mcc_generated_files/i2c1_master.c"
  6510 ;; Parameters:    Size  Location     Type
  6511 ;;		None
  6512 ;; Auto vars:     Size  Location     Type
  6513 ;;		None
  6514 ;; Return value:  Size  Location     Type
  6515 ;;                  1    wreg      enum E13082
  6516 ;; Registers used:
  6517 ;;		wreg, cstack
  6518 ;; Tracked objects:
  6519 ;;		On entry : 0/0
  6520 ;;		On exit  : 0/0
  6521 ;;		Unchanged: 0/0
  6522 ;; Data sizes:     COMRAM   BANK0   BANK1   BANK2   BANK3   BANK4   BANK5   BANK6   BANK7   BANK8   BANK9  BANK10  BANK1
      +1  BANK12  BANK14
  6523 ;;      Params:         0       0       0       0       0       0       0       0       0       0       0       0       
      +0       0       0
  6524 ;;      Locals:         0       0       0       0       0       0       0       0       0       0       0       0       
      +0       0       0
  6525 ;;      Temps:          0       0       0       0       0       0       0       0       0       0       0       0       
      +0       0       0
  6526 ;;      Totals:         0       0       0       0       0       0       0       0       0       0       0       0       
      +0       0       0
  6527 ;;Total ram usage:        0 bytes
  6528 ;; Hardware stack levels used: 1
  6529 ;; Hardware stack levels required when called: 1
  6530 ;; This function calls:
  6531 ;;		_I2C1_MasterEnableRestart
  6532 ;; This function is called by:
  6533 ;;		_I2C1_DO_TX
  6534 ;;		_I2C1_MasterFsm
  6535 ;; This function uses a non-reentrant model
  6536 ;;
  6537                           
  6538                           	psect	text56
  6539  002904                     __ptext56:
  6540                           	callstack 0
  6541  002904                     _I2C1_DO_SEND_RESTART_WRITE:
  6542                           	callstack 16
  6543  002904                     
  6544                           ;mcc_generated_files/i2c1_master.c: 459:     I2C1_MasterEnableRestart();
  6545  002904  ECBD  F014         	call	_I2C1_MasterEnableRestart	;wreg free
  6546  002908                     
  6547                           ;mcc_generated_files/i2c1_master.c: 460:     return I2C1_SEND_ADR_WRITE;
  6548  002908  0E02               	movlw	2
  6549  00290A  0012               	return		;funcret
  6550  00290C                     __end_of_I2C1_DO_SEND_RESTART_WRITE:
  6551                           	callstack 0
  6552                           
  6553 ;; *************** function _I2C1_DO_SEND_RESTART_READ *****************
  6554 ;; Defined at:
  6555 ;;		line 451 in file "mcc_generated_files/i2c1_master.c"
  6556 ;; Parameters:    Size  Location     Type
  6557 ;;		None
  6558 ;; Auto vars:     Size  Location     Type
  6559 ;;		None
  6560 ;; Return value:  Size  Location     Type
  6561 ;;                  1    wreg      enum E13082
  6562 ;; Registers used:
  6563 ;;		wreg, cstack
  6564 ;; Tracked objects:
  6565 ;;		On entry : 0/0
  6566 ;;		On exit  : 0/0
  6567 ;;		Unchanged: 0/0
  6568 ;; Data sizes:     COMRAM   BANK0   BANK1   BANK2   BANK3   BANK4   BANK5   BANK6   BANK7   BANK8   BANK9  BANK10  BANK1
      +1  BANK12  BANK14
  6569 ;;      Params:         0       0       0       0       0       0       0       0       0       0       0       0       
      +0       0       0
  6570 ;;      Locals:         0       0       0       0       0       0       0       0       0       0       0       0       
      +0       0       0
  6571 ;;      Temps:          0       0       0       0       0       0       0       0       0       0       0       0       
      +0       0       0
  6572 ;;      Totals:         0       0       0       0       0       0       0       0       0       0       0       0       
      +0       0       0
  6573 ;;Total ram usage:        0 bytes
  6574 ;; Hardware stack levels used: 1
  6575 ;; Hardware stack levels required when called: 1
  6576 ;; This function calls:
  6577 ;;		_I2C1_MasterEnableRestart
  6578 ;; This function is called by:
  6579 ;;		_I2C1_DO_TX
  6580 ;;		_I2C1_MasterFsm
  6581 ;; This function uses a non-reentrant model
  6582 ;;
  6583                           
  6584                           	psect	text57
  6585  00290C                     __ptext57:
  6586                           	callstack 0
  6587  00290C                     _I2C1_DO_SEND_RESTART_READ:
  6588                           	callstack 16
  6589  00290C                     
  6590                           ;mcc_generated_files/i2c1_master.c: 453:     I2C1_MasterEnableRestart();
  6591  00290C  ECBD  F014         	call	_I2C1_MasterEnableRestart	;wreg free
  6592  002910                     
  6593                           ;mcc_generated_files/i2c1_master.c: 454:     return I2C1_SEND_ADR_READ;
  6594  002910  0E01               	movlw	1
  6595  002912  0012               	return		;funcret
  6596  002914                     __end_of_I2C1_DO_SEND_RESTART_READ:
  6597                           	callstack 0
  6598                           
  6599 ;; *************** function _I2C1_DO_RCEN *****************
  6600 ;; Defined at:
  6601 ;;		line 404 in file "mcc_generated_files/i2c1_master.c"
  6602 ;; Parameters:    Size  Location     Type
  6603 ;;		None
  6604 ;; Auto vars:     Size  Location     Type
  6605 ;;		None
  6606 ;; Return value:  Size  Location     Type
  6607 ;;                  1    wreg      enum E13082
  6608 ;; Registers used:
  6609 ;;		wreg, cstack
  6610 ;; Tracked objects:
  6611 ;;		On entry : 0/0
  6612 ;;		On exit  : 0/0
  6613 ;;		Unchanged: 0/0
  6614 ;; Data sizes:     COMRAM   BANK0   BANK1   BANK2   BANK3   BANK4   BANK5   BANK6   BANK7   BANK8   BANK9  BANK10  BANK1
      +1  BANK12  BANK14
  6615 ;;      Params:         0       0       0       0       0       0       0       0       0       0       0       0       
      +0       0       0
  6616 ;;      Locals:         0       0       0       0       0       0       0       0       0       0       0       0       
      +0       0       0
  6617 ;;      Temps:          0       0       0       0       0       0       0       0       0       0       0       0       
      +0       0       0
  6618 ;;      Totals:         0       0       0       0       0       0       0       0       0       0       0       0       
      +0       0       0
  6619 ;;Total ram usage:        0 bytes
  6620 ;; Hardware stack levels used: 1
  6621 ;; Hardware stack levels required when called: 1
  6622 ;; This function calls:
  6623 ;;		_I2C1_MasterStartRx
  6624 ;; This function is called by:
  6625 ;;		_I2C1_MasterFsm
  6626 ;; This function uses a non-reentrant model
  6627 ;;
  6628                           
  6629                           	psect	text58
  6630  0028B2                     __ptext58:
  6631                           	callstack 0
  6632  0028B2                     _I2C1_DO_RCEN:
  6633                           	callstack 17
  6634  0028B2                     
  6635                           ;mcc_generated_files/i2c1_master.c: 406:     I2C1_Status.addressNackCheck = 0;
  6636  0028B2  0100               	movlb	0	; () banked
  6637  0028B4  9189               	bcf	(_I2C1_Status+41)& (0+255),0,b
  6638  0028B6                     
  6639                           ; BSR set to: 0
  6640                           ;mcc_generated_files/i2c1_master.c: 407:     I2C1_MasterStartRx();
  6641  0028B6  ECB5  F014         	call	_I2C1_MasterStartRx	;wreg free
  6642  0028BA                     
  6643                           ;mcc_generated_files/i2c1_master.c: 408:     return I2C1_RX;
  6644  0028BA  0E04               	movlw	4
  6645  0028BC  0012               	return		;funcret
  6646  0028BE                     __end_of_I2C1_DO_RCEN:
  6647                           	callstack 0
  6648                           
  6649 ;; *************** function _I2C1_DO_RX *****************
  6650 ;; Defined at:
  6651 ;;		line 380 in file "mcc_generated_files/i2c1_master.c"
  6652 ;; Parameters:    Size  Location     Type
  6653 ;;		None
  6654 ;; Auto vars:     Size  Location     Type
  6655 ;;		None
  6656 ;; Return value:  Size  Location     Type
  6657 ;;                  1    wreg      enum E13082
  6658 ;; Registers used:
  6659 ;;		wreg, fsr2l, fsr2h, status,2, status,0, pcl, pclath, pclatu, tosl, prodl, prodh, cstack
  6660 ;; Tracked objects:
  6661 ;;		On entry : 0/0
  6662 ;;		On exit  : 0/0
  6663 ;;		Unchanged: 0/0
  6664 ;; Data sizes:     COMRAM   BANK0   BANK1   BANK2   BANK3   BANK4   BANK5   BANK6   BANK7   BANK8   BANK9  BANK10  BANK1
      +1  BANK12  BANK14
  6665 ;;      Params:         0       0       0       0       0       0       0       0       0       0       0       0       
      +0       0       0
  6666 ;;      Locals:         0       0       0       0       0       0       0       0       0       0       0       0       
      +0       0       0
  6667 ;;      Temps:          2       0       0       0       0       0       0       0       0       0       0       0       
      +0       0       0
  6668 ;;      Totals:         2       0       0       0       0       0       0       0       0       0       0       0       
      +0       0       0
  6669 ;;Total ram usage:        2 bytes
  6670 ;; Hardware stack levels used: 1
  6671 ;; Hardware stack levels required when called: 3
  6672 ;; This function calls:
  6673 ;;		Absolute function
  6674 ;;		_I2C1_CallbackReturnReset
  6675 ;;		_I2C1_CallbackReturnStop
  6676 ;;		_I2C1_DO_RX_NACK_RESTART
  6677 ;;		_I2C1_DO_RX_NACK_STOP
  6678 ;;		_I2C1_MasterGetRxData
  6679 ;;		_I2C1_MasterSendAck
  6680 ;;		_rd1RegCompleteHandler
  6681 ;;		_rd1RegCompleteHandler@MB85RC256V$F1625
  6682 ;;		_rdBlkRegCompleteHandler
  6683 ;;		_rdBlkRegCompleteHandler@MB85RC256V$F1619
  6684 ;;		_wr1RegCompleteHandler
  6685 ;;		_wr1RegCompleteHandler@MB85RC256V$F1610
  6686 ;; This function is called by:
  6687 ;;		_I2C1_MasterFsm
  6688 ;; This function uses a non-reentrant model
  6689 ;;
  6690                           
  6691                           	psect	text59
  6692  001D4E                     __ptext59:
  6693                           	callstack 0
  6694  001D4E                     _I2C1_DO_RX:
  6695                           	callstack 15
  6696  001D4E                     
  6697                           ;mcc_generated_files/i2c1_master.c: 382:     *I2C1_Status.data_ptr++ = I2C1_MasterGetRxD
      +                          ata();
  6698  001D4E  ECB3  F014         	call	_I2C1_MasterGetRxData	;wreg free
  6699  001D52  C083  FFD9         	movff	_I2C1_Status+35,fsr2l
  6700  001D56  C084  FFDA         	movff	_I2C1_Status+36,fsr2h
  6701  001D5A  6EDF               	movwf	indf2,c
  6702  001D5C  0100               	movlb	0	; () banked
  6703  001D5E  4B83               	infsnz	(_I2C1_Status+35)& (0+255),f,b
  6704  001D60  2B84               	incf	(_I2C1_Status+36)& (0+255),f,b
  6705  001D62                     
  6706                           ; BSR set to: 0
  6707                           ;mcc_generated_files/i2c1_master.c: 383:     if(--I2C1_Status.data_length)
  6708  001D62  0785               	decf	(_I2C1_Status+37)& (0+255),f,b
  6709  001D64  A0D8               	btfss	status,0,c
  6710  001D66  0786               	decf	(_I2C1_Status+38)& (0+255),f,b
  6711  001D68  5185               	movf	(_I2C1_Status+37)& (0+255),w,b
  6712  001D6A  1186               	iorwf	(_I2C1_Status+38)& (0+255),w,b
  6713  001D6C  B4D8               	btfsc	status,2,c
  6714  001D6E  EFBB  F00E         	goto	i2u286_41
  6715  001D72  EFBD  F00E         	goto	i2u286_40
  6716  001D76                     i2u286_41:
  6717  001D76  EFC2  F00E         	goto	i2l586
  6718  001D7A                     i2u286_40:
  6719  001D7A                     
  6720                           ; BSR set to: 0
  6721                           ;mcc_generated_files/i2c1_master.c: 384:     {;mcc_generated_files/i2c1_master.c: 385:  
      +                                 I2C1_MasterSendAck();
  6722  001D7A  ECA4  F014         	call	_I2C1_MasterSendAck	;wreg free
  6723  001D7E                     
  6724                           ;mcc_generated_files/i2c1_master.c: 386:         return I2C1_RCEN;
  6725  001D7E  0E05               	movlw	5
  6726  001D80  EFFA  F00E         	goto	i2l587
  6727  001D84                     i2l586:
  6728                           
  6729                           ; BSR set to: 0
  6730                           ;mcc_generated_files/i2c1_master.c: 389:     {;mcc_generated_files/i2c1_master.c: 390:  
      +                                 I2C1_Status.bufferFree = 1;
  6731  001D84  8789               	bsf	(_I2C1_Status+41)& (0+255),3,b
  6732                           
  6733                           ;mcc_generated_files/i2c1_master.c: 391:         switch(I2C1_Status.callbackTable[I2C1_D
      +                          ATA_COMPLETE](I2C1_Status.callbackPayload[I2C1_DATA_COMPLETE]))
  6734  001D86  EFCD  F00E         	goto	i2l4751
  6735  001D8A                     i2l4741:
  6736                           
  6737                           ;mcc_generated_files/i2c1_master.c: 395:                 return I2C1_DO_RX_NACK_RESTART(
      +                          );
  6738  001D8A  EC6E  F014         	call	_I2C1_DO_RX_NACK_RESTART	;wreg free
  6739  001D8E  EFFA  F00E         	goto	i2l587
  6740  001D92                     i2l4745:
  6741                           
  6742                           ;mcc_generated_files/i2c1_master.c: 399:                 return I2C1_DO_RX_NACK_STOP();
  6743  001D92  EC72  F014         	call	_I2C1_DO_RX_NACK_STOP	;wreg free
  6744  001D96  EFFA  F00E         	goto	i2l587
  6745  001D9A                     i2l4751:
  6746                           
  6747                           ; BSR set to: 0
  6748  001D9A  C072  F00C         	movff	_I2C1_Status+18,rd1RegCompleteHandler@MB85RC256V$F1625@ptr
  6749  001D9E  C073  F00D         	movff	_I2C1_Status+19,rd1RegCompleteHandler@MB85RC256V$F1625@ptr+1
  6750  001DA2  D802               	call	i2u287_48
  6751  001DA4  EFDE  F00E         	goto	i2u287_49
  6752  001DA8                     i2u287_48:
  6753  001DA8  0005               	push	
  6754  001DAA  6EFA               	movwf	pclath,c
  6755  001DAC  5160               	movf	_I2C1_Status& (0+255),w,b
  6756  001DAE  6EFD               	movwf	tosl,c
  6757  001DB0  5161               	movf	(_I2C1_Status+1)& (0+255),w,b
  6758  001DB2  6EFE               	movwf	tosh,c
  6759  001DB4  5162               	movf	(_I2C1_Status+2)& (0+255),w,b
  6760  001DB6  6EFF               	movwf	tosu,c
  6761  001DB8  50FA               	movf	pclath,w,c
  6762  001DBA  0012               	return		;indir
  6763  001DBC                     i2u287_49:
  6764  001DBC  6E0E               	movwf	??_I2C1_DO_RX^0,c
  6765  001DBE  6A0F               	clrf	(??_I2C1_DO_RX+1)^0,c
  6766                           
  6767                           ; Switch on 2 bytes has been partitioned into a top level switch of size 1, and 1 sub-sw
      +                          itches
  6768                           ; Switch size 1, requested type "simple"
  6769                           ; Number of cases is 1, Range of values is 0 to 0
  6770                           ; switch strategies available:
  6771                           ; Name         Instructions Cycles
  6772                           ; simple_byte            4     3 (average)
  6773                           ;	Chosen strategy is simple_byte
  6774  001DC0  500F               	movf	(??_I2C1_DO_RX+1)^0,w,c
  6775  001DC2  0A00               	xorlw	0	; case 0
  6776  001DC4  B4D8               	btfsc	status,2,c
  6777  001DC6  EFE7  F00E         	goto	i2l5413
  6778  001DCA  EFC9  F00E         	goto	i2l4745
  6779  001DCE                     i2l5413:
  6780                           
  6781                           ; Switch size 1, requested type "simple"
  6782                           ; Number of cases is 4, Range of values is 1 to 4
  6783                           ; switch strategies available:
  6784                           ; Name         Instructions Cycles
  6785                           ; simple_byte           13     7 (average)
  6786                           ;	Chosen strategy is simple_byte
  6787  001DCE  500E               	movf	??_I2C1_DO_RX^0,w,c
  6788  001DD0  0A01               	xorlw	1	; case 1
  6789  001DD2  B4D8               	btfsc	status,2,c
  6790  001DD4  EFC9  F00E         	goto	i2l4745
  6791  001DD8  0A03               	xorlw	3	; case 2
  6792  001DDA  B4D8               	btfsc	status,2,c
  6793  001DDC  EFC5  F00E         	goto	i2l4741
  6794  001DE0  0A01               	xorlw	1	; case 3
  6795  001DE2  B4D8               	btfsc	status,2,c
  6796  001DE4  EFC5  F00E         	goto	i2l4741
  6797  001DE8  0A07               	xorlw	7	; case 4
  6798  001DEA  B4D8               	btfsc	status,2,c
  6799  001DEC  EFC9  F00E         	goto	i2l4745
  6800  001DF0  EFC9  F00E         	goto	i2l4745
  6801  001DF4                     i2l587:
  6802  001DF4  0012               	return		;funcret
  6803  001DF6                     __end_of_I2C1_DO_RX:
  6804                           	callstack 0
  6805                           
  6806 ;; *************** function _I2C1_DO_TX *****************
  6807 ;; Defined at:
  6808 ;;		line 356 in file "mcc_generated_files/i2c1_master.c"
  6809 ;; Parameters:    Size  Location     Type
  6810 ;;		None
  6811 ;; Auto vars:     Size  Location     Type
  6812 ;;		None
  6813 ;; Return value:  Size  Location     Type
  6814 ;;                  1    wreg      enum E13082
  6815 ;; Registers used:
  6816 ;;		wreg, fsr2l, fsr2h, status,2, status,0, pcl, pclath, pclatu, tosl, prodl, prodh, cstack
  6817 ;; Tracked objects:
  6818 ;;		On entry : 0/0
  6819 ;;		On exit  : 0/0
  6820 ;;		Unchanged: 0/0
  6821 ;; Data sizes:     COMRAM   BANK0   BANK1   BANK2   BANK3   BANK4   BANK5   BANK6   BANK7   BANK8   BANK9  BANK10  BANK1
      +1  BANK12  BANK14
  6822 ;;      Params:         0       0       0       0       0       0       0       0       0       0       0       0       
      +0       0       0
  6823 ;;      Locals:         0       0       0       0       0       0       0       0       0       0       0       0       
      +0       0       0
  6824 ;;      Temps:          2       0       0       0       0       0       0       0       0       0       0       0       
      +0       0       0
  6825 ;;      Totals:         2       0       0       0       0       0       0       0       0       0       0       0       
      +0       0       0
  6826 ;;Total ram usage:        2 bytes
  6827 ;; Hardware stack levels used: 1
  6828 ;; Hardware stack levels required when called: 3
  6829 ;; This function calls:
  6830 ;;		Absolute function
  6831 ;;		_I2C1_CallbackReturnReset
  6832 ;;		_I2C1_CallbackReturnStop
  6833 ;;		_I2C1_DO_SEND_RESTART_READ
  6834 ;;		_I2C1_DO_SEND_RESTART_WRITE
  6835 ;;		_I2C1_DO_SEND_STOP
  6836 ;;		_I2C1_MasterIsNack
  6837 ;;		_I2C1_MasterSendTxData
  6838 ;;		_rd1RegCompleteHandler
  6839 ;;		_rd1RegCompleteHandler@MB85RC256V$F1625
  6840 ;;		_rdBlkRegCompleteHandler
  6841 ;;		_rdBlkRegCompleteHandler@MB85RC256V$F1619
  6842 ;;		_wr1RegCompleteHandler
  6843 ;;		_wr1RegCompleteHandler@MB85RC256V$F1610
  6844 ;; This function is called by:
  6845 ;;		_I2C1_MasterFsm
  6846 ;; This function uses a non-reentrant model
  6847 ;;
  6848                           
  6849                           	psect	text60
  6850  001A58                     __ptext60:
  6851                           	callstack 0
  6852  001A58                     _I2C1_DO_TX:
  6853                           	callstack 15
  6854  001A58                     
  6855                           ;mcc_generated_files/i2c1_master.c: 358:     if(I2C1_MasterIsNack())
  6856  001A58  EC0F  F014         	call	_I2C1_MasterIsNack	;wreg free
  6857  001A5C  0900               	iorlw	0
  6858  001A5E  B4D8               	btfsc	status,2,c
  6859  001A60  EF34  F00D         	goto	i2u283_41
  6860  001A64  EF36  F00D         	goto	i2u283_40
  6861  001A68                     i2u283_41:
  6862  001A68  EF73  F00D         	goto	i2l570
  6863  001A6C                     i2u283_40:
  6864  001A6C  EF44  F00D         	goto	i2l4711
  6865  001A70                     i2l4697:
  6866                           
  6867                           ;mcc_generated_files/i2c1_master.c: 363:                 return I2C1_DO_SEND_RESTART_REA
      +                          D();
  6868  001A70  EC86  F014         	call	_I2C1_DO_SEND_RESTART_READ	;wreg free
  6869  001A74  EF8F  F00D         	goto	i2l573
  6870  001A78                     i2l4701:
  6871                           
  6872                           ;mcc_generated_files/i2c1_master.c: 365:                   return I2C1_DO_SEND_RESTART_W
      +                          RITE();
  6873  001A78  EC82  F014         	call	_I2C1_DO_SEND_RESTART_WRITE	;wreg free
  6874  001A7C  EF8F  F00D         	goto	i2l573
  6875  001A80                     i2l4705:
  6876                           
  6877                           ;mcc_generated_files/i2c1_master.c: 369:                 return I2C1_DO_SEND_STOP();
  6878  001A80  EC7A  F014         	call	_I2C1_DO_SEND_STOP	;wreg free
  6879  001A84  EF8F  F00D         	goto	i2l573
  6880  001A88                     i2l4711:
  6881  001A88  C078  F00C         	movff	_I2C1_Status+24,rd1RegCompleteHandler@MB85RC256V$F1625@ptr
  6882  001A8C  C079  F00D         	movff	_I2C1_Status+25,rd1RegCompleteHandler@MB85RC256V$F1625@ptr+1
  6883  001A90  EE20  F069         	lfsr	2,_I2C1_Status+9
  6884  001A94  D802               	call	i2u284_48
  6885  001A96  EF57  F00D         	goto	i2u284_49
  6886  001A9A                     i2u284_48:
  6887  001A9A  0005               	push	
  6888  001A9C  6EFA               	movwf	pclath,c
  6889  001A9E  50DE               	movf	postinc2,w,c
  6890  001AA0  6EFD               	movwf	tosl,c
  6891  001AA2  50DE               	movf	postinc2,w,c
  6892  001AA4  6EFE               	movwf	tosh,c
  6893  001AA6  50DE               	movf	postinc2,w,c
  6894  001AA8  6EFF               	movwf	tosu,c
  6895  001AAA  50FA               	movf	pclath,w,c
  6896  001AAC  0012               	return		;indir
  6897  001AAE                     i2u284_49:
  6898  001AAE  6E0E               	movwf	??_I2C1_DO_TX^0,c
  6899  001AB0  6A0F               	clrf	(??_I2C1_DO_TX+1)^0,c
  6900                           
  6901                           ; Switch on 2 bytes has been partitioned into a top level switch of size 1, and 1 sub-sw
      +                          itches
  6902                           ; Switch size 1, requested type "simple"
  6903                           ; Number of cases is 1, Range of values is 0 to 0
  6904                           ; switch strategies available:
  6905                           ; Name         Instructions Cycles
  6906                           ; simple_byte            4     3 (average)
  6907                           ;	Chosen strategy is simple_byte
  6908  001AB2  500F               	movf	(??_I2C1_DO_TX+1)^0,w,c
  6909  001AB4  0A00               	xorlw	0	; case 0
  6910  001AB6  B4D8               	btfsc	status,2,c
  6911  001AB8  EF60  F00D         	goto	i2l5415
  6912  001ABC  EF40  F00D         	goto	i2l4705
  6913  001AC0                     i2l5415:
  6914                           
  6915                           ; Switch size 1, requested type "simple"
  6916                           ; Number of cases is 4, Range of values is 1 to 4
  6917                           ; switch strategies available:
  6918                           ; Name         Instructions Cycles
  6919                           ; simple_byte           13     7 (average)
  6920                           ;	Chosen strategy is simple_byte
  6921  001AC0  500E               	movf	??_I2C1_DO_TX^0,w,c
  6922  001AC2  0A01               	xorlw	1	; case 1
  6923  001AC4  B4D8               	btfsc	status,2,c
  6924  001AC6  EF40  F00D         	goto	i2l4705
  6925  001ACA  0A03               	xorlw	3	; case 2
  6926  001ACC  B4D8               	btfsc	status,2,c
  6927  001ACE  EF38  F00D         	goto	i2l4697
  6928  001AD2  0A01               	xorlw	1	; case 3
  6929  001AD4  B4D8               	btfsc	status,2,c
  6930  001AD6  EF3C  F00D         	goto	i2l4701
  6931  001ADA  0A07               	xorlw	7	; case 4
  6932  001ADC  B4D8               	btfsc	status,2,c
  6933  001ADE  EF40  F00D         	goto	i2l4705
  6934  001AE2  EF40  F00D         	goto	i2l4705
  6935  001AE6                     i2l570:
  6936                           
  6937                           ;mcc_generated_files/i2c1_master.c: 373:     {;mcc_generated_files/i2c1_master.c: 374:  
      +                                 I2C1_Status.addressNackCheck = 0;
  6938  001AE6  0100               	movlb	0	; () banked
  6939  001AE8  9189               	bcf	(_I2C1_Status+41)& (0+255),0,b
  6940  001AEA                     
  6941                           ; BSR set to: 0
  6942                           ;mcc_generated_files/i2c1_master.c: 375:         I2C1_MasterSendTxData(*I2C1_Status.data
      +                          _ptr++);
  6943  001AEA  C083  FFD9         	movff	_I2C1_Status+35,fsr2l
  6944  001AEE  C084  FFDA         	movff	_I2C1_Status+36,fsr2h
  6945  001AF2  4B83               	infsnz	(_I2C1_Status+35)& (0+255),f,b
  6946  001AF4  2B84               	incf	(_I2C1_Status+36)& (0+255),f,b
  6947  001AF6  50DF               	movf	indf2,w,c
  6948  001AF8  EC8A  F014         	call	_I2C1_MasterSendTxData
  6949  001AFC                     
  6950                           ;mcc_generated_files/i2c1_master.c: 376:         return (--I2C1_Status.data_length)?I2C1
      +                          _TX:I2C1_TX_EMPTY;
  6951  001AFC  0100               	movlb	0	; () banked
  6952  001AFE  0785               	decf	(_I2C1_Status+37)& (0+255),f,b
  6953  001B00  A0D8               	btfss	status,0,c
  6954  001B02  0786               	decf	(_I2C1_Status+38)& (0+255),f,b
  6955  001B04  5185               	movf	(_I2C1_Status+37)& (0+255),w,b
  6956  001B06  1186               	iorwf	(_I2C1_Status+38)& (0+255),w,b
  6957  001B08  A4D8               	btfss	status,2,c
  6958  001B0A  EF89  F00D         	goto	i2u285_41
  6959  001B0E  EF8B  F00D         	goto	i2u285_40
  6960  001B12                     i2u285_41:
  6961  001B12  EF8E  F00D         	goto	i2l4719
  6962  001B16                     i2u285_40:
  6963  001B16                     
  6964                           ; BSR set to: 0
  6965  001B16  0E06               	movlw	6
  6966  001B18  EF8F  F00D         	goto	i2l573
  6967  001B1C                     i2l4719:
  6968                           
  6969                           ; BSR set to: 0
  6970  001B1C  0E03               	movlw	3
  6971  001B1E                     i2l573:
  6972  001B1E  0012               	return		;funcret
  6973  001B20                     __end_of_I2C1_DO_TX:
  6974                           	callstack 0
  6975                           
  6976 ;; *************** function _I2C1_DO_SEND_ADR_WRITE *****************
  6977 ;; Defined at:
  6978 ;;		line 349 in file "mcc_generated_files/i2c1_master.c"
  6979 ;; Parameters:    Size  Location     Type
  6980 ;;		None
  6981 ;; Auto vars:     Size  Location     Type
  6982 ;;		None
  6983 ;; Return value:  Size  Location     Type
  6984 ;;                  1    wreg      enum E13082
  6985 ;; Registers used:
  6986 ;;		wreg, status,2, status,0, cstack
  6987 ;; Tracked objects:
  6988 ;;		On entry : 0/0
  6989 ;;		On exit  : 0/0
  6990 ;;		Unchanged: 0/0
  6991 ;; Data sizes:     COMRAM   BANK0   BANK1   BANK2   BANK3   BANK4   BANK5   BANK6   BANK7   BANK8   BANK9  BANK10  BANK1
      +1  BANK12  BANK14
  6992 ;;      Params:         0       0       0       0       0       0       0       0       0       0       0       0       
      +0       0       0
  6993 ;;      Locals:         0       0       0       0       0       0       0       0       0       0       0       0       
      +0       0       0
  6994 ;;      Temps:          0       0       0       0       0       0       0       0       0       0       0       0       
      +0       0       0
  6995 ;;      Totals:         0       0       0       0       0       0       0       0       0       0       0       0       
      +0       0       0
  6996 ;;Total ram usage:        0 bytes
  6997 ;; Hardware stack levels used: 1
  6998 ;; Hardware stack levels required when called: 1
  6999 ;; This function calls:
  7000 ;;		_I2C1_MasterSendTxData
  7001 ;; This function is called by:
  7002 ;;		_I2C1_MasterFsm
  7003 ;; This function uses a non-reentrant model
  7004 ;;
  7005                           
  7006                           	psect	text61
  7007  002832                     __ptext61:
  7008                           	callstack 0
  7009  002832                     _I2C1_DO_SEND_ADR_WRITE:
  7010                           	callstack 17
  7011  002832                     
  7012                           ;mcc_generated_files/i2c1_master.c: 351:     I2C1_Status.addressNackCheck = 1;
  7013  002832  0100               	movlb	0	; () banked
  7014  002834  8189               	bsf	(_I2C1_Status+41)& (0+255),0,b
  7015  002836                     
  7016                           ; BSR set to: 0
  7017                           ;mcc_generated_files/i2c1_master.c: 352:     I2C1_MasterSendTxData(I2C1_Status.address <
      +                          < 1);
  7018  002836  5182               	movf	(_I2C1_Status+34)& (0+255),w,b
  7019  002838  2582               	addwf	(_I2C1_Status+34)& (0+255),w,b
  7020  00283A  EC8A  F014         	call	_I2C1_MasterSendTxData
  7021  00283E                     
  7022                           ;mcc_generated_files/i2c1_master.c: 353:     return I2C1_TX;
  7023  00283E  0E03               	movlw	3
  7024  002840  0012               	return		;funcret
  7025  002842                     __end_of_I2C1_DO_SEND_ADR_WRITE:
  7026                           	callstack 0
  7027                           
  7028 ;; *************** function _I2C1_DO_SEND_ADR_READ *****************
  7029 ;; Defined at:
  7030 ;;		line 342 in file "mcc_generated_files/i2c1_master.c"
  7031 ;; Parameters:    Size  Location     Type
  7032 ;;		None
  7033 ;; Auto vars:     Size  Location     Type
  7034 ;;		None
  7035 ;; Return value:  Size  Location     Type
  7036 ;;                  1    wreg      enum E13082
  7037 ;; Registers used:
  7038 ;;		wreg, status,0, cstack
  7039 ;; Tracked objects:
  7040 ;;		On entry : 0/0
  7041 ;;		On exit  : 0/0
  7042 ;;		Unchanged: 0/0
  7043 ;; Data sizes:     COMRAM   BANK0   BANK1   BANK2   BANK3   BANK4   BANK5   BANK6   BANK7   BANK8   BANK9  BANK10  BANK1
      +1  BANK12  BANK14
  7044 ;;      Params:         0       0       0       0       0       0       0       0       0       0       0       0       
      +0       0       0
  7045 ;;      Locals:         0       0       0       0       0       0       0       0       0       0       0       0       
      +0       0       0
  7046 ;;      Temps:          0       0       0       0       0       0       0       0       0       0       0       0       
      +0       0       0
  7047 ;;      Totals:         0       0       0       0       0       0       0       0       0       0       0       0       
      +0       0       0
  7048 ;;Total ram usage:        0 bytes
  7049 ;; Hardware stack levels used: 1
  7050 ;; Hardware stack levels required when called: 1
  7051 ;; This function calls:
  7052 ;;		_I2C1_MasterSendTxData
  7053 ;; This function is called by:
  7054 ;;		_I2C1_MasterFsm
  7055 ;; This function uses a non-reentrant model
  7056 ;;
  7057                           
  7058                           	psect	text62
  7059  002842                     __ptext62:
  7060                           	callstack 0
  7061  002842                     _I2C1_DO_SEND_ADR_READ:
  7062                           	callstack 17
  7063  002842                     
  7064                           ;mcc_generated_files/i2c1_master.c: 344:     I2C1_Status.addressNackCheck = 1;
  7065  002842  0100               	movlb	0	; () banked
  7066  002844  8189               	bsf	(_I2C1_Status+41)& (0+255),0,b
  7067  002846                     
  7068                           ; BSR set to: 0
  7069                           ;mcc_generated_files/i2c1_master.c: 345:     I2C1_MasterSendTxData(I2C1_Status.address <
      +                          < 1 | 1);
  7070  002846  80D8               	bsf	status,0,c
  7071  002848  3582               	rlcf	(_I2C1_Status+34)& (0+255),w,b
  7072  00284A  EC8A  F014         	call	_I2C1_MasterSendTxData
  7073  00284E                     
  7074                           ;mcc_generated_files/i2c1_master.c: 346:     return I2C1_RCEN;
  7075  00284E  0E05               	movlw	5
  7076  002850  0012               	return		;funcret
  7077  002852                     __end_of_I2C1_DO_SEND_ADR_READ:
  7078                           	callstack 0
  7079                           
  7080 ;; *************** function _I2C1_DO_IDLE *****************
  7081 ;; Defined at:
  7082 ;;		line 335 in file "mcc_generated_files/i2c1_master.c"
  7083 ;; Parameters:    Size  Location     Type
  7084 ;;		None
  7085 ;; Auto vars:     Size  Location     Type
  7086 ;;		None
  7087 ;; Return value:  Size  Location     Type
  7088 ;;                  1    wreg      enum E13082
  7089 ;; Registers used:
  7090 ;;		wreg, status,2
  7091 ;; Tracked objects:
  7092 ;;		On entry : 0/0
  7093 ;;		On exit  : 0/0
  7094 ;;		Unchanged: 0/0
  7095 ;; Data sizes:     COMRAM   BANK0   BANK1   BANK2   BANK3   BANK4   BANK5   BANK6   BANK7   BANK8   BANK9  BANK10  BANK1
      +1  BANK12  BANK14
  7096 ;;      Params:         0       0       0       0       0       0       0       0       0       0       0       0       
      +0       0       0
  7097 ;;      Locals:         0       0       0       0       0       0       0       0       0       0       0       0       
      +0       0       0
  7098 ;;      Temps:          0       0       0       0       0       0       0       0       0       0       0       0       
      +0       0       0
  7099 ;;      Totals:         0       0       0       0       0       0       0       0       0       0       0       0       
      +0       0       0
  7100 ;;Total ram usage:        0 bytes
  7101 ;; Hardware stack levels used: 1
  7102 ;; This function calls:
  7103 ;;		Nothing
  7104 ;; This function is called by:
  7105 ;;		_I2C1_MasterFsm
  7106 ;; This function uses a non-reentrant model
  7107 ;;
  7108                           
  7109                           	psect	text63
  7110  0028BE                     __ptext63:
  7111                           	callstack 0
  7112  0028BE                     _I2C1_DO_IDLE:
  7113                           	callstack 18
  7114  0028BE                     
  7115                           ;mcc_generated_files/i2c1_master.c: 337:     I2C1_Status.busy = 0;
  7116  0028BE  0100               	movlb	0	; () banked
  7117  0028C0  9389               	bcf	(_I2C1_Status+41)& (0+255),1,b
  7118  0028C2                     
  7119                           ; BSR set to: 0
  7120                           ;mcc_generated_files/i2c1_master.c: 338:     I2C1_Status.error = I2C1_NOERR;
  7121  0028C2  0E00               	movlw	0
  7122  0028C4  6F88               	movwf	(_I2C1_Status+40)& (0+255),b
  7123  0028C6                     
  7124                           ; BSR set to: 0
  7125                           ;mcc_generated_files/i2c1_master.c: 339:     return I2C1_RESET;
  7126  0028C6  0E0E               	movlw	14
  7127  0028C8                     
  7128                           ; BSR set to: 0
  7129  0028C8  0012               	return		;funcret
  7130  0028CA                     __end_of_I2C1_DO_IDLE:
  7131                           	callstack 0
  7132                           
  7133 ;; *************** function _I2C1_DO_TX_EMPTY *****************
  7134 ;; Defined at:
  7135 ;;		line 411 in file "mcc_generated_files/i2c1_master.c"
  7136 ;; Parameters:    Size  Location     Type
  7137 ;;		None
  7138 ;; Auto vars:     Size  Location     Type
  7139 ;;		None
  7140 ;; Return value:  Size  Location     Type
  7141 ;;                  1    wreg      enum E13082
  7142 ;; Registers used:
  7143 ;;		wreg, fsr2l, fsr2h, status,2, status,0, pcl, pclath, pclatu, tosl, prodl, prodh, cstack
  7144 ;; Tracked objects:
  7145 ;;		On entry : 0/0
  7146 ;;		On exit  : 0/0
  7147 ;;		Unchanged: 0/0
  7148 ;; Data sizes:     COMRAM   BANK0   BANK1   BANK2   BANK3   BANK4   BANK5   BANK6   BANK7   BANK8   BANK9  BANK10  BANK1
      +1  BANK12  BANK14
  7149 ;;      Params:         0       0       0       0       0       0       0       0       0       0       0       0       
      +0       0       0
  7150 ;;      Locals:         0       0       0       0       0       0       0       0       0       0       0       0       
      +0       0       0
  7151 ;;      Temps:          2       0       0       0       0       0       0       0       0       0       0       0       
      +0       0       0
  7152 ;;      Totals:         2       0       0       0       0       0       0       0       0       0       0       0       
      +0       0       0
  7153 ;;Total ram usage:        2 bytes
  7154 ;; Hardware stack levels used: 1
  7155 ;; Hardware stack levels required when called: 3
  7156 ;; This function calls:
  7157 ;;		Absolute function
  7158 ;;		_I2C1_CallbackReturnReset
  7159 ;;		_I2C1_CallbackReturnStop
  7160 ;;		_I2C1_DO_SEND_RESTART
  7161 ;;		_I2C1_DO_SEND_STOP
  7162 ;;		_I2C1_MasterSetIrq
  7163 ;;		_rd1RegCompleteHandler
  7164 ;;		_rd1RegCompleteHandler@MB85RC256V$F1625
  7165 ;;		_rdBlkRegCompleteHandler
  7166 ;;		_rdBlkRegCompleteHandler@MB85RC256V$F1619
  7167 ;;		_wr1RegCompleteHandler
  7168 ;;		_wr1RegCompleteHandler@MB85RC256V$F1610
  7169 ;; This function is called by:
  7170 ;;		_I2C1_MasterFsm
  7171 ;; This function uses a non-reentrant model
  7172 ;;
  7173                           
  7174                           	psect	text64
  7175  00213C                     __ptext64:
  7176                           	callstack 0
  7177  00213C                     _I2C1_DO_TX_EMPTY:
  7178                           	callstack 15
  7179  00213C                     
  7180                           ;mcc_generated_files/i2c1_master.c: 413:     I2C1_Status.bufferFree = 1;
  7181  00213C  0100               	movlb	0	; () banked
  7182  00213E  8789               	bsf	(_I2C1_Status+41)& (0+255),3,b
  7183                           
  7184                           ;mcc_generated_files/i2c1_master.c: 414:     switch(I2C1_Status.callbackTable[I2C1_DATA_
      +                          COMPLETE](I2C1_Status.callbackPayload[I2C1_DATA_COMPLETE]))
  7185  002140  EFAF  F010         	goto	i2l4775
  7186  002144                     i2l4759:
  7187                           
  7188                           ;mcc_generated_files/i2c1_master.c: 418:             return I2C1_DO_SEND_RESTART();
  7189  002144  EC7E  F014         	call	_I2C1_DO_SEND_RESTART	;wreg free
  7190  002148  EFDC  F010         	goto	i2l604
  7191  00214C                     i2l4763:
  7192                           
  7193                           ;mcc_generated_files/i2c1_master.c: 420:             I2C1_MasterSetIrq();
  7194  00214C  ECA1  F014         	call	_I2C1_MasterSetIrq	;wreg free
  7195  002150                     
  7196                           ;mcc_generated_files/i2c1_master.c: 421:             return I2C1_TX;
  7197  002150  0E03               	movlw	3
  7198  002152  EFDC  F010         	goto	i2l604
  7199  002156                     i2l4769:
  7200                           
  7201                           ;mcc_generated_files/i2c1_master.c: 424:             return I2C1_DO_SEND_STOP();
  7202  002156  EC7A  F014         	call	_I2C1_DO_SEND_STOP	;wreg free
  7203  00215A  EFDC  F010         	goto	i2l604
  7204  00215E                     i2l4775:
  7205                           
  7206                           ; BSR set to: 0
  7207  00215E  C072  F00C         	movff	_I2C1_Status+18,rd1RegCompleteHandler@MB85RC256V$F1625@ptr
  7208  002162  C073  F00D         	movff	_I2C1_Status+19,rd1RegCompleteHandler@MB85RC256V$F1625@ptr+1
  7209  002166  D802               	call	i2u288_48
  7210  002168  EFC0  F010         	goto	i2u288_49
  7211  00216C                     i2u288_48:
  7212  00216C  0005               	push	
  7213  00216E  6EFA               	movwf	pclath,c
  7214  002170  5160               	movf	_I2C1_Status& (0+255),w,b
  7215  002172  6EFD               	movwf	tosl,c
  7216  002174  5161               	movf	(_I2C1_Status+1)& (0+255),w,b
  7217  002176  6EFE               	movwf	tosh,c
  7218  002178  5162               	movf	(_I2C1_Status+2)& (0+255),w,b
  7219  00217A  6EFF               	movwf	tosu,c
  7220  00217C  50FA               	movf	pclath,w,c
  7221  00217E  0012               	return		;indir
  7222  002180                     i2u288_49:
  7223  002180  6E0E               	movwf	??_I2C1_DO_TX_EMPTY^0,c
  7224  002182  6A0F               	clrf	(??_I2C1_DO_TX_EMPTY+1)^0,c
  7225                           
  7226                           ; Switch on 2 bytes has been partitioned into a top level switch of size 1, and 1 sub-sw
      +                          itches
  7227                           ; Switch size 1, requested type "simple"
  7228                           ; Number of cases is 1, Range of values is 0 to 0
  7229                           ; switch strategies available:
  7230                           ; Name         Instructions Cycles
  7231                           ; simple_byte            4     3 (average)
  7232                           ;	Chosen strategy is simple_byte
  7233  002184  500F               	movf	(??_I2C1_DO_TX_EMPTY+1)^0,w,c
  7234  002186  0A00               	xorlw	0	; case 0
  7235  002188  B4D8               	btfsc	status,2,c
  7236  00218A  EFC9  F010         	goto	i2l5417
  7237  00218E  EFAB  F010         	goto	i2l4769
  7238  002192                     i2l5417:
  7239                           
  7240                           ; Switch size 1, requested type "simple"
  7241                           ; Number of cases is 4, Range of values is 1 to 4
  7242                           ; switch strategies available:
  7243                           ; Name         Instructions Cycles
  7244                           ; simple_byte           13     7 (average)
  7245                           ;	Chosen strategy is simple_byte
  7246  002192  500E               	movf	??_I2C1_DO_TX_EMPTY^0,w,c
  7247  002194  0A01               	xorlw	1	; case 1
  7248  002196  B4D8               	btfsc	status,2,c
  7249  002198  EFAB  F010         	goto	i2l4769
  7250  00219C  0A03               	xorlw	3	; case 2
  7251  00219E  B4D8               	btfsc	status,2,c
  7252  0021A0  EFA2  F010         	goto	i2l4759
  7253  0021A4  0A01               	xorlw	1	; case 3
  7254  0021A6  B4D8               	btfsc	status,2,c
  7255  0021A8  EFA2  F010         	goto	i2l4759
  7256  0021AC  0A07               	xorlw	7	; case 4
  7257  0021AE  B4D8               	btfsc	status,2,c
  7258  0021B0  EFA6  F010         	goto	i2l4763
  7259  0021B4  EFAB  F010         	goto	i2l4769
  7260  0021B8                     i2l604:
  7261  0021B8  0012               	return		;funcret
  7262  0021BA                     __end_of_I2C1_DO_TX_EMPTY:
  7263                           	callstack 0
  7264                           
  7265 ;; *************** function _I2C1_MasterSetIrq *****************
  7266 ;; Defined at:
  7267 ;;		line 647 in file "mcc_generated_files/i2c1_master.c"
  7268 ;; Parameters:    Size  Location     Type
  7269 ;;		None
  7270 ;; Auto vars:     Size  Location     Type
  7271 ;;		None
  7272 ;; Return value:  Size  Location     Type
  7273 ;;                  1    wreg      void 
  7274 ;; Registers used:
  7275 ;;		None
  7276 ;; Tracked objects:
  7277 ;;		On entry : 0/0
  7278 ;;		On exit  : 0/0
  7279 ;;		Unchanged: 0/0
  7280 ;; Data sizes:     COMRAM   BANK0   BANK1   BANK2   BANK3   BANK4   BANK5   BANK6   BANK7   BANK8   BANK9  BANK10  BANK1
      +1  BANK12  BANK14
  7281 ;;      Params:         0       0       0       0       0       0       0       0       0       0       0       0       
      +0       0       0
  7282 ;;      Locals:         0       0       0       0       0       0       0       0       0       0       0       0       
      +0       0       0
  7283 ;;      Temps:          0       0       0       0       0       0       0       0       0       0       0       0       
      +0       0       0
  7284 ;;      Totals:         0       0       0       0       0       0       0       0       0       0       0       0       
      +0       0       0
  7285 ;;Total ram usage:        0 bytes
  7286 ;; Hardware stack levels used: 1
  7287 ;; This function calls:
  7288 ;;		Nothing
  7289 ;; This function is called by:
  7290 ;;		_I2C1_DO_TX_EMPTY
  7291 ;; This function uses a non-reentrant model
  7292 ;;
  7293                           
  7294                           	psect	text65
  7295  002942                     __ptext65:
  7296                           	callstack 0
  7297  002942                     _I2C1_MasterSetIrq:
  7298                           	callstack 17
  7299  002942                     
  7300                           ;mcc_generated_files/i2c1_master.c: 649:     PIR3bits.SSP1IF = 1;
  7301  002942  010E               	movlb	14	; () banked
  7302  002944  81C8               	bsf	200,0,b	;volatile
  7303  002946                     
  7304                           ; BSR set to: 14
  7305  002946  0012               	return		;funcret
  7306  002948                     __end_of_I2C1_MasterSetIrq:
  7307                           	callstack 0
  7308                           
  7309 ;; *************** function _I2C1_MasterIsNack *****************
  7310 ;; Defined at:
  7311 ;;		line 599 in file "mcc_generated_files/i2c1_master.c"
  7312 ;; Parameters:    Size  Location     Type
  7313 ;;		None
  7314 ;; Auto vars:     Size  Location     Type
  7315 ;;		None
  7316 ;; Return value:  Size  Location     Type
  7317 ;;                  1    wreg      _Bool 
  7318 ;; Registers used:
  7319 ;;		wreg
  7320 ;; Tracked objects:
  7321 ;;		On entry : 0/0
  7322 ;;		On exit  : 0/0
  7323 ;;		Unchanged: 0/0
  7324 ;; Data sizes:     COMRAM   BANK0   BANK1   BANK2   BANK3   BANK4   BANK5   BANK6   BANK7   BANK8   BANK9  BANK10  BANK1
      +1  BANK12  BANK14
  7325 ;;      Params:         0       0       0       0       0       0       0       0       0       0       0       0       
      +0       0       0
  7326 ;;      Locals:         0       0       0       0       0       0       0       0       0       0       0       0       
      +0       0       0
  7327 ;;      Temps:          0       0       0       0       0       0       0       0       0       0       0       0       
      +0       0       0
  7328 ;;      Totals:         0       0       0       0       0       0       0       0       0       0       0       0       
      +0       0       0
  7329 ;;Total ram usage:        0 bytes
  7330 ;; Hardware stack levels used: 1
  7331 ;; This function calls:
  7332 ;;		Nothing
  7333 ;; This function is called by:
  7334 ;;		_I2C1_MasterFsm
  7335 ;;		_I2C1_DO_TX
  7336 ;; This function uses a non-reentrant model
  7337 ;;
  7338                           
  7339                           	psect	text66
  7340  00281E                     __ptext66:
  7341                           	callstack 0
  7342  00281E                     _I2C1_MasterIsNack:
  7343                           	callstack 18
  7344  00281E                     
  7345                           ;mcc_generated_files/i2c1_master.c: 601:     return SSP1CON2bits.ACKSTAT;
  7346  00281E  BC96               	btfsc	150,6,c	;volatile
  7347  002820  EF14  F014         	goto	i2u263_41
  7348  002824  EF17  F014         	goto	i2u263_40
  7349  002828                     i2u263_41:
  7350  002828  0E01               	movlw	1
  7351  00282A  EF18  F014         	goto	i2u263_46
  7352  00282E                     i2u263_40:
  7353  00282E  0E00               	movlw	0
  7354  002830                     i2u263_46:
  7355  002830  0012               	return		;funcret
  7356  002832                     __end_of_I2C1_MasterIsNack:
  7357                           	callstack 0
  7358                           
  7359 ;; *************** function _I2C1_MasterSendTxData *****************
  7360 ;; Defined at:
  7361 ;;		line 569 in file "mcc_generated_files/i2c1_master.c"
  7362 ;; Parameters:    Size  Location     Type
  7363 ;;  data            1    wreg     unsigned char 
  7364 ;; Auto vars:     Size  Location     Type
  7365 ;;  data            1    0[COMRAM] unsigned char 
  7366 ;; Return value:  Size  Location     Type
  7367 ;;                  1    wreg      void 
  7368 ;; Registers used:
  7369 ;;		wreg
  7370 ;; Tracked objects:
  7371 ;;		On entry : 0/0
  7372 ;;		On exit  : 0/0
  7373 ;;		Unchanged: 0/0
  7374 ;; Data sizes:     COMRAM   BANK0   BANK1   BANK2   BANK3   BANK4   BANK5   BANK6   BANK7   BANK8   BANK9  BANK10  BANK1
      +1  BANK12  BANK14
  7375 ;;      Params:         0       0       0       0       0       0       0       0       0       0       0       0       
      +0       0       0
  7376 ;;      Locals:         1       0       0       0       0       0       0       0       0       0       0       0       
      +0       0       0
  7377 ;;      Temps:          0       0       0       0       0       0       0       0       0       0       0       0       
      +0       0       0
  7378 ;;      Totals:         1       0       0       0       0       0       0       0       0       0       0       0       
      +0       0       0
  7379 ;;Total ram usage:        1 bytes
  7380 ;; Hardware stack levels used: 1
  7381 ;; This function calls:
  7382 ;;		Nothing
  7383 ;; This function is called by:
  7384 ;;		_I2C1_DO_SEND_ADR_READ
  7385 ;;		_I2C1_DO_SEND_ADR_WRITE
  7386 ;;		_I2C1_DO_TX
  7387 ;; This function uses a non-reentrant model
  7388 ;;
  7389                           
  7390                           	psect	text67
  7391  002914                     __ptext67:
  7392                           	callstack 0
  7393  002914                     _I2C1_MasterSendTxData:
  7394                           	callstack 17
  7395                           
  7396                           ;incstack = 0
  7397                           ;I2C1_MasterSendTxData@data stored from wreg
  7398  002914  6E01               	movwf	I2C1_MasterSendTxData@data^0,c
  7399  002916                     
  7400                           ;mcc_generated_files/i2c1_master.c: 569: static __attribute__((inline)) void I2C1_Master
      +                          SendTxData(uint8_t data);mcc_generated_files/i2c1_master.c: 570: {;mcc_generated_files/i
      +                          2c1_master.c: 571:     SSP1BUF = data;
  7401  002916  C001  FF91         	movff	I2C1_MasterSendTxData@data,3985	;volatile
  7402  00291A  0012               	return		;funcret
  7403  00291C                     __end_of_I2C1_MasterSendTxData:
  7404                           	callstack 0
  7405                           
  7406 ;; *************** function _I2C1_MasterSendAck *****************
  7407 ;; Defined at:
  7408 ;;		line 604 in file "mcc_generated_files/i2c1_master.c"
  7409 ;; Parameters:    Size  Location     Type
  7410 ;;		None
  7411 ;; Auto vars:     Size  Location     Type
  7412 ;;		None
  7413 ;; Return value:  Size  Location     Type
  7414 ;;                  1    wreg      void 
  7415 ;; Registers used:
  7416 ;;		None
  7417 ;; Tracked objects:
  7418 ;;		On entry : 0/0
  7419 ;;		On exit  : 0/0
  7420 ;;		Unchanged: 0/0
  7421 ;; Data sizes:     COMRAM   BANK0   BANK1   BANK2   BANK3   BANK4   BANK5   BANK6   BANK7   BANK8   BANK9  BANK10  BANK1
      +1  BANK12  BANK14
  7422 ;;      Params:         0       0       0       0       0       0       0       0       0       0       0       0       
      +0       0       0
  7423 ;;      Locals:         0       0       0       0       0       0       0       0       0       0       0       0       
      +0       0       0
  7424 ;;      Temps:          0       0       0       0       0       0       0       0       0       0       0       0       
      +0       0       0
  7425 ;;      Totals:         0       0       0       0       0       0       0       0       0       0       0       0       
      +0       0       0
  7426 ;;Total ram usage:        0 bytes
  7427 ;; Hardware stack levels used: 1
  7428 ;; This function calls:
  7429 ;;		Nothing
  7430 ;; This function is called by:
  7431 ;;		_I2C1_DO_RX
  7432 ;;		_I2C1_DO_RX_ACK
  7433 ;; This function uses a non-reentrant model
  7434 ;;
  7435                           
  7436                           	psect	text68
  7437  002948                     __ptext68:
  7438                           	callstack 0
  7439  002948                     _I2C1_MasterSendAck:
  7440                           	callstack 17
  7441  002948                     
  7442                           ;mcc_generated_files/i2c1_master.c: 606:     SSP1CON2bits.ACKDT = 0;
  7443  002948  9A96               	bcf	150,5,c	;volatile
  7444                           
  7445                           ;mcc_generated_files/i2c1_master.c: 607:     SSP1CON2bits.ACKEN = 1;
  7446  00294A  8896               	bsf	150,4,c	;volatile
  7447  00294C  0012               	return		;funcret
  7448  00294E                     __end_of_I2C1_MasterSendAck:
  7449                           	callstack 0
  7450                           
  7451 ;; *************** function _I2C1_MasterGetRxData *****************
  7452 ;; Defined at:
  7453 ;;		line 564 in file "mcc_generated_files/i2c1_master.c"
  7454 ;; Parameters:    Size  Location     Type
  7455 ;;		None
  7456 ;; Auto vars:     Size  Location     Type
  7457 ;;		None
  7458 ;; Return value:  Size  Location     Type
  7459 ;;                  1    wreg      unsigned char 
  7460 ;; Registers used:
  7461 ;;		wreg, status,2
  7462 ;; Tracked objects:
  7463 ;;		On entry : 0/0
  7464 ;;		On exit  : 0/0
  7465 ;;		Unchanged: 0/0
  7466 ;; Data sizes:     COMRAM   BANK0   BANK1   BANK2   BANK3   BANK4   BANK5   BANK6   BANK7   BANK8   BANK9  BANK10  BANK1
      +1  BANK12  BANK14
  7467 ;;      Params:         0       0       0       0       0       0       0       0       0       0       0       0       
      +0       0       0
  7468 ;;      Locals:         0       0       0       0       0       0       0       0       0       0       0       0       
      +0       0       0
  7469 ;;      Temps:          0       0       0       0       0       0       0       0       0       0       0       0       
      +0       0       0
  7470 ;;      Totals:         0       0       0       0       0       0       0       0       0       0       0       0       
      +0       0       0
  7471 ;;Total ram usage:        0 bytes
  7472 ;; Hardware stack levels used: 1
  7473 ;; This function calls:
  7474 ;;		Nothing
  7475 ;; This function is called by:
  7476 ;;		_I2C1_DO_RX
  7477 ;; This function uses a non-reentrant model
  7478 ;;
  7479                           
  7480                           	psect	text69
  7481  002966                     __ptext69:
  7482                           	callstack 0
  7483  002966                     _I2C1_MasterGetRxData:
  7484                           	callstack 17
  7485  002966                     
  7486                           ;mcc_generated_files/i2c1_master.c: 566:     return SSP1BUF;
  7487  002966  5091               	movf	145,w,c	;volatile
  7488  002968  0012               	return		;funcret
  7489  00296A                     __end_of_I2C1_MasterGetRxData:
  7490                           	callstack 0
  7491                           
  7492 ;; *************** function _I2C1_MasterSendNack *****************
  7493 ;; Defined at:
  7494 ;;		line 610 in file "mcc_generated_files/i2c1_master.c"
  7495 ;; Parameters:    Size  Location     Type
  7496 ;;		None
  7497 ;; Auto vars:     Size  Location     Type
  7498 ;;		None
  7499 ;; Return value:  Size  Location     Type
  7500 ;;                  1    wreg      void 
  7501 ;; Registers used:
  7502 ;;		None
  7503 ;; Tracked objects:
  7504 ;;		On entry : 0/0
  7505 ;;		On exit  : 0/0
  7506 ;;		Unchanged: 0/0
  7507 ;; Data sizes:     COMRAM   BANK0   BANK1   BANK2   BANK3   BANK4   BANK5   BANK6   BANK7   BANK8   BANK9  BANK10  BANK1
      +1  BANK12  BANK14
  7508 ;;      Params:         0       0       0       0       0       0       0       0       0       0       0       0       
      +0       0       0
  7509 ;;      Locals:         0       0       0       0       0       0       0       0       0       0       0       0       
      +0       0       0
  7510 ;;      Temps:          0       0       0       0       0       0       0       0       0       0       0       0       
      +0       0       0
  7511 ;;      Totals:         0       0       0       0       0       0       0       0       0       0       0       0       
      +0       0       0
  7512 ;;Total ram usage:        0 bytes
  7513 ;; Hardware stack levels used: 1
  7514 ;; This function calls:
  7515 ;;		Nothing
  7516 ;; This function is called by:
  7517 ;;		_I2C1_DO_RX_NACK_STOP
  7518 ;;		_I2C1_DO_RX_NACK_RESTART
  7519 ;; This function uses a non-reentrant model
  7520 ;;
  7521                           
  7522                           	psect	text70
  7523  00294E                     __ptext70:
  7524                           	callstack 0
  7525  00294E                     _I2C1_MasterSendNack:
  7526                           	callstack 17
  7527  00294E                     
  7528                           ;mcc_generated_files/i2c1_master.c: 612:     SSP1CON2bits.ACKDT = 1;
  7529  00294E  8A96               	bsf	150,5,c	;volatile
  7530                           
  7531                           ;mcc_generated_files/i2c1_master.c: 613:     SSP1CON2bits.ACKEN = 1;
  7532  002950  8896               	bsf	150,4,c	;volatile
  7533  002952  0012               	return		;funcret
  7534  002954                     __end_of_I2C1_MasterSendNack:
  7535                           	callstack 0
  7536                           
  7537 ;; *************** function _I2C1_MasterStartRx *****************
  7538 ;; Defined at:
  7539 ;;		line 584 in file "mcc_generated_files/i2c1_master.c"
  7540 ;; Parameters:    Size  Location     Type
  7541 ;;		None
  7542 ;; Auto vars:     Size  Location     Type
  7543 ;;		None
  7544 ;; Return value:  Size  Location     Type
  7545 ;;                  1    wreg      void 
  7546 ;; Registers used:
  7547 ;;		None
  7548 ;; Tracked objects:
  7549 ;;		On entry : 0/0
  7550 ;;		On exit  : 0/0
  7551 ;;		Unchanged: 0/0
  7552 ;; Data sizes:     COMRAM   BANK0   BANK1   BANK2   BANK3   BANK4   BANK5   BANK6   BANK7   BANK8   BANK9  BANK10  BANK1
      +1  BANK12  BANK14
  7553 ;;      Params:         0       0       0       0       0       0       0       0       0       0       0       0       
      +0       0       0
  7554 ;;      Locals:         0       0       0       0       0       0       0       0       0       0       0       0       
      +0       0       0
  7555 ;;      Temps:          0       0       0       0       0       0       0       0       0       0       0       0       
      +0       0       0
  7556 ;;      Totals:         0       0       0       0       0       0       0       0       0       0       0       0       
      +0       0       0
  7557 ;;Total ram usage:        0 bytes
  7558 ;; Hardware stack levels used: 1
  7559 ;; This function calls:
  7560 ;;		Nothing
  7561 ;; This function is called by:
  7562 ;;		_I2C1_DO_RCEN
  7563 ;; This function uses a non-reentrant model
  7564 ;;
  7565                           
  7566                           	psect	text71
  7567  00296A                     __ptext71:
  7568                           	callstack 0
  7569  00296A                     _I2C1_MasterStartRx:
  7570                           	callstack 17
  7571  00296A                     
  7572                           ;mcc_generated_files/i2c1_master.c: 586:     SSP1CON2bits.RCEN = 1;
  7573  00296A  8696               	bsf	150,3,c	;volatile
  7574  00296C  0012               	return		;funcret
  7575  00296E                     __end_of_I2C1_MasterStartRx:
  7576                           	callstack 0
  7577                           
  7578 ;; *************** function _rd1RegCompleteHandler@MB85RC256V$F1625 *****************
  7579 ;; Defined at:
  7580 ;;		line 141 in file "MB85RC256V.c"
  7581 ;; Parameters:    Size  Location     Type
  7582 ;;  ptr             2   11[COMRAM] PTR void 
  7583 ;;		 -> FRAM_ReadByte@returnValue(1), FRAM_ReadNBytes@bufferBlock(4), FRAM_WriteByte@data(1), I2C1_ReadByte@returnValue(
      +1), 
  7584 ;;		 -> I2C1_ReadNBytes@bufferBlock(4), I2C1_WriteByte@data(1), NULL(0), 
  7585 ;; Auto vars:     Size  Location     Type
  7586 ;;		None
  7587 ;; Return value:  Size  Location     Type
  7588 ;;                  1    wreg      enum E13012
  7589 ;; Registers used:
  7590 ;;		wreg, fsr2l, fsr2h, status,2, status,0, prodl, prodh, cstack
  7591 ;; Tracked objects:
  7592 ;;		On entry : 0/0
  7593 ;;		On exit  : 0/0
  7594 ;;		Unchanged: 0/0
  7595 ;; Data sizes:     COMRAM   BANK0   BANK1   BANK2   BANK3   BANK4   BANK5   BANK6   BANK7   BANK8   BANK9  BANK10  BANK1
      +1  BANK12  BANK14
  7596 ;;      Params:         2       0       0       0       0       0       0       0       0       0       0       0       
      +0       0       0
  7597 ;;      Locals:         0       0       0       0       0       0       0       0       0       0       0       0       
      +0       0       0
  7598 ;;      Temps:          0       0       0       0       0       0       0       0       0       0       0       0       
      +0       0       0
  7599 ;;      Totals:         2       0       0       0       0       0       0       0       0       0       0       0       
      +0       0       0
  7600 ;;Total ram usage:        2 bytes
  7601 ;; Hardware stack levels used: 1
  7602 ;; Hardware stack levels required when called: 2
  7603 ;; This function calls:
  7604 ;;		i2_I2C1_SetBuffer
  7605 ;;		i2_I2C1_SetDataCompleteCallback
  7606 ;; This function is called by:
  7607 ;;		_FRAM_ReadByte
  7608 ;;		_I2C1_DO_TX
  7609 ;;		_I2C1_DO_RX
  7610 ;;		_I2C1_DO_TX_EMPTY
  7611 ;;		_I2C1_DO_ADDRESS_NACK
  7612 ;;		_I2C1_DO_RX_EMPTY
  7613 ;; This function uses a non-reentrant model
  7614 ;;
  7615                           
  7616                           	psect	text72
  7617  0025BE                     __ptext72:
  7618                           	callstack 0
  7619  0025BE                     _rd1RegCompleteHandler@MB85RC256V$F1625:
  7620                           	callstack 15
  7621  0025BE                     
  7622                           ;MB85RC256V.c: 141: static i2c1_operations_t rd1RegCompleteHandler(void *ptr);MB85RC256V
      +                          .c: 142: {;MB85RC256V.c: 143:     I2C1_SetBuffer(ptr,1);
  7623  0025BE  C00C  F001         	movff	rd1RegCompleteHandler@MB85RC256V$F1625@ptr,i2I2C1_SetBuffer@buffer
  7624  0025C2  C00D  F002         	movff	rd1RegCompleteHandler@MB85RC256V$F1625@ptr+1,i2I2C1_SetBuffer@buffer+1
  7625  0025C6  0E00               	movlw	0
  7626  0025C8  6E04               	movwf	(i2I2C1_SetBuffer@bufferSize+1)^0,c
  7627  0025CA  0E01               	movlw	1
  7628  0025CC  6E03               	movwf	i2I2C1_SetBuffer@bufferSize^0,c
  7629  0025CE  EC91  F013         	call	i2_I2C1_SetBuffer	;wreg free
  7630  0025D2                     
  7631                           ;MB85RC256V.c: 144:     I2C1_SetDataCompleteCallback(((void*)0), ((void*)0));
  7632  0025D2  0E00               	movlw	0
  7633  0025D4  6E07               	movwf	i2I2C1_SetDataCompleteCallback@cb^0,c
  7634  0025D6  0E00               	movlw	0
  7635  0025D8  6E08               	movwf	(i2I2C1_SetDataCompleteCallback@cb+1)^0,c
  7636  0025DA  0E00               	movlw	0
  7637  0025DC  6E09               	movwf	(i2I2C1_SetDataCompleteCallback@cb+2)^0,c
  7638  0025DE  0E00               	movlw	0
  7639  0025E0  6E0A               	movwf	i2I2C1_SetDataCompleteCallback@ptr^0,c
  7640  0025E2  0E00               	movlw	0
  7641  0025E4  6E0B               	movwf	(i2I2C1_SetDataCompleteCallback@ptr+1)^0,c
  7642  0025E6  ECDE  F013         	call	i2_I2C1_SetDataCompleteCallback	;wreg free
  7643  0025EA                     
  7644                           ;MB85RC256V.c: 145:     return I2C1_RESTART_READ;
  7645  0025EA  0E02               	movlw	2
  7646  0025EC  0012               	return		;funcret
  7647  0025EE                     __end_of_rd1RegCompleteHandler@MB85RC256V$F1625:
  7648                           	callstack 0
  7649                           
  7650 ;; *************** function _rdBlkRegCompleteHandler@MB85RC256V$F1619 *****************
  7651 ;; Defined at:
  7652 ;;		line 148 in file "MB85RC256V.c"
  7653 ;; Parameters:    Size  Location     Type
  7654 ;;  ptr             2   11[COMRAM] PTR void 
  7655 ;;		 -> FRAM_ReadByte@returnValue(1), FRAM_ReadNBytes@bufferBlock(4), FRAM_WriteByte@data(1), I2C1_ReadByte@returnValue(
      +1), 
  7656 ;;		 -> I2C1_ReadNBytes@bufferBlock(4), I2C1_WriteByte@data(1), NULL(0), 
  7657 ;; Auto vars:     Size  Location     Type
  7658 ;;		None
  7659 ;; Return value:  Size  Location     Type
  7660 ;;                  1    wreg      enum E13012
  7661 ;; Registers used:
  7662 ;;		wreg, fsr2l, fsr2h, status,2, status,0, prodl, prodh, cstack
  7663 ;; Tracked objects:
  7664 ;;		On entry : 0/0
  7665 ;;		On exit  : 0/0
  7666 ;;		Unchanged: 0/0
  7667 ;; Data sizes:     COMRAM   BANK0   BANK1   BANK2   BANK3   BANK4   BANK5   BANK6   BANK7   BANK8   BANK9  BANK10  BANK1
      +1  BANK12  BANK14
  7668 ;;      Params:         2       0       0       0       0       0       0       0       0       0       0       0       
      +0       0       0
  7669 ;;      Locals:         0       0       0       0       0       0       0       0       0       0       0       0       
      +0       0       0
  7670 ;;      Temps:          0       0       0       0       0       0       0       0       0       0       0       0       
      +0       0       0
  7671 ;;      Totals:         2       0       0       0       0       0       0       0       0       0       0       0       
      +0       0       0
  7672 ;;Total ram usage:        2 bytes
  7673 ;; Hardware stack levels used: 1
  7674 ;; Hardware stack levels required when called: 2
  7675 ;; This function calls:
  7676 ;;		i2_I2C1_SetBuffer
  7677 ;;		i2_I2C1_SetDataCompleteCallback
  7678 ;; This function is called by:
  7679 ;;		_FRAM_ReadNBytes
  7680 ;;		_I2C1_DO_TX
  7681 ;;		_I2C1_DO_RX
  7682 ;;		_I2C1_DO_TX_EMPTY
  7683 ;;		_I2C1_DO_ADDRESS_NACK
  7684 ;;		_I2C1_DO_RX_EMPTY
  7685 ;; This function uses a non-reentrant model
  7686 ;;
  7687                           
  7688                           	psect	text73
  7689  00243A                     __ptext73:
  7690                           	callstack 0
  7691  00243A                     _rdBlkRegCompleteHandler@MB85RC256V$F1619:
  7692                           	callstack 15
  7693  00243A                     
  7694                           ;MB85RC256V.c: 148: static i2c1_operations_t rdBlkRegCompleteHandler(void *ptr);MB85RC25
      +                          6V.c: 149: {;MB85RC256V.c: 150:     I2C1_SetBuffer(((i2c1_buffer_t *)ptr)->data,((i2c1_b
      +                          uffer_t*)ptr)->len);
  7695  00243A  EE20 F002          	lfsr	2,2
  7696  00243E  500C               	movf	rdBlkRegCompleteHandler@MB85RC256V$F1619@ptr^0,w,c
  7697  002440  26D9               	addwf	fsr2l,f,c
  7698  002442  500D               	movf	(rdBlkRegCompleteHandler@MB85RC256V$F1619@ptr+1)^0,w,c
  7699  002444  22DA               	addwfc	fsr2h,f,c
  7700  002446  CFDE F001          	movff	postinc2,i2I2C1_SetBuffer@buffer
  7701  00244A  CFDD F002          	movff	postdec2,i2I2C1_SetBuffer@buffer+1
  7702  00244E  C00C  FFD9         	movff	rdBlkRegCompleteHandler@MB85RC256V$F1619@ptr,fsr2l
  7703  002452  C00D  FFDA         	movff	rdBlkRegCompleteHandler@MB85RC256V$F1619@ptr+1,fsr2h
  7704  002456  CFDE F003          	movff	postinc2,i2I2C1_SetBuffer@bufferSize
  7705  00245A  CFDD F004          	movff	postdec2,i2I2C1_SetBuffer@bufferSize+1
  7706  00245E  EC91  F013         	call	i2_I2C1_SetBuffer	;wreg free
  7707  002462                     
  7708                           ;MB85RC256V.c: 151:     I2C1_SetDataCompleteCallback(((void*)0), ((void*)0));
  7709  002462  0E00               	movlw	0
  7710  002464  6E07               	movwf	i2I2C1_SetDataCompleteCallback@cb^0,c
  7711  002466  0E00               	movlw	0
  7712  002468  6E08               	movwf	(i2I2C1_SetDataCompleteCallback@cb+1)^0,c
  7713  00246A  0E00               	movlw	0
  7714  00246C  6E09               	movwf	(i2I2C1_SetDataCompleteCallback@cb+2)^0,c
  7715  00246E  0E00               	movlw	0
  7716  002470  6E0A               	movwf	i2I2C1_SetDataCompleteCallback@ptr^0,c
  7717  002472  0E00               	movlw	0
  7718  002474  6E0B               	movwf	(i2I2C1_SetDataCompleteCallback@ptr+1)^0,c
  7719  002476  ECDE  F013         	call	i2_I2C1_SetDataCompleteCallback	;wreg free
  7720  00247A                     
  7721                           ;MB85RC256V.c: 152:     return I2C1_RESTART_READ;
  7722  00247A  0E02               	movlw	2
  7723  00247C  0012               	return		;funcret
  7724  00247E                     __end_of_rdBlkRegCompleteHandler@MB85RC256V$F1619:
  7725                           	callstack 0
  7726                           
  7727 ;; *************** function _I2C1_CallbackReturnReset *****************
  7728 ;; Defined at:
  7729 ;;		line 526 in file "mcc_generated_files/i2c1_master.c"
  7730 ;; Parameters:    Size  Location     Type
  7731 ;;  funPtr          2   11[COMRAM] PTR void 
  7732 ;;		 -> FRAM_ReadByte@returnValue(1), FRAM_ReadNBytes@bufferBlock(4), FRAM_WriteByte@data(1), I2C1_ReadByte@returnValue(
      +1), 
  7733 ;;		 -> I2C1_ReadNBytes@bufferBlock(4), I2C1_WriteByte@data(1), NULL(0), 
  7734 ;; Auto vars:     Size  Location     Type
  7735 ;;		None
  7736 ;; Return value:  Size  Location     Type
  7737 ;;                  1    wreg      enum E360
  7738 ;; Registers used:
  7739 ;;		wreg
  7740 ;; Tracked objects:
  7741 ;;		On entry : 0/0
  7742 ;;		On exit  : 0/0
  7743 ;;		Unchanged: 0/0
  7744 ;; Data sizes:     COMRAM   BANK0   BANK1   BANK2   BANK3   BANK4   BANK5   BANK6   BANK7   BANK8   BANK9  BANK10  BANK1
      +1  BANK12  BANK14
  7745 ;;      Params:         2       0       0       0       0       0       0       0       0       0       0       0       
      +0       0       0
  7746 ;;      Locals:         0       0       0       0       0       0       0       0       0       0       0       0       
      +0       0       0
  7747 ;;      Temps:          0       0       0       0       0       0       0       0       0       0       0       0       
      +0       0       0
  7748 ;;      Totals:         2       0       0       0       0       0       0       0       0       0       0       0       
      +0       0       0
  7749 ;;Total ram usage:        2 bytes
  7750 ;; Hardware stack levels used: 1
  7751 ;; This function calls:
  7752 ;;		Nothing
  7753 ;; This function is called by:
  7754 ;;		_I2C1_Open
  7755 ;;		_I2C1_DO_TX
  7756 ;;		_I2C1_DO_RX
  7757 ;;		_I2C1_DO_TX_EMPTY
  7758 ;;		_I2C1_DO_ADDRESS_NACK
  7759 ;;		_I2C1_DO_RX_EMPTY
  7760 ;; This function uses a non-reentrant model
  7761 ;;
  7762                           
  7763                           	psect	text74
  7764  00296E                     __ptext74:
  7765                           	callstack 0
  7766  00296E                     _I2C1_CallbackReturnReset:
  7767                           	callstack 17
  7768  00296E                     
  7769                           ;mcc_generated_files/i2c1_master.c: 526: i2c1_operations_t I2C1_CallbackReturnReset(void
      +                           *funPtr);mcc_generated_files/i2c1_master.c: 527: {;mcc_generated_files/i2c1_master.c: 5
      +                          28:     return I2C1_RESET_LINK;
  7770  00296E  0E05               	movlw	5
  7771  002970  0012               	return		;funcret
  7772  002972                     __end_of_I2C1_CallbackReturnReset:
  7773                           	callstack 0
  7774                           
  7775 ;; *************** function _I2C1_CallbackReturnStop *****************
  7776 ;; Defined at:
  7777 ;;		line 521 in file "mcc_generated_files/i2c1_master.c"
  7778 ;; Parameters:    Size  Location     Type
  7779 ;;  funPtr          2   11[COMRAM] PTR void 
  7780 ;;		 -> FRAM_ReadByte@returnValue(1), FRAM_ReadNBytes@bufferBlock(4), FRAM_WriteByte@data(1), I2C1_ReadByte@returnValue(
      +1), 
  7781 ;;		 -> I2C1_ReadNBytes@bufferBlock(4), I2C1_WriteByte@data(1), NULL(0), 
  7782 ;; Auto vars:     Size  Location     Type
  7783 ;;		None
  7784 ;; Return value:  Size  Location     Type
  7785 ;;                  1    wreg      enum E360
  7786 ;; Registers used:
  7787 ;;		wreg
  7788 ;; Tracked objects:
  7789 ;;		On entry : 0/0
  7790 ;;		On exit  : 0/0
  7791 ;;		Unchanged: 0/0
  7792 ;; Data sizes:     COMRAM   BANK0   BANK1   BANK2   BANK3   BANK4   BANK5   BANK6   BANK7   BANK8   BANK9  BANK10  BANK1
      +1  BANK12  BANK14
  7793 ;;      Params:         2       0       0       0       0       0       0       0       0       0       0       0       
      +0       0       0
  7794 ;;      Locals:         0       0       0       0       0       0       0       0       0       0       0       0       
      +0       0       0
  7795 ;;      Temps:          0       0       0       0       0       0       0       0       0       0       0       0       
      +0       0       0
  7796 ;;      Totals:         2       0       0       0       0       0       0       0       0       0       0       0       
      +0       0       0
  7797 ;;Total ram usage:        2 bytes
  7798 ;; Hardware stack levels used: 1
  7799 ;; This function calls:
  7800 ;;		Nothing
  7801 ;; This function is called by:
  7802 ;;		_I2C1_Open
  7803 ;;		_I2C1_SetCallback
  7804 ;;		i2_I2C1_SetCallback
  7805 ;;		_I2C1_DO_TX
  7806 ;;		_I2C1_DO_RX
  7807 ;;		_I2C1_DO_TX_EMPTY
  7808 ;;		_I2C1_DO_ADDRESS_NACK
  7809 ;;		_I2C1_DO_RX_EMPTY
  7810 ;; This function uses a non-reentrant model
  7811 ;;
  7812                           
  7813                           	psect	text75
  7814  002972                     __ptext75:
  7815                           	callstack 0
  7816  002972                     _I2C1_CallbackReturnStop:
  7817                           	callstack 17
  7818  002972                     
  7819                           ;mcc_generated_files/i2c1_master.c: 521: i2c1_operations_t I2C1_CallbackReturnStop(void 
      +                          *funPtr);mcc_generated_files/i2c1_master.c: 522: {;mcc_generated_files/i2c1_master.c: 52
      +                          3:     return I2C1_STOP;
  7820  002972  0E01               	movlw	1
  7821  002974  0012               	return		;funcret
  7822  002976                     __end_of_I2C1_CallbackReturnStop:
  7823                           	callstack 0
  7824                           
  7825 ;; *************** function _rd1RegCompleteHandler *****************
  7826 ;; Defined at:
  7827 ;;		line 137 in file "mcc_generated_files/examples/i2c1_master_example.c"
  7828 ;; Parameters:    Size  Location     Type
  7829 ;;  ptr             2   11[COMRAM] PTR void 
  7830 ;;		 -> FRAM_ReadByte@returnValue(1), FRAM_ReadNBytes@bufferBlock(4), FRAM_WriteByte@data(1), I2C1_ReadByte@returnValue(
      +1), 
  7831 ;;		 -> I2C1_ReadNBytes@bufferBlock(4), I2C1_WriteByte@data(1), NULL(0), 
  7832 ;; Auto vars:     Size  Location     Type
  7833 ;;		None
  7834 ;; Return value:  Size  Location     Type
  7835 ;;                  1    wreg      enum E360
  7836 ;; Registers used:
  7837 ;;		wreg, fsr2l, fsr2h, status,2, status,0, prodl, prodh, cstack
  7838 ;; Tracked objects:
  7839 ;;		On entry : 0/0
  7840 ;;		On exit  : 0/0
  7841 ;;		Unchanged: 0/0
  7842 ;; Data sizes:     COMRAM   BANK0   BANK1   BANK2   BANK3   BANK4   BANK5   BANK6   BANK7   BANK8   BANK9  BANK10  BANK1
      +1  BANK12  BANK14
  7843 ;;      Params:         2       0       0       0       0       0       0       0       0       0       0       0       
      +0       0       0
  7844 ;;      Locals:         0       0       0       0       0       0       0       0       0       0       0       0       
      +0       0       0
  7845 ;;      Temps:          0       0       0       0       0       0       0       0       0       0       0       0       
      +0       0       0
  7846 ;;      Totals:         2       0       0       0       0       0       0       0       0       0       0       0       
      +0       0       0
  7847 ;;Total ram usage:        2 bytes
  7848 ;; Hardware stack levels used: 1
  7849 ;; Hardware stack levels required when called: 2
  7850 ;; This function calls:
  7851 ;;		i2_I2C1_SetBuffer
  7852 ;;		i2_I2C1_SetDataCompleteCallback
  7853 ;; This function is called by:
  7854 ;;		_I2C1_ReadByte
  7855 ;;		_I2C1_DO_TX
  7856 ;;		_I2C1_DO_RX
  7857 ;;		_I2C1_DO_TX_EMPTY
  7858 ;;		_I2C1_DO_ADDRESS_NACK
  7859 ;;		_I2C1_DO_RX_EMPTY
  7860 ;; This function uses a non-reentrant model
  7861 ;;
  7862                           
  7863                           	psect	text76
  7864  0025EE                     __ptext76:
  7865                           	callstack 0
  7866  0025EE                     _rd1RegCompleteHandler:
  7867                           	callstack 15
  7868  0025EE                     
  7869                           ;mcc_generated_files/examples/i2c1_master_example.c: 137: static i2c1_operations_t rd1Re
      +                          gCompleteHandler(void *ptr);mcc_generated_files/examples/i2c1_master_example.c: 138: {;m
      +                          cc_generated_files/examples/i2c1_master_example.c: 139:     I2C1_SetBuffer(ptr,1);
  7870  0025EE  C00C  F001         	movff	rd1RegCompleteHandler@ptr,i2I2C1_SetBuffer@buffer
  7871  0025F2  C00D  F002         	movff	rd1RegCompleteHandler@ptr+1,i2I2C1_SetBuffer@buffer+1
  7872  0025F6  0E00               	movlw	0
  7873  0025F8  6E04               	movwf	(i2I2C1_SetBuffer@bufferSize+1)^0,c
  7874  0025FA  0E01               	movlw	1
  7875  0025FC  6E03               	movwf	i2I2C1_SetBuffer@bufferSize^0,c
  7876  0025FE  EC91  F013         	call	i2_I2C1_SetBuffer	;wreg free
  7877  002602                     
  7878                           ;mcc_generated_files/examples/i2c1_master_example.c: 140:     I2C1_SetDataCompleteCallba
      +                          ck(((void*)0),((void*)0));
  7879  002602  0E00               	movlw	0
  7880  002604  6E07               	movwf	i2I2C1_SetDataCompleteCallback@cb^0,c
  7881  002606  0E00               	movlw	0
  7882  002608  6E08               	movwf	(i2I2C1_SetDataCompleteCallback@cb+1)^0,c
  7883  00260A  0E00               	movlw	0
  7884  00260C  6E09               	movwf	(i2I2C1_SetDataCompleteCallback@cb+2)^0,c
  7885  00260E  0E00               	movlw	0
  7886  002610  6E0A               	movwf	i2I2C1_SetDataCompleteCallback@ptr^0,c
  7887  002612  0E00               	movlw	0
  7888  002614  6E0B               	movwf	(i2I2C1_SetDataCompleteCallback@ptr+1)^0,c
  7889  002616  ECDE  F013         	call	i2_I2C1_SetDataCompleteCallback	;wreg free
  7890  00261A                     
  7891                           ;mcc_generated_files/examples/i2c1_master_example.c: 141:     return I2C1_RESTART_READ;
  7892  00261A  0E02               	movlw	2
  7893  00261C  0012               	return		;funcret
  7894  00261E                     __end_of_rd1RegCompleteHandler:
  7895                           	callstack 0
  7896                           
  7897 ;; *************** function _rdBlkRegCompleteHandler *****************
  7898 ;; Defined at:
  7899 ;;		line 151 in file "mcc_generated_files/examples/i2c1_master_example.c"
  7900 ;; Parameters:    Size  Location     Type
  7901 ;;  ptr             2   11[COMRAM] PTR void 
  7902 ;;		 -> FRAM_ReadByte@returnValue(1), FRAM_ReadNBytes@bufferBlock(4), FRAM_WriteByte@data(1), I2C1_ReadByte@returnValue(
      +1), 
  7903 ;;		 -> I2C1_ReadNBytes@bufferBlock(4), I2C1_WriteByte@data(1), NULL(0), 
  7904 ;; Auto vars:     Size  Location     Type
  7905 ;;		None
  7906 ;; Return value:  Size  Location     Type
  7907 ;;                  1    wreg      enum E360
  7908 ;; Registers used:
  7909 ;;		wreg, fsr2l, fsr2h, status,2, status,0, prodl, prodh, cstack
  7910 ;; Tracked objects:
  7911 ;;		On entry : 0/0
  7912 ;;		On exit  : 0/0
  7913 ;;		Unchanged: 0/0
  7914 ;; Data sizes:     COMRAM   BANK0   BANK1   BANK2   BANK3   BANK4   BANK5   BANK6   BANK7   BANK8   BANK9  BANK10  BANK1
      +1  BANK12  BANK14
  7915 ;;      Params:         2       0       0       0       0       0       0       0       0       0       0       0       
      +0       0       0
  7916 ;;      Locals:         0       0       0       0       0       0       0       0       0       0       0       0       
      +0       0       0
  7917 ;;      Temps:          0       0       0       0       0       0       0       0       0       0       0       0       
      +0       0       0
  7918 ;;      Totals:         2       0       0       0       0       0       0       0       0       0       0       0       
      +0       0       0
  7919 ;;Total ram usage:        2 bytes
  7920 ;; Hardware stack levels used: 1
  7921 ;; Hardware stack levels required when called: 2
  7922 ;; This function calls:
  7923 ;;		i2_I2C1_SetBuffer
  7924 ;;		i2_I2C1_SetDataCompleteCallback
  7925 ;; This function is called by:
  7926 ;;		_I2C1_ReadNBytes
  7927 ;;		_I2C1_DO_TX
  7928 ;;		_I2C1_DO_RX
  7929 ;;		_I2C1_DO_TX_EMPTY
  7930 ;;		_I2C1_DO_ADDRESS_NACK
  7931 ;;		_I2C1_DO_RX_EMPTY
  7932 ;; This function uses a non-reentrant model
  7933 ;;
  7934                           
  7935                           	psect	text77
  7936  00247E                     __ptext77:
  7937                           	callstack 0
  7938  00247E                     _rdBlkRegCompleteHandler:
  7939                           	callstack 15
  7940  00247E                     
  7941                           ;mcc_generated_files/examples/i2c1_master_example.c: 151: static i2c1_operations_t rdBlk
      +                          RegCompleteHandler(void *ptr);mcc_generated_files/examples/i2c1_master_example.c: 152: {
      +                          ;mcc_generated_files/examples/i2c1_master_example.c: 153:     I2C1_SetBuffer(((i2c1_buff
      +                          er_t *)ptr)->data,((i2c1_buffer_t*)ptr)->len);
  7942  00247E  EE20 F002          	lfsr	2,2
  7943  002482  500C               	movf	rdBlkRegCompleteHandler@ptr^0,w,c
  7944  002484  26D9               	addwf	fsr2l,f,c
  7945  002486  500D               	movf	(rdBlkRegCompleteHandler@ptr+1)^0,w,c
  7946  002488  22DA               	addwfc	fsr2h,f,c
  7947  00248A  CFDE F001          	movff	postinc2,i2I2C1_SetBuffer@buffer
  7948  00248E  CFDD F002          	movff	postdec2,i2I2C1_SetBuffer@buffer+1
  7949  002492  C00C  FFD9         	movff	rdBlkRegCompleteHandler@ptr,fsr2l
  7950  002496  C00D  FFDA         	movff	rdBlkRegCompleteHandler@ptr+1,fsr2h
  7951  00249A  CFDE F003          	movff	postinc2,i2I2C1_SetBuffer@bufferSize
  7952  00249E  CFDD F004          	movff	postdec2,i2I2C1_SetBuffer@bufferSize+1
  7953  0024A2  EC91  F013         	call	i2_I2C1_SetBuffer	;wreg free
  7954  0024A6                     
  7955                           ;mcc_generated_files/examples/i2c1_master_example.c: 154:     I2C1_SetDataCompleteCallba
      +                          ck(((void*)0), ((void*)0));
  7956  0024A6  0E00               	movlw	0
  7957  0024A8  6E07               	movwf	i2I2C1_SetDataCompleteCallback@cb^0,c
  7958  0024AA  0E00               	movlw	0
  7959  0024AC  6E08               	movwf	(i2I2C1_SetDataCompleteCallback@cb+1)^0,c
  7960  0024AE  0E00               	movlw	0
  7961  0024B0  6E09               	movwf	(i2I2C1_SetDataCompleteCallback@cb+2)^0,c
  7962  0024B2  0E00               	movlw	0
  7963  0024B4  6E0A               	movwf	i2I2C1_SetDataCompleteCallback@ptr^0,c
  7964  0024B6  0E00               	movlw	0
  7965  0024B8  6E0B               	movwf	(i2I2C1_SetDataCompleteCallback@ptr+1)^0,c
  7966  0024BA  ECDE  F013         	call	i2_I2C1_SetDataCompleteCallback	;wreg free
  7967  0024BE                     
  7968                           ;mcc_generated_files/examples/i2c1_master_example.c: 155:     return I2C1_RESTART_READ;
  7969  0024BE  0E02               	movlw	2
  7970  0024C0  0012               	return		;funcret
  7971  0024C2                     __end_of_rdBlkRegCompleteHandler:
  7972                           	callstack 0
  7973                           
  7974 ;; *************** function _wr1RegCompleteHandler *****************
  7975 ;; Defined at:
  7976 ;;		line 144 in file "mcc_generated_files/examples/i2c1_master_example.c"
  7977 ;; Parameters:    Size  Location     Type
  7978 ;;  ptr             2   11[COMRAM] PTR void 
  7979 ;;		 -> FRAM_ReadByte@returnValue(1), FRAM_ReadNBytes@bufferBlock(4), FRAM_WriteByte@data(1), I2C1_ReadByte@returnValue(
      +1), 
  7980 ;;		 -> I2C1_ReadNBytes@bufferBlock(4), I2C1_WriteByte@data(1), NULL(0), 
  7981 ;; Auto vars:     Size  Location     Type
  7982 ;;		None
  7983 ;; Return value:  Size  Location     Type
  7984 ;;                  1    wreg      enum E360
  7985 ;; Registers used:
  7986 ;;		wreg, fsr2l, fsr2h, status,2, status,0, prodl, prodh, cstack
  7987 ;; Tracked objects:
  7988 ;;		On entry : 0/0
  7989 ;;		On exit  : 0/0
  7990 ;;		Unchanged: 0/0
  7991 ;; Data sizes:     COMRAM   BANK0   BANK1   BANK2   BANK3   BANK4   BANK5   BANK6   BANK7   BANK8   BANK9  BANK10  BANK1
      +1  BANK12  BANK14
  7992 ;;      Params:         2       0       0       0       0       0       0       0       0       0       0       0       
      +0       0       0
  7993 ;;      Locals:         0       0       0       0       0       0       0       0       0       0       0       0       
      +0       0       0
  7994 ;;      Temps:          0       0       0       0       0       0       0       0       0       0       0       0       
      +0       0       0
  7995 ;;      Totals:         2       0       0       0       0       0       0       0       0       0       0       0       
      +0       0       0
  7996 ;;Total ram usage:        2 bytes
  7997 ;; Hardware stack levels used: 1
  7998 ;; Hardware stack levels required when called: 2
  7999 ;; This function calls:
  8000 ;;		i2_I2C1_SetBuffer
  8001 ;;		i2_I2C1_SetDataCompleteCallback
  8002 ;; This function is called by:
  8003 ;;		_I2C1_WriteByte
  8004 ;;		_I2C1_DO_TX
  8005 ;;		_I2C1_DO_RX
  8006 ;;		_I2C1_DO_TX_EMPTY
  8007 ;;		_I2C1_DO_ADDRESS_NACK
  8008 ;;		_I2C1_DO_RX_EMPTY
  8009 ;; This function uses a non-reentrant model
  8010 ;;
  8011                           
  8012                           	psect	text78
  8013  00261E                     __ptext78:
  8014                           	callstack 0
  8015  00261E                     _wr1RegCompleteHandler:
  8016                           	callstack 15
  8017  00261E                     
  8018                           ;mcc_generated_files/examples/i2c1_master_example.c: 144: static i2c1_operations_t wr1Re
      +                          gCompleteHandler(void *ptr);mcc_generated_files/examples/i2c1_master_example.c: 145: {;m
      +                          cc_generated_files/examples/i2c1_master_example.c: 146:     I2C1_SetBuffer(ptr, 1);
  8019  00261E  C00C  F001         	movff	wr1RegCompleteHandler@ptr,i2I2C1_SetBuffer@buffer
  8020  002622  C00D  F002         	movff	wr1RegCompleteHandler@ptr+1,i2I2C1_SetBuffer@buffer+1
  8021  002626  0E00               	movlw	0
  8022  002628  6E04               	movwf	(i2I2C1_SetBuffer@bufferSize+1)^0,c
  8023  00262A  0E01               	movlw	1
  8024  00262C  6E03               	movwf	i2I2C1_SetBuffer@bufferSize^0,c
  8025  00262E  EC91  F013         	call	i2_I2C1_SetBuffer	;wreg free
  8026  002632                     
  8027                           ;mcc_generated_files/examples/i2c1_master_example.c: 147:     I2C1_SetDataCompleteCallba
      +                          ck(((void*)0),((void*)0));
  8028  002632  0E00               	movlw	0
  8029  002634  6E07               	movwf	i2I2C1_SetDataCompleteCallback@cb^0,c
  8030  002636  0E00               	movlw	0
  8031  002638  6E08               	movwf	(i2I2C1_SetDataCompleteCallback@cb+1)^0,c
  8032  00263A  0E00               	movlw	0
  8033  00263C  6E09               	movwf	(i2I2C1_SetDataCompleteCallback@cb+2)^0,c
  8034  00263E  0E00               	movlw	0
  8035  002640  6E0A               	movwf	i2I2C1_SetDataCompleteCallback@ptr^0,c
  8036  002642  0E00               	movlw	0
  8037  002644  6E0B               	movwf	(i2I2C1_SetDataCompleteCallback@ptr+1)^0,c
  8038  002646  ECDE  F013         	call	i2_I2C1_SetDataCompleteCallback	;wreg free
  8039  00264A                     
  8040                           ;mcc_generated_files/examples/i2c1_master_example.c: 148:     return I2C1_CONTINUE;
  8041  00264A  0E04               	movlw	4
  8042  00264C  0012               	return		;funcret
  8043  00264E                     __end_of_wr1RegCompleteHandler:
  8044                           	callstack 0
  8045                           
  8046 ;; *************** function _wr1RegCompleteHandler@MB85RC256V$F1610 *****************
  8047 ;; Defined at:
  8048 ;;		line 134 in file "MB85RC256V.c"
  8049 ;; Parameters:    Size  Location     Type
  8050 ;;  ptr             2   11[COMRAM] PTR void 
  8051 ;;		 -> FRAM_ReadByte@returnValue(1), FRAM_ReadNBytes@bufferBlock(4), FRAM_WriteByte@data(1), I2C1_ReadByte@returnValue(
      +1), 
  8052 ;;		 -> I2C1_ReadNBytes@bufferBlock(4), I2C1_WriteByte@data(1), NULL(0), 
  8053 ;; Auto vars:     Size  Location     Type
  8054 ;;		None
  8055 ;; Return value:  Size  Location     Type
  8056 ;;                  1    wreg      enum E13012
  8057 ;; Registers used:
  8058 ;;		wreg, fsr2l, fsr2h, status,2, status,0, prodl, prodh, cstack
  8059 ;; Tracked objects:
  8060 ;;		On entry : 0/0
  8061 ;;		On exit  : 0/0
  8062 ;;		Unchanged: 0/0
  8063 ;; Data sizes:     COMRAM   BANK0   BANK1   BANK2   BANK3   BANK4   BANK5   BANK6   BANK7   BANK8   BANK9  BANK10  BANK1
      +1  BANK12  BANK14
  8064 ;;      Params:         2       0       0       0       0       0       0       0       0       0       0       0       
      +0       0       0
  8065 ;;      Locals:         0       0       0       0       0       0       0       0       0       0       0       0       
      +0       0       0
  8066 ;;      Temps:          0       0       0       0       0       0       0       0       0       0       0       0       
      +0       0       0
  8067 ;;      Totals:         2       0       0       0       0       0       0       0       0       0       0       0       
      +0       0       0
  8068 ;;Total ram usage:        2 bytes
  8069 ;; Hardware stack levels used: 1
  8070 ;; Hardware stack levels required when called: 2
  8071 ;; This function calls:
  8072 ;;		i2_I2C1_SetBuffer
  8073 ;;		i2_I2C1_SetDataCompleteCallback
  8074 ;; This function is called by:
  8075 ;;		_FRAM_WriteByte
  8076 ;;		_I2C1_DO_TX
  8077 ;;		_I2C1_DO_RX
  8078 ;;		_I2C1_DO_TX_EMPTY
  8079 ;;		_I2C1_DO_ADDRESS_NACK
  8080 ;;		_I2C1_DO_RX_EMPTY
  8081 ;; This function uses a non-reentrant model
  8082 ;;
  8083                           
  8084                           	psect	text79
  8085  00264E                     __ptext79:
  8086                           	callstack 0
  8087  00264E                     _wr1RegCompleteHandler@MB85RC256V$F1610:
  8088                           	callstack 15
  8089  00264E                     
  8090                           ;MB85RC256V.c: 134: static i2c1_operations_t wr1RegCompleteHandler(void *ptr);MB85RC256V
      +                          .c: 135: {;MB85RC256V.c: 136:     I2C1_SetBuffer(ptr, 1);
  8091  00264E  C00C  F001         	movff	wr1RegCompleteHandler@MB85RC256V$F1610@ptr,i2I2C1_SetBuffer@buffer
  8092  002652  C00D  F002         	movff	wr1RegCompleteHandler@MB85RC256V$F1610@ptr+1,i2I2C1_SetBuffer@buffer+1
  8093  002656  0E00               	movlw	0
  8094  002658  6E04               	movwf	(i2I2C1_SetBuffer@bufferSize+1)^0,c
  8095  00265A  0E01               	movlw	1
  8096  00265C  6E03               	movwf	i2I2C1_SetBuffer@bufferSize^0,c
  8097  00265E  EC91  F013         	call	i2_I2C1_SetBuffer	;wreg free
  8098  002662                     
  8099                           ;MB85RC256V.c: 137:     I2C1_SetDataCompleteCallback(((void*)0), ((void*)0));
  8100  002662  0E00               	movlw	0
  8101  002664  6E07               	movwf	i2I2C1_SetDataCompleteCallback@cb^0,c
  8102  002666  0E00               	movlw	0
  8103  002668  6E08               	movwf	(i2I2C1_SetDataCompleteCallback@cb+1)^0,c
  8104  00266A  0E00               	movlw	0
  8105  00266C  6E09               	movwf	(i2I2C1_SetDataCompleteCallback@cb+2)^0,c
  8106  00266E  0E00               	movlw	0
  8107  002670  6E0A               	movwf	i2I2C1_SetDataCompleteCallback@ptr^0,c
  8108  002672  0E00               	movlw	0
  8109  002674  6E0B               	movwf	(i2I2C1_SetDataCompleteCallback@ptr+1)^0,c
  8110  002676  ECDE  F013         	call	i2_I2C1_SetDataCompleteCallback	;wreg free
  8111  00267A                     
  8112                           ;MB85RC256V.c: 138:     return I2C1_CONTINUE;
  8113  00267A  0E04               	movlw	4
  8114  00267C  0012               	return		;funcret
  8115  00267E                     __end_of_wr1RegCompleteHandler@MB85RC256V$F1610:
  8116                           	callstack 0
  8117                           
  8118 ;; *************** function i2_I2C1_SetDataCompleteCallback *****************
  8119 ;; Defined at:
  8120 ;;		line 274 in file "mcc_generated_files/i2c1_master.c"
  8121 ;; Parameters:    Size  Location     Type
  8122 ;;  cb              3    6[COMRAM] PTR FTN(PTR void ,)enum 
  8123 ;;		 -> rd1RegCompleteHandler@MB85RC256V$F1625(1), rdBlkRegCompleteHandler@MB85RC256V$F1619(1), wr1RegCompleteHandler@MB
      +85RC256V$F1610(1), Absolute function(1), 
  8124 ;;		 -> rd1RegCompleteHandler(1), rdBlkRegCompleteHandler(1), wr1RegCompleteHandler(1), 
  8125 ;;  ptr             2    9[COMRAM] PTR void 
  8126 ;;		 -> FRAM_ReadByte@returnValue(1), FRAM_ReadNBytes@bufferBlock(4), FRAM_WriteByte@data(1), I2C1_ReadByte@returnValue(
      +1), 
  8127 ;;		 -> I2C1_ReadNBytes@bufferBlock(4), I2C1_WriteByte@data(1), NULL(0), 
  8128 ;; Auto vars:     Size  Location     Type
  8129 ;;		None
  8130 ;; Return value:  Size  Location     Type
  8131 ;;                  1    wreg      void 
  8132 ;; Registers used:
  8133 ;;		wreg, fsr2l, fsr2h, status,2, status,0, prodl, prodh, cstack
  8134 ;; Tracked objects:
  8135 ;;		On entry : 0/0
  8136 ;;		On exit  : 0/0
  8137 ;;		Unchanged: 0/0
  8138 ;; Data sizes:     COMRAM   BANK0   BANK1   BANK2   BANK3   BANK4   BANK5   BANK6   BANK7   BANK8   BANK9  BANK10  BANK1
      +1  BANK12  BANK14
  8139 ;;      Params:         5       0       0       0       0       0       0       0       0       0       0       0       
      +0       0       0
  8140 ;;      Locals:         0       0       0       0       0       0       0       0       0       0       0       0       
      +0       0       0
  8141 ;;      Temps:          0       0       0       0       0       0       0       0       0       0       0       0       
      +0       0       0
  8142 ;;      Totals:         5       0       0       0       0       0       0       0       0       0       0       0       
      +0       0       0
  8143 ;;Total ram usage:        5 bytes
  8144 ;; Hardware stack levels used: 1
  8145 ;; Hardware stack levels required when called: 1
  8146 ;; This function calls:
  8147 ;;		i2_I2C1_SetCallback
  8148 ;; This function is called by:
  8149 ;;		_rd1RegCompleteHandler
  8150 ;;		_wr1RegCompleteHandler
  8151 ;;		_rdBlkRegCompleteHandler
  8152 ;;		_wr1RegCompleteHandler@MB85RC256V$F1610
  8153 ;;		_rd1RegCompleteHandler@MB85RC256V$F1625
  8154 ;;		_rdBlkRegCompleteHandler@MB85RC256V$F1619
  8155 ;; This function uses a non-reentrant model
  8156 ;;
  8157                           
  8158                           	psect	text80
  8159  0027BC                     __ptext80:
  8160                           	callstack 0
  8161  0027BC                     i2_I2C1_SetDataCompleteCallback:
  8162                           	callstack 15
  8163  0027BC                     
  8164                           ;mcc_generated_files/i2c1_master.c: 274: void I2C1_SetDataCompleteCallback(i2c1_callback
      +                          _t cb, void *ptr);mcc_generated_files/i2c1_master.c: 275: {;mcc_generated_files/i2c1_mas
      +                          ter.c: 276:     I2C1_SetCallback(I2C1_DATA_COMPLETE, cb, ptr);
  8165  0027BC  C007  F001         	movff	i2I2C1_SetDataCompleteCallback@cb,i2I2C1_SetCallback@cb
  8166  0027C0  C008  F002         	movff	i2I2C1_SetDataCompleteCallback@cb+1,i2I2C1_SetCallback@cb+1
  8167  0027C4  C009  F003         	movff	i2I2C1_SetDataCompleteCallback@cb+2,i2I2C1_SetCallback@cb+2
  8168  0027C8  C00A  F004         	movff	i2I2C1_SetDataCompleteCallback@ptr,i2I2C1_SetCallback@ptr
  8169  0027CC  C00B  F005         	movff	i2I2C1_SetDataCompleteCallback@ptr+1,i2I2C1_SetCallback@ptr+1
  8170  0027D0  0E00               	movlw	0
  8171  0027D2  EC5C  F010         	call	i2_I2C1_SetCallback
  8172  0027D6  0012               	return		;funcret
  8173  0027D8                     __end_ofi2_I2C1_SetDataCompleteCallback:
  8174                           	callstack 0
  8175                           
  8176 ;; *************** function i2_I2C1_SetCallback *****************
  8177 ;; Defined at:
  8178 ;;		line 304 in file "mcc_generated_files/i2c1_master.c"
  8179 ;; Parameters:    Size  Location     Type
  8180 ;;  idx             1    wreg     enum E13100
  8181 ;;  cb              3    0[COMRAM] PTR FTN(PTR void ,)enum 
  8182 ;;		 -> rd1RegCompleteHandler@MB85RC256V$F1625(1), rdBlkRegCompleteHandler@MB85RC256V$F1619(1), wr1RegCompleteHandler@MB
      +85RC256V$F1610(1), Absolute function(1), 
  8183 ;;		 -> rd1RegCompleteHandler(1), rdBlkRegCompleteHandler(1), wr1RegCompleteHandler(1), 
  8184 ;;  ptr             2    3[COMRAM] PTR void 
  8185 ;;		 -> FRAM_ReadByte@returnValue(1), FRAM_ReadNBytes@bufferBlock(4), FRAM_WriteByte@data(1), I2C1_ReadByte@returnValue(
      +1), 
  8186 ;;		 -> I2C1_ReadNBytes@bufferBlock(4), I2C1_WriteByte@data(1), NULL(0), 
  8187 ;; Auto vars:     Size  Location     Type
  8188 ;;  idx             1    5[COMRAM] enum E13100
  8189 ;; Return value:  Size  Location     Type
  8190 ;;                  1    wreg      void 
  8191 ;; Registers used:
  8192 ;;		wreg, fsr2l, fsr2h, status,2, status,0, prodl, prodh
  8193 ;; Tracked objects:
  8194 ;;		On entry : 0/0
  8195 ;;		On exit  : 0/0
  8196 ;;		Unchanged: 0/0
  8197 ;; Data sizes:     COMRAM   BANK0   BANK1   BANK2   BANK3   BANK4   BANK5   BANK6   BANK7   BANK8   BANK9  BANK10  BANK1
      +1  BANK12  BANK14
  8198 ;;      Params:         5       0       0       0       0       0       0       0       0       0       0       0       
      +0       0       0
  8199 ;;      Locals:         1       0       0       0       0       0       0       0       0       0       0       0       
      +0       0       0
  8200 ;;      Temps:          0       0       0       0       0       0       0       0       0       0       0       0       
      +0       0       0
  8201 ;;      Totals:         6       0       0       0       0       0       0       0       0       0       0       0       
      +0       0       0
  8202 ;;Total ram usage:        6 bytes
  8203 ;; Hardware stack levels used: 1
  8204 ;; This function calls:
  8205 ;;		Nothing
  8206 ;; This function is called by:
  8207 ;;		i2_I2C1_SetDataCompleteCallback
  8208 ;; This function uses a non-reentrant model
  8209 ;;
  8210                           
  8211                           	psect	text81
  8212  0020B8                     __ptext81:
  8213                           	callstack 0
  8214  0020B8                     i2_I2C1_SetCallback:
  8215                           	callstack 15
  8216                           
  8217                           ;incstack = 0
  8218                           ;i2I2C1_SetCallback@idx stored from wreg
  8219  0020B8  6E06               	movwf	i2I2C1_SetCallback@idx^0,c
  8220  0020BA                     
  8221                           ;mcc_generated_files/i2c1_master.c: 304: static void I2C1_SetCallback(i2c1_callbackIndex
      +                          _t idx, i2c1_callback_t cb, void *ptr);mcc_generated_files/i2c1_master.c: 305: {;mcc_gen
      +                          erated_files/i2c1_master.c: 306:     if(cb)
  8222  0020BA  5001               	movf	i2I2C1_SetCallback@cb^0,w,c
  8223  0020BC  1002               	iorwf	(i2I2C1_SetCallback@cb+1)^0,w,c
  8224  0020BE  1003               	iorwf	(i2I2C1_SetCallback@cb+2)^0,w,c
  8225  0020C0  B4D8               	btfsc	status,2,c
  8226  0020C2  EF65  F010         	goto	i2u243_41
  8227  0020C6  EF67  F010         	goto	i2u243_40
  8228  0020CA                     i2u243_41:
  8229  0020CA  EF83  F010         	goto	i2l4331
  8230  0020CE                     i2u243_40:
  8231  0020CE                     
  8232                           ;mcc_generated_files/i2c1_master.c: 307:     {;mcc_generated_files/i2c1_master.c: 308:  
      +                                 I2C1_Status.callbackTable[idx] = cb;
  8233  0020CE  5006               	movf	i2I2C1_SetCallback@idx^0,w,c
  8234  0020D0  0D03               	mullw	3
  8235  0020D2  0E60               	movlw	low _I2C1_Status
  8236  0020D4  24F3               	addwf	243,w,c
  8237  0020D6  6ED9               	movwf	fsr2l,c
  8238  0020D8  0E00               	movlw	high _I2C1_Status
  8239  0020DA  20F4               	addwfc	prodh,w,c
  8240  0020DC  6EDA               	movwf	fsr2h,c
  8241  0020DE  C001  FFDE         	movff	i2I2C1_SetCallback@cb,postinc2
  8242  0020E2  C002  FFDE         	movff	i2I2C1_SetCallback@cb+1,postinc2
  8243  0020E6  C003  FFDE         	movff	i2I2C1_SetCallback@cb+2,postinc2
  8244                           
  8245                           ;mcc_generated_files/i2c1_master.c: 309:         I2C1_Status.callbackPayload[idx] = ptr;
  8246  0020EA  5006               	movf	i2I2C1_SetCallback@idx^0,w,c
  8247  0020EC  0D02               	mullw	2
  8248  0020EE  0E72               	movlw	low (_I2C1_Status+18)
  8249  0020F0  24F3               	addwf	243,w,c
  8250  0020F2  6ED9               	movwf	fsr2l,c
  8251  0020F4  0E00               	movlw	high (_I2C1_Status+18)
  8252  0020F6  20F4               	addwfc	prodh,w,c
  8253  0020F8  6EDA               	movwf	fsr2h,c
  8254  0020FA  C004  FFDE         	movff	i2I2C1_SetCallback@ptr,postinc2
  8255  0020FE  C005  FFDD         	movff	i2I2C1_SetCallback@ptr+1,postdec2
  8256                           
  8257                           ;mcc_generated_files/i2c1_master.c: 310:     }
  8258  002102  EF9D  F010         	goto	i2l551
  8259  002106                     i2l4331:
  8260                           
  8261                           ;mcc_generated_files/i2c1_master.c: 312:     {;mcc_generated_files/i2c1_master.c: 313:  
      +                                 I2C1_Status.callbackTable[idx] = I2C1_CallbackReturnStop;
  8262  002106  5006               	movf	i2I2C1_SetCallback@idx^0,w,c
  8263  002108  0D03               	mullw	3
  8264  00210A  0E60               	movlw	low _I2C1_Status
  8265  00210C  24F3               	addwf	243,w,c
  8266  00210E  6ED9               	movwf	fsr2l,c
  8267  002110  0E00               	movlw	high _I2C1_Status
  8268  002112  20F4               	addwfc	prodh,w,c
  8269  002114  6EDA               	movwf	fsr2h,c
  8270  002116  0E72               	movlw	low _I2C1_CallbackReturnStop
  8271  002118  6EDE               	movwf	postinc2,c
  8272  00211A  0E29               	movlw	high _I2C1_CallbackReturnStop
  8273  00211C  6EDE               	movwf	postinc2,c
  8274  00211E  0E00               	movlw	low (_I2C1_CallbackReturnStop shr (0+16))
  8275  002120  6EDE               	movwf	postinc2,c
  8276                           
  8277                           ;mcc_generated_files/i2c1_master.c: 314:         I2C1_Status.callbackPayload[idx] = ((vo
      +                          id*)0);
  8278  002122  5006               	movf	i2I2C1_SetCallback@idx^0,w,c
  8279  002124  0D02               	mullw	2
  8280  002126  0E72               	movlw	low (_I2C1_Status+18)
  8281  002128  24F3               	addwf	243,w,c
  8282  00212A  6ED9               	movwf	fsr2l,c
  8283  00212C  0E00               	movlw	high (_I2C1_Status+18)
  8284  00212E  20F4               	addwfc	prodh,w,c
  8285  002130  6EDA               	movwf	fsr2h,c
  8286  002132  0E00               	movlw	0
  8287  002134  6EDE               	movwf	postinc2,c
  8288  002136  0E00               	movlw	0
  8289  002138  6EDD               	movwf	postdec2,c
  8290  00213A                     i2l551:
  8291  00213A  0012               	return		;funcret
  8292  00213C                     __end_ofi2_I2C1_SetCallback:
  8293                           	callstack 0
  8294                           
  8295 ;; *************** function i2_I2C1_SetBuffer *****************
  8296 ;; Defined at:
  8297 ;;		line 264 in file "mcc_generated_files/i2c1_master.c"
  8298 ;; Parameters:    Size  Location     Type
  8299 ;;  buffer          2    0[COMRAM] PTR void 
  8300 ;;		 -> __heap_hi(0), RAM(3614), FRAM_ReadByte@msgHdr(2), FRAM_ReadByte@returnValue(1), 
  8301 ;;		 -> FRAM_ReadNBytes@msgHdr(2), FRAM_ReadNBytes@bufferBlock(4), FRAM_WriteByte@data(1), FRAM_WriteByte@bfr(2), 
  8302 ;;		 -> seqWriteBuffer(258), main@framDataArray(256), I2C1_ReadByte@returnValue(1), I2C1_ReadNBytes@bufferBlock(4), 
  8303 ;;		 -> I2C1_WriteByte@data(1), NULL(0), 
  8304 ;;  bufferSize      2    2[COMRAM] unsigned int 
  8305 ;; Auto vars:     Size  Location     Type
  8306 ;;		None
  8307 ;; Return value:  Size  Location     Type
  8308 ;;                  1    wreg      void 
  8309 ;; Registers used:
  8310 ;;		wreg, status,2, status,0
  8311 ;; Tracked objects:
  8312 ;;		On entry : 0/0
  8313 ;;		On exit  : 0/0
  8314 ;;		Unchanged: 0/0
  8315 ;; Data sizes:     COMRAM   BANK0   BANK1   BANK2   BANK3   BANK4   BANK5   BANK6   BANK7   BANK8   BANK9  BANK10  BANK1
      +1  BANK12  BANK14
  8316 ;;      Params:         4       0       0       0       0       0       0       0       0       0       0       0       
      +0       0       0
  8317 ;;      Locals:         0       0       0       0       0       0       0       0       0       0       0       0       
      +0       0       0
  8318 ;;      Temps:          0       0       0       0       0       0       0       0       0       0       0       0       
      +0       0       0
  8319 ;;      Totals:         4       0       0       0       0       0       0       0       0       0       0       0       
      +0       0       0
  8320 ;;Total ram usage:        4 bytes
  8321 ;; Hardware stack levels used: 1
  8322 ;; This function calls:
  8323 ;;		Nothing
  8324 ;; This function is called by:
  8325 ;;		_rd1RegCompleteHandler
  8326 ;;		_wr1RegCompleteHandler
  8327 ;;		_rdBlkRegCompleteHandler
  8328 ;;		_wr1RegCompleteHandler@MB85RC256V$F1610
  8329 ;;		_rd1RegCompleteHandler@MB85RC256V$F1625
  8330 ;;		_rdBlkRegCompleteHandler@MB85RC256V$F1619
  8331 ;; This function uses a non-reentrant model
  8332 ;;
  8333                           
  8334                           	psect	text82
  8335  002722                     __ptext82:
  8336                           	callstack 0
  8337  002722                     i2_I2C1_SetBuffer:
  8338                           	callstack 16
  8339  002722                     
  8340                           ;mcc_generated_files/i2c1_master.c: 264: void I2C1_SetBuffer(void *buffer, size_t buffer
      +                          Size);mcc_generated_files/i2c1_master.c: 265: {;mcc_generated_files/i2c1_master.c: 266: 
      +                              if(I2C1_Status.bufferFree)
  8341  002722  0100               	movlb	0	; () banked
  8342  002724  A789               	btfss	(_I2C1_Status+41)& (0+255),3,b
  8343  002726  EF97  F013         	goto	i2u262_41
  8344  00272A  EF99  F013         	goto	i2u262_40
  8345  00272E                     i2u262_41:
  8346  00272E  EFA2  F013         	goto	i2l528
  8347  002732                     i2u262_40:
  8348  002732                     
  8349                           ; BSR set to: 0
  8350                           ;mcc_generated_files/i2c1_master.c: 267:     {;mcc_generated_files/i2c1_master.c: 268:  
      +                                 I2C1_Status.data_ptr = buffer;
  8351  002732  C001  F083         	movff	i2I2C1_SetBuffer@buffer,_I2C1_Status+35
  8352  002736  C002  F084         	movff	i2I2C1_SetBuffer@buffer+1,_I2C1_Status+36
  8353  00273A                     
  8354                           ; BSR set to: 0
  8355                           ;mcc_generated_files/i2c1_master.c: 269:         I2C1_Status.data_length = bufferSize;
  8356  00273A  C003  F085         	movff	i2I2C1_SetBuffer@bufferSize,_I2C1_Status+37
  8357  00273E  C004  F086         	movff	i2I2C1_SetBuffer@bufferSize+1,_I2C1_Status+38
  8358  002742                     
  8359                           ; BSR set to: 0
  8360                           ;mcc_generated_files/i2c1_master.c: 270:         I2C1_Status.bufferFree = 0;
  8361  002742  9789               	bcf	(_I2C1_Status+41)& (0+255),3,b
  8362  002744                     i2l528:
  8363                           
  8364                           ; BSR set to: 0
  8365  002744  0012               	return		;funcret
  8366  002746                     __end_ofi2_I2C1_SetBuffer:
  8367                           	callstack 0
  8368                           
  8369 ;; *************** function _I2C1_MasterStop *****************
  8370 ;; Defined at:
  8371 ;;		line 594 in file "mcc_generated_files/i2c1_master.c"
  8372 ;; Parameters:    Size  Location     Type
  8373 ;;		None
  8374 ;; Auto vars:     Size  Location     Type
  8375 ;;		None
  8376 ;; Return value:  Size  Location     Type
  8377 ;;                  1    wreg      void 
  8378 ;; Registers used:
  8379 ;;		None
  8380 ;; Tracked objects:
  8381 ;;		On entry : 0/0
  8382 ;;		On exit  : 0/0
  8383 ;;		Unchanged: 0/0
  8384 ;; Data sizes:     COMRAM   BANK0   BANK1   BANK2   BANK3   BANK4   BANK5   BANK6   BANK7   BANK8   BANK9  BANK10  BANK1
      +1  BANK12  BANK14
  8385 ;;      Params:         0       0       0       0       0       0       0       0       0       0       0       0       
      +0       0       0
  8386 ;;      Locals:         0       0       0       0       0       0       0       0       0       0       0       0       
      +0       0       0
  8387 ;;      Temps:          0       0       0       0       0       0       0       0       0       0       0       0       
      +0       0       0
  8388 ;;      Totals:         0       0       0       0       0       0       0       0       0       0       0       0       
      +0       0       0
  8389 ;;Total ram usage:        0 bytes
  8390 ;; Hardware stack levels used: 1
  8391 ;; This function calls:
  8392 ;;		Nothing
  8393 ;; This function is called by:
  8394 ;;		_I2C1_DO_SEND_STOP
  8395 ;; This function uses a non-reentrant model
  8396 ;;
  8397                           
  8398                           	psect	text83
  8399  002976                     __ptext83:
  8400                           	callstack 0
  8401  002976                     _I2C1_MasterStop:
  8402                           	callstack 16
  8403  002976                     
  8404                           ;mcc_generated_files/i2c1_master.c: 596:     SSP1CON2bits.PEN = 1;
  8405  002976  8496               	bsf	150,2,c	;volatile
  8406  002978  0012               	return		;funcret
  8407  00297A                     __end_of_I2C1_MasterStop:
  8408                           	callstack 0
  8409                           
  8410 ;; *************** function _I2C1_MasterEnableRestart *****************
  8411 ;; Defined at:
  8412 ;;		line 574 in file "mcc_generated_files/i2c1_master.c"
  8413 ;; Parameters:    Size  Location     Type
  8414 ;;		None
  8415 ;; Auto vars:     Size  Location     Type
  8416 ;;		None
  8417 ;; Return value:  Size  Location     Type
  8418 ;;                  1    wreg      void 
  8419 ;; Registers used:
  8420 ;;		None
  8421 ;; Tracked objects:
  8422 ;;		On entry : 0/0
  8423 ;;		On exit  : 0/0
  8424 ;;		Unchanged: 0/0
  8425 ;; Data sizes:     COMRAM   BANK0   BANK1   BANK2   BANK3   BANK4   BANK5   BANK6   BANK7   BANK8   BANK9  BANK10  BANK1
      +1  BANK12  BANK14
  8426 ;;      Params:         0       0       0       0       0       0       0       0       0       0       0       0       
      +0       0       0
  8427 ;;      Locals:         0       0       0       0       0       0       0       0       0       0       0       0       
      +0       0       0
  8428 ;;      Temps:          0       0       0       0       0       0       0       0       0       0       0       0       
      +0       0       0
  8429 ;;      Totals:         0       0       0       0       0       0       0       0       0       0       0       0       
      +0       0       0
  8430 ;;Total ram usage:        0 bytes
  8431 ;; Hardware stack levels used: 1
  8432 ;; This function calls:
  8433 ;;		Nothing
  8434 ;; This function is called by:
  8435 ;;		_I2C1_DO_SEND_RESTART_READ
  8436 ;;		_I2C1_DO_SEND_RESTART_WRITE
  8437 ;;		_I2C1_DO_SEND_RESTART
  8438 ;;		_I2C1_DO_RX_EMPTY
  8439 ;; This function uses a non-reentrant model
  8440 ;;
  8441                           
  8442                           	psect	text84
  8443  00297A                     __ptext84:
  8444                           	callstack 0
  8445  00297A                     _I2C1_MasterEnableRestart:
  8446                           	callstack 16
  8447  00297A                     
  8448                           ;mcc_generated_files/i2c1_master.c: 576:     SSP1CON2bits.RSEN = 1;
  8449  00297A  8296               	bsf	150,1,c	;volatile
  8450  00297C  0012               	return		;funcret
  8451  00297E                     __end_of_I2C1_MasterEnableRestart:
  8452                           	callstack 0
  8453                           
  8454 ;; *************** function _EUSART2_Transmit_ISR *****************
  8455 ;; Defined at:
  8456 ;;		line 206 in file "mcc_generated_files/eusart2.c"
  8457 ;; Parameters:    Size  Location     Type
  8458 ;;		None
  8459 ;; Auto vars:     Size  Location     Type
  8460 ;;		None
  8461 ;; Return value:  Size  Location     Type
  8462 ;;                  1    wreg      void 
  8463 ;; Registers used:
  8464 ;;		wreg, fsr2l, fsr2h, status,2, status,0
  8465 ;; Tracked objects:
  8466 ;;		On entry : 0/0
  8467 ;;		On exit  : 0/0
  8468 ;;		Unchanged: 0/0
  8469 ;; Data sizes:     COMRAM   BANK0   BANK1   BANK2   BANK3   BANK4   BANK5   BANK6   BANK7   BANK8   BANK9  BANK10  BANK1
      +1  BANK12  BANK14
  8470 ;;      Params:         0       0       0       0       0       0       0       0       0       0       0       0       
      +0       0       0
  8471 ;;      Locals:         0       0       0       0       0       0       0       0       0       0       0       0       
      +0       0       0
  8472 ;;      Temps:          0       0       0       0       0       0       0       0       0       0       0       0       
      +0       0       0
  8473 ;;      Totals:         0       0       0       0       0       0       0       0       0       0       0       0       
      +0       0       0
  8474 ;;Total ram usage:        0 bytes
  8475 ;; Hardware stack levels used: 1
  8476 ;; This function calls:
  8477 ;;		Nothing
  8478 ;; This function is called by:
  8479 ;;		_EUSART2_Initialize
  8480 ;;		_INTERRUPT_InterruptManager
  8481 ;; This function uses a non-reentrant model
  8482 ;;
  8483                           
  8484                           	psect	text85
  8485  0024C2                     __ptext85:
  8486                           	callstack 0
  8487  0024C2                     _EUSART2_Transmit_ISR:
  8488                           	callstack 20
  8489  0024C2                     
  8490                           ;mcc_generated_files/eusart2.c: 210:     if(sizeof(eusart2TxBuffer) > eusart2TxBufferRem
      +                          aining)
  8491  0024C2  0E08               	movlw	8
  8492  0024C4  6045               	cpfslt	_eusart2TxBufferRemaining^0,c	;volatile
  8493  0024C6  EF67  F012         	goto	i2u191_41
  8494  0024CA  EF69  F012         	goto	i2u191_40
  8495  0024CE                     i2u191_41:
  8496  0024CE  EF80  F012         	goto	i2l195
  8497  0024D2                     i2u191_40:
  8498  0024D2                     
  8499                           ;mcc_generated_files/eusart2.c: 211:     {;mcc_generated_files/eusart2.c: 212:         T
      +                          X2REG = eusart2TxBuffer[eusart2TxTail++];
  8500  0024D2  0E9A               	movlw	low _eusart2TxBuffer
  8501  0024D4  2443               	addwf	_eusart2TxTail^0,w,c	;volatile
  8502  0024D6  6ED9               	movwf	fsr2l,c
  8503  0024D8  6ADA               	clrf	fsr2h,c
  8504  0024DA  0E00               	movlw	high _eusart2TxBuffer
  8505  0024DC  22DA               	addwfc	fsr2h,f,c
  8506  0024DE  50DF               	movf	indf2,w,c
  8507  0024E0  010E               	movlb	14	; () banked
  8508  0024E2  6F95               	movwf	149,b	;volatile
  8509  0024E4                     
  8510                           ; BSR set to: 14
  8511  0024E4  2A43               	incf	_eusart2TxTail^0,f,c	;volatile
  8512  0024E6                     
  8513                           ; BSR set to: 14
  8514                           ;mcc_generated_files/eusart2.c: 213:         if(sizeof(eusart2TxBuffer) <= eusart2TxTail
      +                          )
  8515  0024E6  0E07               	movlw	7
  8516  0024E8  6443               	cpfsgt	_eusart2TxTail^0,c	;volatile
  8517  0024EA  EF79  F012         	goto	i2u192_41
  8518  0024EE  EF7B  F012         	goto	i2u192_40
  8519  0024F2                     i2u192_41:
  8520  0024F2  EF7D  F012         	goto	i2l3841
  8521  0024F6                     i2u192_40:
  8522  0024F6                     
  8523                           ; BSR set to: 14
  8524                           ;mcc_generated_files/eusart2.c: 214:         {;mcc_generated_files/eusart2.c: 215:      
      +                                 eusart2TxTail = 0;
  8525  0024F6  0E00               	movlw	0
  8526  0024F8  6E43               	movwf	_eusart2TxTail^0,c	;volatile
  8527  0024FA                     i2l3841:
  8528                           
  8529                           ; BSR set to: 14
  8530                           ;mcc_generated_files/eusart2.c: 217:         eusart2TxBufferRemaining++;
  8531  0024FA  2A45               	incf	_eusart2TxBufferRemaining^0,f,c	;volatile
  8532                           
  8533                           ;mcc_generated_files/eusart2.c: 218:     }
  8534  0024FC  EF82  F012         	goto	i2l198
  8535  002500                     i2l195:
  8536                           
  8537                           ;mcc_generated_files/eusart2.c: 220:     {;mcc_generated_files/eusart2.c: 221:         P
      +                          IE3bits.TX2IE = 0;
  8538  002500  010E               	movlb	14	; () banked
  8539  002502  9DC0               	bcf	192,6,b	;volatile
  8540  002504                     i2l198:
  8541                           
  8542                           ; BSR set to: 14
  8543  002504  0012               	return		;funcret
  8544  002506                     __end_of_EUSART2_Transmit_ISR:
  8545                           	callstack 0
  8546                           
  8547 ;; *************** function _EUSART2_Receive_ISR *****************
  8548 ;; Defined at:
  8549 ;;		line 225 in file "mcc_generated_files/eusart2.c"
  8550 ;; Parameters:    Size  Location     Type
  8551 ;;		None
  8552 ;; Auto vars:     Size  Location     Type
  8553 ;;		None
  8554 ;; Return value:  Size  Location     Type
  8555 ;;                  1    wreg      void 
  8556 ;; Registers used:
  8557 ;;		wreg, fsr2l, fsr2h, status,2, status,0, pcl, pclath, pclatu, tosl, cstack
  8558 ;; Tracked objects:
  8559 ;;		On entry : 0/0
  8560 ;;		On exit  : 0/0
  8561 ;;		Unchanged: 0/0
  8562 ;; Data sizes:     COMRAM   BANK0   BANK1   BANK2   BANK3   BANK4   BANK5   BANK6   BANK7   BANK8   BANK9  BANK10  BANK1
      +1  BANK12  BANK14
  8563 ;;      Params:         0       0       0       0       0       0       0       0       0       0       0       0       
      +0       0       0
  8564 ;;      Locals:         0       0       0       0       0       0       0       0       0       0       0       0       
      +0       0       0
  8565 ;;      Temps:          0       0       0       0       0       0       0       0       0       0       0       0       
      +0       0       0
  8566 ;;      Totals:         0       0       0       0       0       0       0       0       0       0       0       0       
      +0       0       0
  8567 ;;Total ram usage:        0 bytes
  8568 ;; Hardware stack levels used: 1
  8569 ;; Hardware stack levels required when called: 2
  8570 ;; This function calls:
  8571 ;;		Absolute function
  8572 ;;		_EUSART2_DefaultErrorHandler
  8573 ;;		_EUSART2_DefaultFramingErrorHandler
  8574 ;;		_EUSART2_DefaultOverrunErrorHandler
  8575 ;;		_EUSART2_RxDataHandler
  8576 ;; This function is called by:
  8577 ;;		_EUSART2_Initialize
  8578 ;;		_INTERRUPT_InterruptManager
  8579 ;; This function uses a non-reentrant model
  8580 ;;
  8581                           
  8582                           	psect	text86
  8583  001B20                     __ptext86:
  8584                           	callstack 0
  8585  001B20                     _EUSART2_Receive_ISR:
  8586                           	callstack 18
  8587  001B20                     
  8588                           ;mcc_generated_files/eusart2.c: 228:     eusart2RxStatusBuffer[eusart2RxHead].status = 0
      +                          ;
  8589  001B20  0E8A               	movlw	low _eusart2RxStatusBuffer
  8590  001B22  2442               	addwf	_eusart2RxHead^0,w,c	;volatile
  8591  001B24  6ED9               	movwf	fsr2l,c
  8592  001B26  6ADA               	clrf	fsr2h,c
  8593  001B28  0E00               	movlw	high _eusart2RxStatusBuffer
  8594  001B2A  22DA               	addwfc	fsr2h,f,c
  8595  001B2C  0E00               	movlw	0
  8596  001B2E  6EDF               	movwf	indf2,c
  8597  001B30                     
  8598                           ;mcc_generated_files/eusart2.c: 230:     if(RC2STAbits.FERR){
  8599  001B30  010E               	movlb	14	; () banked
  8600  001B32  A598               	btfss	152,2,b	;volatile
  8601  001B34  EF9E  F00D         	goto	i2u193_41
  8602  001B38  EFA0  F00D         	goto	i2u193_40
  8603  001B3C                     i2u193_41:
  8604  001B3C  EFB5  F00D         	goto	i2l3851
  8605  001B40                     i2u193_40:
  8606  001B40                     
  8607                           ; BSR set to: 14
  8608                           ;mcc_generated_files/eusart2.c: 231:         eusart2RxStatusBuffer[eusart2RxHead].ferr =
      +                           1;
  8609  001B40  0E8A               	movlw	low _eusart2RxStatusBuffer
  8610  001B42  2442               	addwf	_eusart2RxHead^0,w,c	;volatile
  8611  001B44  6ED9               	movwf	fsr2l,c
  8612  001B46  6ADA               	clrf	fsr2h,c
  8613  001B48  0E00               	movlw	high _eusart2RxStatusBuffer
  8614  001B4A  22DA               	addwfc	fsr2h,f,c
  8615  001B4C  0100               	movlb	0	; () banked
  8616  001B4E  82DF               	bsf	indf2,1,c
  8617  001B50                     
  8618                           ; BSR set to: 0
  8619                           ;mcc_generated_files/eusart2.c: 232:         EUSART2_FramingErrorHandler();
  8620  001B50  D802               	call	i2u194_48
  8621  001B52  EFB5  F00D         	goto	i2u194_49
  8622  001B56                     i2u194_48:
  8623  001B56  0005               	push	
  8624  001B58  6EFA               	movwf	pclath,c
  8625  001B5A  51F7               	movf	_EUSART2_FramingErrorHandler& (0+255),w,b
  8626  001B5C  6EFD               	movwf	tosl,c
  8627  001B5E  51F8               	movf	(_EUSART2_FramingErrorHandler+1)& (0+255),w,b
  8628  001B60  6EFE               	movwf	tosh,c
  8629  001B62  51F9               	movf	(_EUSART2_FramingErrorHandler+2)& (0+255),w,b
  8630  001B64  6EFF               	movwf	tosu,c
  8631  001B66  50FA               	movf	pclath,w,c
  8632  001B68  0012               	return		;indir
  8633  001B6A                     i2u194_49:
  8634  001B6A                     i2l3851:
  8635                           
  8636                           ;mcc_generated_files/eusart2.c: 235:     if(RC2STAbits.OERR){
  8637  001B6A  010E               	movlb	14	; () banked
  8638  001B6C  A398               	btfss	152,1,b	;volatile
  8639  001B6E  EFBB  F00D         	goto	i2u195_41
  8640  001B72  EFBD  F00D         	goto	i2u195_40
  8641  001B76                     i2u195_41:
  8642  001B76  EFD2  F00D         	goto	i2l3857
  8643  001B7A                     i2u195_40:
  8644  001B7A                     
  8645                           ; BSR set to: 14
  8646                           ;mcc_generated_files/eusart2.c: 236:         eusart2RxStatusBuffer[eusart2RxHead].oerr =
      +                           1;
  8647  001B7A  0E8A               	movlw	low _eusart2RxStatusBuffer
  8648  001B7C  2442               	addwf	_eusart2RxHead^0,w,c	;volatile
  8649  001B7E  6ED9               	movwf	fsr2l,c
  8650  001B80  6ADA               	clrf	fsr2h,c
  8651  001B82  0E00               	movlw	high _eusart2RxStatusBuffer
  8652  001B84  22DA               	addwfc	fsr2h,f,c
  8653  001B86  0100               	movlb	0	; () banked
  8654  001B88  84DF               	bsf	indf2,2,c
  8655  001B8A                     
  8656                           ; BSR set to: 0
  8657                           ;mcc_generated_files/eusart2.c: 237:         EUSART2_OverrunErrorHandler();
  8658  001B8A  D802               	call	i2u196_48
  8659  001B8C  EFD2  F00D         	goto	i2u196_49
  8660  001B90                     i2u196_48:
  8661  001B90  0005               	push	
  8662  001B92  6EFA               	movwf	pclath,c
  8663  001B94  51F4               	movf	_EUSART2_OverrunErrorHandler& (0+255),w,b
  8664  001B96  6EFD               	movwf	tosl,c
  8665  001B98  51F5               	movf	(_EUSART2_OverrunErrorHandler+1)& (0+255),w,b
  8666  001B9A  6EFE               	movwf	tosh,c
  8667  001B9C  51F6               	movf	(_EUSART2_OverrunErrorHandler+2)& (0+255),w,b
  8668  001B9E  6EFF               	movwf	tosu,c
  8669  001BA0  50FA               	movf	pclath,w,c
  8670  001BA2  0012               	return		;indir
  8671  001BA4                     i2u196_49:
  8672  001BA4                     i2l3857:
  8673                           
  8674                           ;mcc_generated_files/eusart2.c: 240:     if(eusart2RxStatusBuffer[eusart2RxHead].status)
      +                          {
  8675  001BA4  0E8A               	movlw	low _eusart2RxStatusBuffer
  8676  001BA6  2442               	addwf	_eusart2RxHead^0,w,c	;volatile
  8677  001BA8  6ED9               	movwf	fsr2l,c
  8678  001BAA  6ADA               	clrf	fsr2h,c
  8679  001BAC  0E00               	movlw	high _eusart2RxStatusBuffer
  8680  001BAE  22DA               	addwfc	fsr2h,f,c
  8681  001BB0  50DF               	movf	indf2,w,c
  8682  001BB2  B4D8               	btfsc	status,2,c
  8683  001BB4  EFDE  F00D         	goto	i2u197_41
  8684  001BB8  EFE0  F00D         	goto	i2u197_40
  8685  001BBC                     i2u197_41:
  8686  001BBC  EFF0  F00D         	goto	i2l3861
  8687  001BC0                     i2u197_40:
  8688  001BC0                     
  8689                           ;mcc_generated_files/eusart2.c: 241:         EUSART2_ErrorHandler();
  8690  001BC0  D802               	call	i2u198_48
  8691  001BC2  EFEE  F00D         	goto	i2u198_49
  8692  001BC6                     i2u198_48:
  8693  001BC6  0005               	push	
  8694  001BC8  6EFA               	movwf	pclath,c
  8695  001BCA  0100               	movlb	0	; () banked
  8696  001BCC  51F1               	movf	_EUSART2_ErrorHandler& (0+255),w,b
  8697  001BCE  6EFD               	movwf	tosl,c
  8698  001BD0  51F2               	movf	(_EUSART2_ErrorHandler+1)& (0+255),w,b
  8699  001BD2  6EFE               	movwf	tosh,c
  8700  001BD4  51F3               	movf	(_EUSART2_ErrorHandler+2)& (0+255),w,b
  8701  001BD6  6EFF               	movwf	tosu,c
  8702  001BD8  50FA               	movf	pclath,w,c
  8703  001BDA  0012               	return		;indir
  8704  001BDC                     i2u198_49:
  8705                           
  8706                           ;mcc_generated_files/eusart2.c: 242:     } else {
  8707  001BDC  EFF2  F00D         	goto	i2l205
  8708  001BE0                     i2l3861:
  8709                           
  8710                           ;mcc_generated_files/eusart2.c: 243:         EUSART2_RxDataHandler();
  8711  001BE0  EC6A  F013         	call	_EUSART2_RxDataHandler	;wreg free
  8712  001BE4                     i2l205:
  8713  001BE4  0012               	return		;funcret
  8714  001BE6                     __end_of_EUSART2_Receive_ISR:
  8715                           	callstack 0
  8716                           
  8717 ;; *************** function _EUSART2_DefaultOverrunErrorHandler *****************
  8718 ;; Defined at:
  8719 ;;		line 261 in file "mcc_generated_files/eusart2.c"
  8720 ;; Parameters:    Size  Location     Type
  8721 ;;		None
  8722 ;; Auto vars:     Size  Location     Type
  8723 ;;		None
  8724 ;; Return value:  Size  Location     Type
  8725 ;;                  1    wreg      void 
  8726 ;; Registers used:
  8727 ;;		None
  8728 ;; Tracked objects:
  8729 ;;		On entry : 0/0
  8730 ;;		On exit  : 0/0
  8731 ;;		Unchanged: 0/0
  8732 ;; Data sizes:     COMRAM   BANK0   BANK1   BANK2   BANK3   BANK4   BANK5   BANK6   BANK7   BANK8   BANK9  BANK10  BANK1
      +1  BANK12  BANK14
  8733 ;;      Params:         0       0       0       0       0       0       0       0       0       0       0       0       
      +0       0       0
  8734 ;;      Locals:         0       0       0       0       0       0       0       0       0       0       0       0       
      +0       0       0
  8735 ;;      Temps:          0       0       0       0       0       0       0       0       0       0       0       0       
      +0       0       0
  8736 ;;      Totals:         0       0       0       0       0       0       0       0       0       0       0       0       
      +0       0       0
  8737 ;;Total ram usage:        0 bytes
  8738 ;; Hardware stack levels used: 1
  8739 ;; This function calls:
  8740 ;;		Nothing
  8741 ;; This function is called by:
  8742 ;;		_EUSART2_Initialize
  8743 ;;		_EUSART2_Receive_ISR
  8744 ;; This function uses a non-reentrant model
  8745 ;;
  8746                           
  8747                           	psect	text87
  8748  00291C                     __ptext87:
  8749                           	callstack 0
  8750  00291C                     _EUSART2_DefaultOverrunErrorHandler:
  8751                           	callstack 19
  8752  00291C                     
  8753                           ;mcc_generated_files/eusart2.c: 264:     RC2STAbits.CREN = 0;
  8754  00291C  010E               	movlb	14	; () banked
  8755  00291E  9998               	bcf	152,4,b	;volatile
  8756                           
  8757                           ;mcc_generated_files/eusart2.c: 265:     RC2STAbits.CREN = 1;
  8758  002920  8998               	bsf	152,4,b	;volatile
  8759  002922                     
  8760                           ; BSR set to: 14
  8761  002922  0012               	return		;funcret
  8762  002924                     __end_of_EUSART2_DefaultOverrunErrorHandler:
  8763                           	callstack 0
  8764                           
  8765 ;; *************** function _EUSART2_DefaultFramingErrorHandler *****************
  8766 ;; Defined at:
  8767 ;;		line 259 in file "mcc_generated_files/eusart2.c"
  8768 ;; Parameters:    Size  Location     Type
  8769 ;;		None
  8770 ;; Auto vars:     Size  Location     Type
  8771 ;;		None
  8772 ;; Return value:  Size  Location     Type
  8773 ;;                  1    wreg      void 
  8774 ;; Registers used:
  8775 ;;		None
  8776 ;; Tracked objects:
  8777 ;;		On entry : 0/0
  8778 ;;		On exit  : 0/0
  8779 ;;		Unchanged: 0/0
  8780 ;; Data sizes:     COMRAM   BANK0   BANK1   BANK2   BANK3   BANK4   BANK5   BANK6   BANK7   BANK8   BANK9  BANK10  BANK1
      +1  BANK12  BANK14
  8781 ;;      Params:         0       0       0       0       0       0       0       0       0       0       0       0       
      +0       0       0
  8782 ;;      Locals:         0       0       0       0       0       0       0       0       0       0       0       0       
      +0       0       0
  8783 ;;      Temps:          0       0       0       0       0       0       0       0       0       0       0       0       
      +0       0       0
  8784 ;;      Totals:         0       0       0       0       0       0       0       0       0       0       0       0       
      +0       0       0
  8785 ;;Total ram usage:        0 bytes
  8786 ;; Hardware stack levels used: 1
  8787 ;; This function calls:
  8788 ;;		Nothing
  8789 ;; This function is called by:
  8790 ;;		_EUSART2_Initialize
  8791 ;;		_EUSART2_Receive_ISR
  8792 ;; This function uses a non-reentrant model
  8793 ;;
  8794                           
  8795                           	psect	text88
  8796  00297E                     __ptext88:
  8797                           	callstack 0
  8798  00297E                     _EUSART2_DefaultFramingErrorHandler:
  8799                           	callstack 19
  8800  00297E  0012               	return		;funcret
  8801  002980                     __end_of_EUSART2_DefaultFramingErrorHandler:
  8802                           	callstack 0
  8803                           
  8804 ;; *************** function _EUSART2_DefaultErrorHandler *****************
  8805 ;; Defined at:
  8806 ;;		line 269 in file "mcc_generated_files/eusart2.c"
  8807 ;; Parameters:    Size  Location     Type
  8808 ;;		None
  8809 ;; Auto vars:     Size  Location     Type
  8810 ;;		None
  8811 ;; Return value:  Size  Location     Type
  8812 ;;                  1    wreg      void 
  8813 ;; Registers used:
  8814 ;;		wreg, fsr2l, fsr2h, status,2, status,0, cstack
  8815 ;; Tracked objects:
  8816 ;;		On entry : 0/0
  8817 ;;		On exit  : 0/0
  8818 ;;		Unchanged: 0/0
  8819 ;; Data sizes:     COMRAM   BANK0   BANK1   BANK2   BANK3   BANK4   BANK5   BANK6   BANK7   BANK8   BANK9  BANK10  BANK1
      +1  BANK12  BANK14
  8820 ;;      Params:         0       0       0       0       0       0       0       0       0       0       0       0       
      +0       0       0
  8821 ;;      Locals:         0       0       0       0       0       0       0       0       0       0       0       0       
      +0       0       0
  8822 ;;      Temps:          0       0       0       0       0       0       0       0       0       0       0       0       
      +0       0       0
  8823 ;;      Totals:         0       0       0       0       0       0       0       0       0       0       0       0       
      +0       0       0
  8824 ;;Total ram usage:        0 bytes
  8825 ;; Hardware stack levels used: 1
  8826 ;; Hardware stack levels required when called: 1
  8827 ;; This function calls:
  8828 ;;		_EUSART2_RxDataHandler
  8829 ;; This function is called by:
  8830 ;;		_EUSART2_Initialize
  8831 ;;		_EUSART2_Receive_ISR
  8832 ;; This function uses a non-reentrant model
  8833 ;;
  8834                           
  8835                           	psect	text89
  8836  002954                     __ptext89:
  8837                           	callstack 0
  8838  002954                     _EUSART2_DefaultErrorHandler:
  8839                           	callstack 18
  8840  002954                     
  8841                           ;mcc_generated_files/eusart2.c: 270:     EUSART2_RxDataHandler();
  8842  002954  EC6A  F013         	call	_EUSART2_RxDataHandler	;wreg free
  8843  002958  0012               	return		;funcret
  8844  00295A                     __end_of_EUSART2_DefaultErrorHandler:
  8845                           	callstack 0
  8846                           
  8847 ;; *************** function _EUSART2_RxDataHandler *****************
  8848 ;; Defined at:
  8849 ;;		line 249 in file "mcc_generated_files/eusart2.c"
  8850 ;; Parameters:    Size  Location     Type
  8851 ;;		None
  8852 ;; Auto vars:     Size  Location     Type
  8853 ;;		None
  8854 ;; Return value:  Size  Location     Type
  8855 ;;                  1    wreg      void 
  8856 ;; Registers used:
  8857 ;;		wreg, fsr2l, fsr2h, status,2, status,0
  8858 ;; Tracked objects:
  8859 ;;		On entry : 0/0
  8860 ;;		On exit  : 0/0
  8861 ;;		Unchanged: 0/0
  8862 ;; Data sizes:     COMRAM   BANK0   BANK1   BANK2   BANK3   BANK4   BANK5   BANK6   BANK7   BANK8   BANK9  BANK10  BANK1
      +1  BANK12  BANK14
  8863 ;;      Params:         0       0       0       0       0       0       0       0       0       0       0       0       
      +0       0       0
  8864 ;;      Locals:         0       0       0       0       0       0       0       0       0       0       0       0       
      +0       0       0
  8865 ;;      Temps:          0       0       0       0       0       0       0       0       0       0       0       0       
      +0       0       0
  8866 ;;      Totals:         0       0       0       0       0       0       0       0       0       0       0       0       
      +0       0       0
  8867 ;;Total ram usage:        0 bytes
  8868 ;; Hardware stack levels used: 1
  8869 ;; This function calls:
  8870 ;;		Nothing
  8871 ;; This function is called by:
  8872 ;;		_EUSART2_Receive_ISR
  8873 ;;		_EUSART2_DefaultErrorHandler
  8874 ;; This function uses a non-reentrant model
  8875 ;;
  8876                           
  8877                           	psect	text90
  8878  0026D4                     __ptext90:
  8879                           	callstack 0
  8880  0026D4                     _EUSART2_RxDataHandler:
  8881                           	callstack 19
  8882  0026D4                     
  8883                           ;mcc_generated_files/eusart2.c: 251:     eusart2RxBuffer[eusart2RxHead++] = RC2REG;
  8884  0026D4  0E92               	movlw	low _eusart2RxBuffer
  8885  0026D6  2442               	addwf	_eusart2RxHead^0,w,c	;volatile
  8886  0026D8  6ED9               	movwf	fsr2l,c
  8887  0026DA  6ADA               	clrf	fsr2h,c
  8888  0026DC  0E00               	movlw	high _eusart2RxBuffer
  8889  0026DE  22DA               	addwfc	fsr2h,f,c
  8890  0026E0  CE94 FFDF          	movff	3732,indf2	;volatile
  8891  0026E4  2A42               	incf	_eusart2RxHead^0,f,c	;volatile
  8892  0026E6                     
  8893                           ;mcc_generated_files/eusart2.c: 252:     if(sizeof(eusart2RxBuffer) <= eusart2RxHead)
  8894  0026E6  0E07               	movlw	7
  8895  0026E8  6442               	cpfsgt	_eusart2RxHead^0,c	;volatile
  8896  0026EA  EF79  F013         	goto	i2u160_41
  8897  0026EE  EF7B  F013         	goto	i2u160_40
  8898  0026F2                     i2u160_41:
  8899  0026F2  EF7D  F013         	goto	i2l3349
  8900  0026F6                     i2u160_40:
  8901  0026F6                     
  8902                           ;mcc_generated_files/eusart2.c: 253:     {;mcc_generated_files/eusart2.c: 254:         e
      +                          usart2RxHead = 0;
  8903  0026F6  0E00               	movlw	0
  8904  0026F8  6E42               	movwf	_eusart2RxHead^0,c	;volatile
  8905  0026FA                     i2l3349:
  8906                           
  8907                           ;mcc_generated_files/eusart2.c: 256:     eusart2RxCount++;
  8908  0026FA  2A40               	incf	_eusart2RxCount^0,f,c	;volatile
  8909  0026FC  0012               	return		;funcret
  8910  0026FE                     __end_of_EUSART2_RxDataHandler:
  8911                           	callstack 0
  8912                           
  8913                           	psect	text91
  8914  000000                     __ptext91:
  8915                           	callstack 0
  8916  000000                     
  8917                           	psect	rparam
  8918  0000                     
  8919                           	psect	temp
  8920  000046                     btemp:
  8921                           	callstack 0
  8922  000046                     	ds	1
  8923  0000                     int$flags	set	btemp
  8924  0000                     wtemp8	set	btemp+1
  8925  0000                     ttemp5	set	btemp+1
  8926  0000                     ttemp6	set	btemp+4
  8927  0000                     ttemp7	set	btemp+8
  8928                           
  8929                           	psect	idloc
  8930                           
  8931                           ;Config register IDLOC0 @ 0x200000
  8932                           ;	unspecified, using default values
  8933  200000                     	org	2097152
  8934  200000  FFFF               	dw	65535
  8935                           
  8936                           ;Config register IDLOC1 @ 0x200002
  8937                           ;	unspecified, using default values
  8938  200002                     	org	2097154
  8939  200002  FFFF               	dw	65535
  8940                           
  8941                           ;Config register IDLOC2 @ 0x200004
  8942                           ;	unspecified, using default values
  8943  200004                     	org	2097156
  8944  200004  FFFF               	dw	65535
  8945                           
  8946                           ;Config register IDLOC3 @ 0x200006
  8947                           ;	unspecified, using default values
  8948  200006                     	org	2097158
  8949  200006  FFFF               	dw	65535
  8950                           
  8951                           ;Config register IDLOC4 @ 0x200008
  8952                           ;	unspecified, using default values
  8953  200008                     	org	2097160
  8954  200008  FFFF               	dw	65535
  8955                           
  8956                           ;Config register IDLOC5 @ 0x20000A
  8957                           ;	unspecified, using default values
  8958  20000A                     	org	2097162
  8959  20000A  FFFF               	dw	65535
  8960                           
  8961                           ;Config register IDLOC6 @ 0x20000C
  8962                           ;	unspecified, using default values
  8963  20000C                     	org	2097164
  8964  20000C  FFFF               	dw	65535
  8965                           
  8966                           ;Config register IDLOC7 @ 0x20000E
  8967                           ;	unspecified, using default values
  8968  20000E                     	org	2097166
  8969  20000E  FFFF               	dw	65535
  8970                           
  8971                           ;Config register IDLOC8 @ 0x200010
  8972                           ;	unspecified, using default values
  8973  200010                     	org	2097168
  8974  200010  FFFF               	dw	65535
  8975                           
  8976                           ;Config register IDLOC9 @ 0x200012
  8977                           ;	unspecified, using default values
  8978  200012                     	org	2097170
  8979  200012  FFFF               	dw	65535
  8980                           
  8981                           ;Config register IDLOC10 @ 0x200014
  8982                           ;	unspecified, using default values
  8983  200014                     	org	2097172
  8984  200014  FFFF               	dw	65535
  8985                           
  8986                           ;Config register IDLOC11 @ 0x200016
  8987                           ;	unspecified, using default values
  8988  200016                     	org	2097174
  8989  200016  FFFF               	dw	65535
  8990                           
  8991                           ;Config register IDLOC12 @ 0x200018
  8992                           ;	unspecified, using default values
  8993  200018                     	org	2097176
  8994  200018  FFFF               	dw	65535
  8995                           
  8996                           ;Config register IDLOC13 @ 0x20001A
  8997                           ;	unspecified, using default values
  8998  20001A                     	org	2097178
  8999  20001A  FFFF               	dw	65535
  9000                           
  9001                           ;Config register IDLOC14 @ 0x20001C
  9002                           ;	unspecified, using default values
  9003  20001C                     	org	2097180
  9004  20001C  FFFF               	dw	65535
  9005                           
  9006                           ;Config register IDLOC15 @ 0x20001E
  9007                           ;	unspecified, using default values
  9008  20001E                     	org	2097182
  9009  20001E  FFFF               	dw	65535
  9010                           
  9011                           ;Config register IDLOC16 @ 0x200020
  9012                           ;	unspecified, using default values
  9013  200020                     	org	2097184
  9014  200020  FFFF               	dw	65535
  9015                           
  9016                           ;Config register IDLOC17 @ 0x200022
  9017                           ;	unspecified, using default values
  9018  200022                     	org	2097186
  9019  200022  FFFF               	dw	65535
  9020                           
  9021                           ;Config register IDLOC18 @ 0x200024
  9022                           ;	unspecified, using default values
  9023  200024                     	org	2097188
  9024  200024  FFFF               	dw	65535
  9025                           
  9026                           ;Config register IDLOC19 @ 0x200026
  9027                           ;	unspecified, using default values
  9028  200026                     	org	2097190
  9029  200026  FFFF               	dw	65535
  9030                           
  9031                           ;Config register IDLOC20 @ 0x200028
  9032                           ;	unspecified, using default values
  9033  200028                     	org	2097192
  9034  200028  FFFF               	dw	65535
  9035                           
  9036                           ;Config register IDLOC21 @ 0x20002A
  9037                           ;	unspecified, using default values
  9038  20002A                     	org	2097194
  9039  20002A  FFFF               	dw	65535
  9040                           
  9041                           ;Config register IDLOC22 @ 0x20002C
  9042                           ;	unspecified, using default values
  9043  20002C                     	org	2097196
  9044  20002C  FFFF               	dw	65535
  9045                           
  9046                           ;Config register IDLOC23 @ 0x20002E
  9047                           ;	unspecified, using default values
  9048  20002E                     	org	2097198
  9049  20002E  FFFF               	dw	65535
  9050                           
  9051                           ;Config register IDLOC24 @ 0x200030
  9052                           ;	unspecified, using default values
  9053  200030                     	org	2097200
  9054  200030  FFFF               	dw	65535
  9055                           
  9056                           ;Config register IDLOC25 @ 0x200032
  9057                           ;	unspecified, using default values
  9058  200032                     	org	2097202
  9059  200032  FFFF               	dw	65535
  9060                           
  9061                           ;Config register IDLOC26 @ 0x200034
  9062                           ;	unspecified, using default values
  9063  200034                     	org	2097204
  9064  200034  FFFF               	dw	65535
  9065                           
  9066                           ;Config register IDLOC27 @ 0x200036
  9067                           ;	unspecified, using default values
  9068  200036                     	org	2097206
  9069  200036  FFFF               	dw	65535
  9070                           
  9071                           ;Config register IDLOC28 @ 0x200038
  9072                           ;	unspecified, using default values
  9073  200038                     	org	2097208
  9074  200038  FFFF               	dw	65535
  9075                           
  9076                           ;Config register IDLOC29 @ 0x20003A
  9077                           ;	unspecified, using default values
  9078  20003A                     	org	2097210
  9079  20003A  FFFF               	dw	65535
  9080                           
  9081                           ;Config register IDLOC30 @ 0x20003C
  9082                           ;	unspecified, using default values
  9083  20003C                     	org	2097212
  9084  20003C  FFFF               	dw	65535
  9085                           
  9086                           ;Config register IDLOC31 @ 0x20003E
  9087                           ;	unspecified, using default values
  9088  20003E                     	org	2097214
  9089  20003E  FFFF               	dw	65535
  9090                           
  9091                           ;Config register IDLOC32 @ 0x200040
  9092                           ;	unspecified, using default values
  9093  200040                     	org	2097216
  9094  200040  FFFF               	dw	65535
  9095                           
  9096                           ;Config register IDLOC33 @ 0x200042
  9097                           ;	unspecified, using default values
  9098  200042                     	org	2097218
  9099  200042  FFFF               	dw	65535
  9100                           
  9101                           ;Config register IDLOC34 @ 0x200044
  9102                           ;	unspecified, using default values
  9103  200044                     	org	2097220
  9104  200044  FFFF               	dw	65535
  9105                           
  9106                           ;Config register IDLOC35 @ 0x200046
  9107                           ;	unspecified, using default values
  9108  200046                     	org	2097222
  9109  200046  FFFF               	dw	65535
  9110                           
  9111                           ;Config register IDLOC36 @ 0x200048
  9112                           ;	unspecified, using default values
  9113  200048                     	org	2097224
  9114  200048  FFFF               	dw	65535
  9115                           
  9116                           ;Config register IDLOC37 @ 0x20004A
  9117                           ;	unspecified, using default values
  9118  20004A                     	org	2097226
  9119  20004A  FFFF               	dw	65535
  9120                           
  9121                           ;Config register IDLOC38 @ 0x20004C
  9122                           ;	unspecified, using default values
  9123  20004C                     	org	2097228
  9124  20004C  FFFF               	dw	65535
  9125                           
  9126                           ;Config register IDLOC39 @ 0x20004E
  9127                           ;	unspecified, using default values
  9128  20004E                     	org	2097230
  9129  20004E  FFFF               	dw	65535
  9130                           
  9131                           ;Config register IDLOC40 @ 0x200050
  9132                           ;	unspecified, using default values
  9133  200050                     	org	2097232
  9134  200050  FFFF               	dw	65535
  9135                           
  9136                           ;Config register IDLOC41 @ 0x200052
  9137                           ;	unspecified, using default values
  9138  200052                     	org	2097234
  9139  200052  FFFF               	dw	65535
  9140                           
  9141                           ;Config register IDLOC42 @ 0x200054
  9142                           ;	unspecified, using default values
  9143  200054                     	org	2097236
  9144  200054  FFFF               	dw	65535
  9145                           
  9146                           ;Config register IDLOC43 @ 0x200056
  9147                           ;	unspecified, using default values
  9148  200056                     	org	2097238
  9149  200056  FFFF               	dw	65535
  9150                           
  9151                           ;Config register IDLOC44 @ 0x200058
  9152                           ;	unspecified, using default values
  9153  200058                     	org	2097240
  9154  200058  FFFF               	dw	65535
  9155                           
  9156                           ;Config register IDLOC45 @ 0x20005A
  9157                           ;	unspecified, using default values
  9158  20005A                     	org	2097242
  9159  20005A  FFFF               	dw	65535
  9160                           
  9161                           ;Config register IDLOC46 @ 0x20005C
  9162                           ;	unspecified, using default values
  9163  20005C                     	org	2097244
  9164  20005C  FFFF               	dw	65535
  9165                           
  9166                           ;Config register IDLOC47 @ 0x20005E
  9167                           ;	unspecified, using default values
  9168  20005E                     	org	2097246
  9169  20005E  FFFF               	dw	65535
  9170                           
  9171                           ;Config register IDLOC48 @ 0x200060
  9172                           ;	unspecified, using default values
  9173  200060                     	org	2097248
  9174  200060  FFFF               	dw	65535
  9175                           
  9176                           ;Config register IDLOC49 @ 0x200062
  9177                           ;	unspecified, using default values
  9178  200062                     	org	2097250
  9179  200062  FFFF               	dw	65535
  9180                           
  9181                           ;Config register IDLOC50 @ 0x200064
  9182                           ;	unspecified, using default values
  9183  200064                     	org	2097252
  9184  200064  FFFF               	dw	65535
  9185                           
  9186                           ;Config register IDLOC51 @ 0x200066
  9187                           ;	unspecified, using default values
  9188  200066                     	org	2097254
  9189  200066  FFFF               	dw	65535
  9190                           
  9191                           ;Config register IDLOC52 @ 0x200068
  9192                           ;	unspecified, using default values
  9193  200068                     	org	2097256
  9194  200068  FFFF               	dw	65535
  9195                           
  9196                           ;Config register IDLOC53 @ 0x20006A
  9197                           ;	unspecified, using default values
  9198  20006A                     	org	2097258
  9199  20006A  FFFF               	dw	65535
  9200                           
  9201                           ;Config register IDLOC54 @ 0x20006C
  9202                           ;	unspecified, using default values
  9203  20006C                     	org	2097260
  9204  20006C  FFFF               	dw	65535
  9205                           
  9206                           ;Config register IDLOC55 @ 0x20006E
  9207                           ;	unspecified, using default values
  9208  20006E                     	org	2097262
  9209  20006E  FFFF               	dw	65535
  9210                           
  9211                           ;Config register IDLOC56 @ 0x200070
  9212                           ;	unspecified, using default values
  9213  200070                     	org	2097264
  9214  200070  FFFF               	dw	65535
  9215                           
  9216                           ;Config register IDLOC57 @ 0x200072
  9217                           ;	unspecified, using default values
  9218  200072                     	org	2097266
  9219  200072  FFFF               	dw	65535
  9220                           
  9221                           ;Config register IDLOC58 @ 0x200074
  9222                           ;	unspecified, using default values
  9223  200074                     	org	2097268
  9224  200074  FFFF               	dw	65535
  9225                           
  9226                           ;Config register IDLOC59 @ 0x200076
  9227                           ;	unspecified, using default values
  9228  200076                     	org	2097270
  9229  200076  FFFF               	dw	65535
  9230                           
  9231                           ;Config register IDLOC60 @ 0x200078
  9232                           ;	unspecified, using default values
  9233  200078                     	org	2097272
  9234  200078  FFFF               	dw	65535
  9235                           
  9236                           ;Config register IDLOC61 @ 0x20007A
  9237                           ;	unspecified, using default values
  9238  20007A                     	org	2097274
  9239  20007A  FFFF               	dw	65535
  9240                           
  9241                           ;Config register IDLOC62 @ 0x20007C
  9242                           ;	unspecified, using default values
  9243  20007C                     	org	2097276
  9244  20007C  FFFF               	dw	65535
  9245                           
  9246                           ;Config register IDLOC63 @ 0x20007E
  9247                           ;	unspecified, using default values
  9248  20007E                     	org	2097278
  9249  20007E  FFFF               	dw	65535
  9250                           
  9251                           ;Config register IDLOC64 @ 0x200080
  9252                           ;	unspecified, using default values
  9253  200080                     	org	2097280
  9254  200080  FFFF               	dw	65535
  9255                           
  9256                           ;Config register IDLOC65 @ 0x200082
  9257                           ;	unspecified, using default values
  9258  200082                     	org	2097282
  9259  200082  FFFF               	dw	65535
  9260                           
  9261                           ;Config register IDLOC66 @ 0x200084
  9262                           ;	unspecified, using default values
  9263  200084                     	org	2097284
  9264  200084  FFFF               	dw	65535
  9265                           
  9266                           ;Config register IDLOC67 @ 0x200086
  9267                           ;	unspecified, using default values
  9268  200086                     	org	2097286
  9269  200086  FFFF               	dw	65535
  9270                           
  9271                           ;Config register IDLOC68 @ 0x200088
  9272                           ;	unspecified, using default values
  9273  200088                     	org	2097288
  9274  200088  FFFF               	dw	65535
  9275                           
  9276                           ;Config register IDLOC69 @ 0x20008A
  9277                           ;	unspecified, using default values
  9278  20008A                     	org	2097290
  9279  20008A  FFFF               	dw	65535
  9280                           
  9281                           ;Config register IDLOC70 @ 0x20008C
  9282                           ;	unspecified, using default values
  9283  20008C                     	org	2097292
  9284  20008C  FFFF               	dw	65535
  9285                           
  9286                           ;Config register IDLOC71 @ 0x20008E
  9287                           ;	unspecified, using default values
  9288  20008E                     	org	2097294
  9289  20008E  FFFF               	dw	65535
  9290                           
  9291                           ;Config register IDLOC72 @ 0x200090
  9292                           ;	unspecified, using default values
  9293  200090                     	org	2097296
  9294  200090  FFFF               	dw	65535
  9295                           
  9296                           ;Config register IDLOC73 @ 0x200092
  9297                           ;	unspecified, using default values
  9298  200092                     	org	2097298
  9299  200092  FFFF               	dw	65535
  9300                           
  9301                           ;Config register IDLOC74 @ 0x200094
  9302                           ;	unspecified, using default values
  9303  200094                     	org	2097300
  9304  200094  FFFF               	dw	65535
  9305                           
  9306                           ;Config register IDLOC75 @ 0x200096
  9307                           ;	unspecified, using default values
  9308  200096                     	org	2097302
  9309  200096  FFFF               	dw	65535
  9310                           
  9311                           ;Config register IDLOC76 @ 0x200098
  9312                           ;	unspecified, using default values
  9313  200098                     	org	2097304
  9314  200098  FFFF               	dw	65535
  9315                           
  9316                           ;Config register IDLOC77 @ 0x20009A
  9317                           ;	unspecified, using default values
  9318  20009A                     	org	2097306
  9319  20009A  FFFF               	dw	65535
  9320                           
  9321                           ;Config register IDLOC78 @ 0x20009C
  9322                           ;	unspecified, using default values
  9323  20009C                     	org	2097308
  9324  20009C  FFFF               	dw	65535
  9325                           
  9326                           ;Config register IDLOC79 @ 0x20009E
  9327                           ;	unspecified, using default values
  9328  20009E                     	org	2097310
  9329  20009E  FFFF               	dw	65535
  9330                           
  9331                           ;Config register IDLOC80 @ 0x2000A0
  9332                           ;	unspecified, using default values
  9333  2000A0                     	org	2097312
  9334  2000A0  FFFF               	dw	65535
  9335                           
  9336                           ;Config register IDLOC81 @ 0x2000A2
  9337                           ;	unspecified, using default values
  9338  2000A2                     	org	2097314
  9339  2000A2  FFFF               	dw	65535
  9340                           
  9341                           ;Config register IDLOC82 @ 0x2000A4
  9342                           ;	unspecified, using default values
  9343  2000A4                     	org	2097316
  9344  2000A4  FFFF               	dw	65535
  9345                           
  9346                           ;Config register IDLOC83 @ 0x2000A6
  9347                           ;	unspecified, using default values
  9348  2000A6                     	org	2097318
  9349  2000A6  FFFF               	dw	65535
  9350                           
  9351                           ;Config register IDLOC84 @ 0x2000A8
  9352                           ;	unspecified, using default values
  9353  2000A8                     	org	2097320
  9354  2000A8  FFFF               	dw	65535
  9355                           
  9356                           ;Config register IDLOC85 @ 0x2000AA
  9357                           ;	unspecified, using default values
  9358  2000AA                     	org	2097322
  9359  2000AA  FFFF               	dw	65535
  9360                           
  9361                           ;Config register IDLOC86 @ 0x2000AC
  9362                           ;	unspecified, using default values
  9363  2000AC                     	org	2097324
  9364  2000AC  FFFF               	dw	65535
  9365                           
  9366                           ;Config register IDLOC87 @ 0x2000AE
  9367                           ;	unspecified, using default values
  9368  2000AE                     	org	2097326
  9369  2000AE  FFFF               	dw	65535
  9370                           
  9371                           ;Config register IDLOC88 @ 0x2000B0
  9372                           ;	unspecified, using default values
  9373  2000B0                     	org	2097328
  9374  2000B0  FFFF               	dw	65535
  9375                           
  9376                           ;Config register IDLOC89 @ 0x2000B2
  9377                           ;	unspecified, using default values
  9378  2000B2                     	org	2097330
  9379  2000B2  FFFF               	dw	65535
  9380                           
  9381                           ;Config register IDLOC90 @ 0x2000B4
  9382                           ;	unspecified, using default values
  9383  2000B4                     	org	2097332
  9384  2000B4  FFFF               	dw	65535
  9385                           
  9386                           ;Config register IDLOC91 @ 0x2000B6
  9387                           ;	unspecified, using default values
  9388  2000B6                     	org	2097334
  9389  2000B6  FFFF               	dw	65535
  9390                           
  9391                           ;Config register IDLOC92 @ 0x2000B8
  9392                           ;	unspecified, using default values
  9393  2000B8                     	org	2097336
  9394  2000B8  FFFF               	dw	65535
  9395                           
  9396                           ;Config register IDLOC93 @ 0x2000BA
  9397                           ;	unspecified, using default values
  9398  2000BA                     	org	2097338
  9399  2000BA  FFFF               	dw	65535
  9400                           
  9401                           ;Config register IDLOC94 @ 0x2000BC
  9402                           ;	unspecified, using default values
  9403  2000BC                     	org	2097340
  9404  2000BC  FFFF               	dw	65535
  9405                           
  9406                           ;Config register IDLOC95 @ 0x2000BE
  9407                           ;	unspecified, using default values
  9408  2000BE                     	org	2097342
  9409  2000BE  FFFF               	dw	65535
  9410                           
  9411                           ;Config register IDLOC96 @ 0x2000C0
  9412                           ;	unspecified, using default values
  9413  2000C0                     	org	2097344
  9414  2000C0  FFFF               	dw	65535
  9415                           
  9416                           ;Config register IDLOC97 @ 0x2000C2
  9417                           ;	unspecified, using default values
  9418  2000C2                     	org	2097346
  9419  2000C2  FFFF               	dw	65535
  9420                           
  9421                           ;Config register IDLOC98 @ 0x2000C4
  9422                           ;	unspecified, using default values
  9423  2000C4                     	org	2097348
  9424  2000C4  FFFF               	dw	65535
  9425                           
  9426                           ;Config register IDLOC99 @ 0x2000C6
  9427                           ;	unspecified, using default values
  9428  2000C6                     	org	2097350
  9429  2000C6  FFFF               	dw	65535
  9430                           
  9431                           ;Config register IDLOC100 @ 0x2000C8
  9432                           ;	unspecified, using default values
  9433  2000C8                     	org	2097352
  9434  2000C8  FFFF               	dw	65535
  9435                           
  9436                           ;Config register IDLOC101 @ 0x2000CA
  9437                           ;	unspecified, using default values
  9438  2000CA                     	org	2097354
  9439  2000CA  FFFF               	dw	65535
  9440                           
  9441                           ;Config register IDLOC102 @ 0x2000CC
  9442                           ;	unspecified, using default values
  9443  2000CC                     	org	2097356
  9444  2000CC  FFFF               	dw	65535
  9445                           
  9446                           ;Config register IDLOC103 @ 0x2000CE
  9447                           ;	unspecified, using default values
  9448  2000CE                     	org	2097358
  9449  2000CE  FFFF               	dw	65535
  9450                           
  9451                           ;Config register IDLOC104 @ 0x2000D0
  9452                           ;	unspecified, using default values
  9453  2000D0                     	org	2097360
  9454  2000D0  FFFF               	dw	65535
  9455                           
  9456                           ;Config register IDLOC105 @ 0x2000D2
  9457                           ;	unspecified, using default values
  9458  2000D2                     	org	2097362
  9459  2000D2  FFFF               	dw	65535
  9460                           
  9461                           ;Config register IDLOC106 @ 0x2000D4
  9462                           ;	unspecified, using default values
  9463  2000D4                     	org	2097364
  9464  2000D4  FFFF               	dw	65535
  9465                           
  9466                           ;Config register IDLOC107 @ 0x2000D6
  9467                           ;	unspecified, using default values
  9468  2000D6                     	org	2097366
  9469  2000D6  FFFF               	dw	65535
  9470                           
  9471                           ;Config register IDLOC108 @ 0x2000D8
  9472                           ;	unspecified, using default values
  9473  2000D8                     	org	2097368
  9474  2000D8  FFFF               	dw	65535
  9475                           
  9476                           ;Config register IDLOC109 @ 0x2000DA
  9477                           ;	unspecified, using default values
  9478  2000DA                     	org	2097370
  9479  2000DA  FFFF               	dw	65535
  9480                           
  9481                           ;Config register IDLOC110 @ 0x2000DC
  9482                           ;	unspecified, using default values
  9483  2000DC                     	org	2097372
  9484  2000DC  FFFF               	dw	65535
  9485                           
  9486                           ;Config register IDLOC111 @ 0x2000DE
  9487                           ;	unspecified, using default values
  9488  2000DE                     	org	2097374
  9489  2000DE  FFFF               	dw	65535
  9490                           
  9491                           ;Config register IDLOC112 @ 0x2000E0
  9492                           ;	unspecified, using default values
  9493  2000E0                     	org	2097376
  9494  2000E0  FFFF               	dw	65535
  9495                           
  9496                           ;Config register IDLOC113 @ 0x2000E2
  9497                           ;	unspecified, using default values
  9498  2000E2                     	org	2097378
  9499  2000E2  FFFF               	dw	65535
  9500                           
  9501                           ;Config register IDLOC114 @ 0x2000E4
  9502                           ;	unspecified, using default values
  9503  2000E4                     	org	2097380
  9504  2000E4  FFFF               	dw	65535
  9505                           
  9506                           ;Config register IDLOC115 @ 0x2000E6
  9507                           ;	unspecified, using default values
  9508  2000E6                     	org	2097382
  9509  2000E6  FFFF               	dw	65535
  9510                           
  9511                           ;Config register IDLOC116 @ 0x2000E8
  9512                           ;	unspecified, using default values
  9513  2000E8                     	org	2097384
  9514  2000E8  FFFF               	dw	65535
  9515                           
  9516                           ;Config register IDLOC117 @ 0x2000EA
  9517                           ;	unspecified, using default values
  9518  2000EA                     	org	2097386
  9519  2000EA  FFFF               	dw	65535
  9520                           
  9521                           ;Config register IDLOC118 @ 0x2000EC
  9522                           ;	unspecified, using default values
  9523  2000EC                     	org	2097388
  9524  2000EC  FFFF               	dw	65535
  9525                           
  9526                           ;Config register IDLOC119 @ 0x2000EE
  9527                           ;	unspecified, using default values
  9528  2000EE                     	org	2097390
  9529  2000EE  FFFF               	dw	65535
  9530                           
  9531                           ;Config register IDLOC120 @ 0x2000F0
  9532                           ;	unspecified, using default values
  9533  2000F0                     	org	2097392
  9534  2000F0  FFFF               	dw	65535
  9535                           
  9536                           ;Config register IDLOC121 @ 0x2000F2
  9537                           ;	unspecified, using default values
  9538  2000F2                     	org	2097394
  9539  2000F2  FFFF               	dw	65535
  9540                           
  9541                           ;Config register IDLOC122 @ 0x2000F4
  9542                           ;	unspecified, using default values
  9543  2000F4                     	org	2097396
  9544  2000F4  FFFF               	dw	65535
  9545                           
  9546                           ;Config register IDLOC123 @ 0x2000F6
  9547                           ;	unspecified, using default values
  9548  2000F6                     	org	2097398
  9549  2000F6  FFFF               	dw	65535
  9550                           
  9551                           ;Config register IDLOC124 @ 0x2000F8
  9552                           ;	unspecified, using default values
  9553  2000F8                     	org	2097400
  9554  2000F8  FFFF               	dw	65535
  9555                           
  9556                           ;Config register IDLOC125 @ 0x2000FA
  9557                           ;	unspecified, using default values
  9558  2000FA                     	org	2097402
  9559  2000FA  FFFF               	dw	65535
  9560                           
  9561                           ;Config register IDLOC126 @ 0x2000FC
  9562                           ;	unspecified, using default values
  9563  2000FC                     	org	2097404
  9564  2000FC  FFFF               	dw	65535
  9565                           
  9566                           ;Config register IDLOC127 @ 0x2000FE
  9567                           ;	unspecified, using default values
  9568  2000FE                     	org	2097406
  9569  2000FE  FFFF               	dw	65535
  9570                           
  9571                           	psect	config
  9572                           
  9573                           ;Config register CONFIG1L @ 0x300000
  9574                           ;	External Oscillator mode Selection bits
  9575                           ;	FEXTOSC = OFF, Oscillator not enabled
  9576                           ;	Power-up default value for COSC bits
  9577                           ;	RSTOSC = HFINTOSC_1MHZ, HFINTOSC with HFFRQ = 4 MHz and CDIV = 4:1
  9578  300000                     	org	3145728
  9579  300000  EC                 	db	236
  9580                           
  9581                           ;Config register CONFIG1H @ 0x300001
  9582                           ;	Clock Out Enable bit
  9583                           ;	CLKOUTEN = OFF, CLKOUT function is disabled
  9584                           ;	Clock Switch Enable bit
  9585                           ;	CSWEN = ON, Writing to NOSC and NDIV is allowed
  9586                           ;	Fail-Safe Clock Monitor Enable bit
  9587                           ;	FCMEN = ON, Fail-Safe Clock Monitor enabled
  9588  300001                     	org	3145729
  9589  300001  FF                 	db	255
  9590                           
  9591                           ;Config register CONFIG2L @ 0x300002
  9592                           ;	Master Clear Enable bit
  9593                           ;	MCLRE = EXTMCLR, MCLR pin (RE3) is MCLR
  9594                           ;	Power-up Timer Enable bit
  9595                           ;	PWRTE = OFF, Power up timer disabled
  9596                           ;	Low-power BOR enable bit
  9597                           ;	LPBOREN = OFF, Low power BOR is disabled
  9598                           ;	Brown-out Reset Enable bits
  9599                           ;	BOREN = SBORDIS, Brown-out Reset enabled , SBOREN bit is ignored
  9600  300002                     	org	3145730
  9601  300002  FF                 	db	255
  9602                           
  9603                           ;Config register CONFIG2H @ 0x300003
  9604                           ;	Brown Out Reset Voltage selection bits
  9605                           ;	BORV = VBOR_190, Brown-out Reset Voltage (VBOR) set to 1.90V
  9606                           ;	ZCD Disable bit
  9607                           ;	ZCD = OFF, ZCD disabled. ZCD can be enabled by setting the ZCDSEN bit of ZCDCON
  9608                           ;	PPSLOCK bit One-Way Set Enable bit
  9609                           ;	PPS1WAY = ON, PPSLOCK bit can be cleared and set only once; PPS registers remain locke
      +                          d after one clear/set cycle
  9610                           ;	Stack Full/Underflow Reset Enable bit
  9611                           ;	STVREN = ON, Stack full/underflow will cause Reset
  9612                           ;	Extended Instruction Set Enable bit
  9613                           ;	XINST = OFF, Extended Instruction Set and Indexed Addressing Mode disabled
  9614  300003                     	org	3145731
  9615  300003  FF                 	db	255
  9616                           
  9617                           ;Config register CONFIG3L @ 0x300004
  9618                           ;	WDT Period Select bits
  9619                           ;	WDTCPS = WDTCPS_31, Divider ratio 1:65536; software control of WDTPS
  9620                           ;	WDT operating mode
  9621                           ;	WDTE = OFF, WDT Disabled
  9622  300004                     	org	3145732
  9623  300004  9F                 	db	159
  9624                           
  9625                           ;Config register CONFIG3H @ 0x300005
  9626                           ;	WDT Window Select bits
  9627                           ;	WDTCWS = WDTCWS_7, window always open (100%); software control; keyed access not requi
      +                          red
  9628                           ;	WDT input clock selector
  9629                           ;	WDTCCS = SC, Software Control
  9630  300005                     	org	3145733
  9631  300005  FF                 	db	255
  9632                           
  9633                           ;Config register CONFIG4L @ 0x300006
  9634                           ;	Write Protection Block 0
  9635                           ;	WRT0 = OFF, Block 0 (000800-003FFFh) not write-protected
  9636                           ;	Write Protection Block 1
  9637                           ;	WRT1 = OFF, Block 1 (004000-007FFFh) not write-protected
  9638                           ;	Write Protection Block 2
  9639                           ;	WRT2 = OFF, Block 2 (008000-00BFFFh) not write-protected
  9640                           ;	Write Protection Block 3
  9641                           ;	WRT3 = OFF, Block 3 (00C000-00FFFFh) not write-protected
  9642                           ;	Write Protection Block 4
  9643                           ;	WRT4 = 0x1, unprogrammed default
  9644                           ;	Write Protection Block 5
  9645                           ;	WRT5 = 0x1, unprogrammed default
  9646                           ;	Write Protection Block 6
  9647                           ;	WRT6 = 0x1, unprogrammed default
  9648                           ;	Write Protection Block 7
  9649                           ;	WRT7 = 0x1, unprogrammed default
  9650  300006                     	org	3145734
  9651  300006  FF                 	db	255
  9652                           
  9653                           ;Config register CONFIG4H @ 0x300007
  9654                           ;	Configuration Register Write Protection bit
  9655                           ;	WRTC = OFF, Configuration registers (300000-30000Bh) not write-protected
  9656                           ;	Boot Block Write Protection bit
  9657                           ;	WRTB = OFF, Boot Block (000000-0007FFh) not write-protected
  9658                           ;	Data EEPROM Write Protection bit
  9659                           ;	WRTD = OFF, Data EEPROM not write-protected
  9660                           ;	Scanner Enable bit
  9661                           ;	SCANE = ON, Scanner module is available for use, SCANMD bit can control the module
  9662                           ;	Low Voltage Programming Enable bit
  9663                           ;	LVP = ON, Low voltage programming enabled. MCLR/VPP pin function is MCLR. MCLRE config
      +                          uration bit is ignored
  9664  300007                     	org	3145735
  9665  300007  FF                 	db	255
  9666                           
  9667                           ;Config register CONFIG5L @ 0x300008
  9668                           ;	UserNVM Program Memory Code Protection bit
  9669                           ;	CP = OFF, UserNVM code protection disabled
  9670                           ;	DataNVM Memory Code Protection bit
  9671                           ;	CPD = OFF, DataNVM code protection disabled
  9672  300008                     	org	3145736
  9673  300008  FF                 	db	255
  9674                           
  9675                           ;Config register CONFIG5H @ 0x300009
  9676                           ;	unspecified, using default values
  9677  300009                     	org	3145737
  9678  300009  FF                 	db	255
  9679                           
  9680                           ;Config register CONFIG6L @ 0x30000A
  9681                           ;	Table Read Protection Block 0
  9682                           ;	EBTR0 = OFF, Block 0 (000800-003FFFh) not protected from table reads executed in other
      +                           blocks
  9683                           ;	Table Read Protection Block 1
  9684                           ;	EBTR1 = OFF, Block 1 (004000-007FFFh) not protected from table reads executed in other
      +                           blocks
  9685                           ;	Table Read Protection Block 2
  9686                           ;	EBTR2 = OFF, Block 2 (008000-00BFFFh) not protected from table reads executed in other
      +                           blocks
  9687                           ;	Table Read Protection Block 3
  9688                           ;	EBTR3 = OFF, Block 3 (00C000-00FFFFh) not protected from table reads executed in other
      +                           blocks
  9689                           ;	Table Read Protection Block 4
  9690                           ;	EBTR4 = 0x1, unprogrammed default
  9691                           ;	Table Read Protection Block 5
  9692                           ;	EBTR5 = 0x1, unprogrammed default
  9693                           ;	Table Read Protection Block 6
  9694                           ;	EBTR6 = 0x1, unprogrammed default
  9695                           ;	Table Read Protection Block 7
  9696                           ;	EBTR7 = 0x1, unprogrammed default
  9697  30000A                     	org	3145738
  9698  30000A  FF                 	db	255
  9699                           
  9700                           ;Config register CONFIG6H @ 0x30000B
  9701                           ;	Boot Block Table Read Protection bit
  9702                           ;	EBTRB = OFF, Boot Block (000000-0007FFh) not protected from table reads executed in ot
      +                          her blocks
  9703  30000B                     	org	3145739
  9704  30000B  FF                 	db	255
  9705                           tosu	equ	0xFFF
  9706                           tosh	equ	0xFFE
  9707                           tosl	equ	0xFFD
  9708                           stkptr	equ	0xFFC
  9709                           pclatu	equ	0xFFB
  9710                           pclath	equ	0xFFA
  9711                           pcl	equ	0xFF9
  9712                           tblptru	equ	0xFF8
  9713                           tblptrh	equ	0xFF7
  9714                           tblptrl	equ	0xFF6
  9715                           tablat	equ	0xFF5
  9716                           prodh	equ	0xFF4
  9717                           prodl	equ	0xFF3
  9718                           indf0	equ	0xFEF
  9719                           postinc0	equ	0xFEE
  9720                           postdec0	equ	0xFED
  9721                           preinc0	equ	0xFEC
  9722                           plusw0	equ	0xFEB
  9723                           fsr0h	equ	0xFEA
  9724                           fsr0l	equ	0xFE9
  9725                           wreg	equ	0xFE8
  9726                           indf1	equ	0xFE7
  9727                           postinc1	equ	0xFE6
  9728                           postdec1	equ	0xFE5
  9729                           preinc1	equ	0xFE4
  9730                           plusw1	equ	0xFE3
  9731                           fsr1h	equ	0xFE2
  9732                           fsr1l	equ	0xFE1
  9733                           bsr	equ	0xFE0
  9734                           indf2	equ	0xFDF
  9735                           postinc2	equ	0xFDE
  9736                           postdec2	equ	0xFDD
  9737                           preinc2	equ	0xFDC
  9738                           plusw2	equ	0xFDB
  9739                           fsr2h	equ	0xFDA
  9740                           fsr2l	equ	0xFD9
  9741                           status	equ	0xFD8

Data Sizes:
    Strings     34
    Constant    80
    Data        0
    BSS         643
    Persistent  16
    Stack       0

Auto Spaces:
    Space          Size  Autos    Used
    COMRAM           94     45      69
    BANK0           160     71     160
    BANK1           256     10      10
    BANK2           256      0      32
    BANK3           256      0     256
    BANK4           256    256     256
    BANK5           256      0       0
    BANK6           256      0       0
    BANK7           256      0       0
    BANK8           256      0       0
    BANK9           256      0       0
    BANK10          256      0       0
    BANK11          256      0       0
    BANK12          256      0       0
    BANK14           31      0       0

Pointer List with Targets:

    I2C1_WriteByte@data.data	PTR unsigned char  size(2) Largest target is 0
		 -> main@framDataArray(BANK4[256]), 

    I2C1_ReadByte@returnValue.data	PTR unsigned char  size(2) Largest target is 0
		 -> main@framDataArray(BANK4[256]), 

    FRAM_WriteByte@data.data	PTR unsigned char  size(2) Largest target is 0
		 -> main@framDataArray(BANK4[256]), 

    FRAM_ReadByte@returnValue.data	PTR unsigned char  size(2) Largest target is 0
		 -> main@framDataArray(BANK4[256]), 

    I2C1_DO_TX$2611$0	PTR void  size(2) Largest target is 5
		 -> FRAM_ReadByte@returnValue(COMRAM[1]), FRAM_ReadNBytes@bufferBlock(BANK0[4]), FRAM_WriteByte@data(COMRAM[1]), I2C1_ReadByte@returnValue(COMRAM[1]), 
		 -> I2C1_ReadNBytes@bufferBlock(COMRAM[4]), I2C1_WriteByte@data(COMRAM[1]), NULL(NULL[0]), 

    I2C1_DO_RX$2617$0	PTR void  size(2) Largest target is 5
		 -> FRAM_ReadByte@returnValue(COMRAM[1]), FRAM_ReadNBytes@bufferBlock(BANK0[4]), FRAM_WriteByte@data(COMRAM[1]), I2C1_ReadByte@returnValue(COMRAM[1]), 
		 -> I2C1_ReadNBytes@bufferBlock(COMRAM[4]), I2C1_WriteByte@data(COMRAM[1]), NULL(NULL[0]), 

    I2C1_DO_TX_EMPTY$2623$0	PTR void  size(2) Largest target is 5
		 -> FRAM_ReadByte@returnValue(COMRAM[1]), FRAM_ReadNBytes@bufferBlock(BANK0[4]), FRAM_WriteByte@data(COMRAM[1]), I2C1_ReadByte@returnValue(COMRAM[1]), 
		 -> I2C1_ReadNBytes@bufferBlock(COMRAM[4]), I2C1_WriteByte@data(COMRAM[1]), NULL(NULL[0]), 

    I2C1_DO_RX_EMPTY$2629$0	PTR void  size(2) Largest target is 5
		 -> FRAM_ReadByte@returnValue(COMRAM[1]), FRAM_ReadNBytes@bufferBlock(BANK0[4]), FRAM_WriteByte@data(COMRAM[1]), I2C1_ReadByte@returnValue(COMRAM[1]), 
		 -> I2C1_ReadNBytes@bufferBlock(COMRAM[4]), I2C1_WriteByte@data(COMRAM[1]), NULL(NULL[0]), 

    I2C1_DO_TX_EMPTY$2628	PTR void  size(2) Largest target is 5
		 -> FRAM_ReadByte@returnValue(COMRAM[1]), FRAM_ReadNBytes@bufferBlock(BANK0[4]), FRAM_WriteByte@data(COMRAM[1]), I2C1_ReadByte@returnValue(COMRAM[1]), 
		 -> I2C1_ReadNBytes@bufferBlock(COMRAM[4]), I2C1_WriteByte@data(COMRAM[1]), NULL(NULL[0]), 

    I2C1_DO_TX_EMPTY$2623	PTR FTN(PTR void ,)enum E360 size(3) Largest target is 1
		 -> rd1RegCompleteHandler@MB85RC256V$F1625(), rdBlkRegCompleteHandler@MB85RC256V$F1619(), wr1RegCompleteHandler@MB85RC256V$F1610(), I2C1_CallbackReturnReset(), 
		 -> I2C1_CallbackReturnStop(), Absolute function(), rd1RegCompleteHandler(), rdBlkRegCompleteHandler(), 
		 -> wr1RegCompleteHandler(), 

    I2C1_DO_RX$2622	PTR void  size(2) Largest target is 5
		 -> FRAM_ReadByte@returnValue(COMRAM[1]), FRAM_ReadNBytes@bufferBlock(BANK0[4]), FRAM_WriteByte@data(COMRAM[1]), I2C1_ReadByte@returnValue(COMRAM[1]), 
		 -> I2C1_ReadNBytes@bufferBlock(COMRAM[4]), I2C1_WriteByte@data(COMRAM[1]), NULL(NULL[0]), 

    I2C1_DO_RX$2617	PTR FTN(PTR void ,)enum E360 size(3) Largest target is 1
		 -> rd1RegCompleteHandler@MB85RC256V$F1625(), rdBlkRegCompleteHandler@MB85RC256V$F1619(), wr1RegCompleteHandler@MB85RC256V$F1610(), I2C1_CallbackReturnReset(), 
		 -> I2C1_CallbackReturnStop(), Absolute function(), rd1RegCompleteHandler(), rdBlkRegCompleteHandler(), 
		 -> wr1RegCompleteHandler(), 

    I2C1_DO_TX$2616	PTR void  size(2) Largest target is 5
		 -> FRAM_ReadByte@returnValue(COMRAM[1]), FRAM_ReadNBytes@bufferBlock(BANK0[4]), FRAM_WriteByte@data(COMRAM[1]), I2C1_ReadByte@returnValue(COMRAM[1]), 
		 -> I2C1_ReadNBytes@bufferBlock(COMRAM[4]), I2C1_WriteByte@data(COMRAM[1]), NULL(NULL[0]), 

    I2C1_DO_TX$2611	PTR FTN(PTR void ,)enum E360 size(3) Largest target is 1
		 -> rd1RegCompleteHandler@MB85RC256V$F1625(), rdBlkRegCompleteHandler@MB85RC256V$F1619(), wr1RegCompleteHandler@MB85RC256V$F1610(), I2C1_CallbackReturnReset(), 
		 -> I2C1_CallbackReturnStop(), Absolute function(), rd1RegCompleteHandler(), rdBlkRegCompleteHandler(), 
		 -> wr1RegCompleteHandler(), 

    I2C1_MasterFsm$2610	const PTR FTN()enum E13082 size(3) Largest target is 1
		 -> I2C1_DO_ADDRESS_NACK(), I2C1_DO_RESET(), I2C1_DO_RX_NACK_RESTART(), I2C1_DO_RX_NACK_STOP(), 
		 -> I2C1_DO_RX_ACK(), I2C1_DO_SEND_STOP(), I2C1_DO_SEND_RESTART(), I2C1_DO_SEND_RESTART_WRITE(), 
		 -> I2C1_DO_SEND_RESTART_READ(), I2C1_DO_TX_EMPTY(), I2C1_DO_RCEN(), I2C1_DO_RX(), 
		 -> I2C1_DO_TX(), I2C1_DO_SEND_ADR_WRITE(), I2C1_DO_SEND_ADR_READ(), I2C1_DO_IDLE(), 

    S36$4$0	PTR FTN()void  size(3) Largest target is 1
		 -> EUSART2_Transmit_ISR(), 

    S36$6$0	PTR FTN()void  size(3) Largest target is 1
		 -> EUSART2_Receive_ISR(), 

    I2C1_CallbackReturnStop@funPtr	PTR void  size(2) Largest target is 5
		 -> FRAM_ReadByte@returnValue(COMRAM[1]), FRAM_ReadNBytes@bufferBlock(BANK0[4]), FRAM_WriteByte@data(COMRAM[1]), I2C1_ReadByte@returnValue(COMRAM[1]), 
		 -> I2C1_ReadNBytes@bufferBlock(COMRAM[4]), I2C1_WriteByte@data(COMRAM[1]), NULL(NULL[0]), 

    I2C1_CallbackReturnReset@funPtr	PTR void  size(2) Largest target is 5
		 -> FRAM_ReadByte@returnValue(COMRAM[1]), FRAM_ReadNBytes@bufferBlock(BANK0[4]), FRAM_WriteByte@data(COMRAM[1]), I2C1_ReadByte@returnValue(COMRAM[1]), 
		 -> I2C1_ReadNBytes@bufferBlock(COMRAM[4]), I2C1_WriteByte@data(COMRAM[1]), NULL(NULL[0]), 

    cb$0	PTR void  size(2) Largest target is 5
		 -> FRAM_ReadByte@returnValue(COMRAM[1]), FRAM_ReadNBytes@bufferBlock(BANK0[4]), FRAM_WriteByte@data(COMRAM[1]), I2C1_ReadByte@returnValue(COMRAM[1]), 
		 -> I2C1_ReadNBytes@bufferBlock(COMRAM[4]), I2C1_WriteByte@data(COMRAM[1]), NULL(NULL[0]), 

    Absolute function$0	PTR void  size(2) Largest target is 5
		 -> FRAM_ReadByte@returnValue(COMRAM[1]), FRAM_ReadNBytes@bufferBlock(BANK0[4]), FRAM_WriteByte@data(COMRAM[1]), I2C1_ReadByte@returnValue(COMRAM[1]), 
		 -> I2C1_ReadNBytes@bufferBlock(COMRAM[4]), I2C1_WriteByte@data(COMRAM[1]), NULL(NULL[0]), 

    cb$0	PTR void  size(2) Largest target is 5
		 -> FRAM_ReadByte@returnValue(COMRAM[1]), FRAM_ReadNBytes@bufferBlock(BANK0[4]), FRAM_WriteByte@data(COMRAM[1]), I2C1_ReadByte@returnValue(COMRAM[1]), 
		 -> I2C1_ReadNBytes@bufferBlock(COMRAM[4]), I2C1_WriteByte@data(COMRAM[1]), NULL(NULL[0]), 

    ?___simple_search_fl...next	PTR struct chunk size(2) Largest target is 0

    S762$0$0	PTR void  size(2) Largest target is 5
		 -> FRAM_ReadByte@returnValue(COMRAM[1]), FRAM_ReadNBytes@bufferBlock(BANK0[4]), FRAM_WriteByte@data(COMRAM[1]), I2C1_ReadByte@returnValue(COMRAM[1]), 
		 -> I2C1_ReadNBytes@bufferBlock(COMRAM[4]), I2C1_WriteByte@data(COMRAM[1]), NULL(NULL[0]), 

    strlen@s	PTR const unsigned char  size(2) Largest target is 32
		 -> dbuf(BANK2[32]), 

    strlen@a	PTR const unsigned char  size(2) Largest target is 32
		 -> dbuf(BANK2[32]), 

    fputs@s	PTR const unsigned char  size(2) Largest target is 32
		 -> dbuf(BANK2[32]), 

    fputs@fp	PTR struct _IO_FILE size(2) Largest target is 0
		 -> NULL(NULL[0]), 

    S2229$source	PTR const unsigned char  size(2) Largest target is 0

    fputc@fp...source	PTR const unsigned char  size(2) Largest target is 0

    S2229$buffer	PTR unsigned char  size(2) Largest target is 0

    fputc@fp...buffer	PTR unsigned char  size(2) Largest target is 0

    fputc@fp	PTR struct _IO_FILE size(2) Largest target is 0
		 -> NULL(NULL[0]), 

    vfprintf@ap	PTR PTR void  size(2) Largest target is 2
		 -> printf@ap(BANK1[2]), 

    vfprintf@fp	PTR struct _IO_FILE size(2) Largest target is 0
		 -> NULL(NULL[0]), 

    vfprintf@fmt	PTR const unsigned char  size(2) Largest target is 20
		 -> STR_2(CODE[20]), STR_1(CODE[14]), 

    vfprintf@cfmt	PTR unsigned char  size(2) Largest target is 20
		 -> STR_2(CODE[20]), STR_1(CODE[14]), 

    vfpfcnvrt@fp	PTR struct _IO_FILE size(2) Largest target is 0
		 -> NULL(NULL[0]), 

    vfpfcnvrt@ap	PTR PTR void  size(2) Largest target is 2
		 -> printf@ap(BANK1[2]), 

    vfpfcnvrt@fmt	PTR PTR unsigned char  size(2) Largest target is 2
		 -> vfprintf@cfmt(BANK0[2]), 

    dtoa@fp	PTR struct _IO_FILE size(2) Largest target is 0
		 -> NULL(NULL[0]), 

    pad@fp	PTR struct _IO_FILE size(2) Largest target is 0
		 -> NULL(NULL[0]), 

    pad@buf	PTR unsigned char  size(2) Largest target is 32
		 -> dbuf(BANK2[32]), 

    printf@fmt	PTR const unsigned char  size(2) Largest target is 20
		 -> STR_2(CODE[20]), STR_1(CODE[14]), 

    printf@ap	PTR void [1] size(2) Largest target is 2
		 -> ?_printf(BANK1[2]), 

    memset@dest	PTR void  size(2) Largest target is 258
		 -> seqWriteBuffer(BIGRAM[258]), main@framDataArray(BANK4[256]), 

    memset@s	PTR unsigned char  size(2) Largest target is 258
		 -> seqWriteBuffer(BIGRAM[258]), main@framDataArray(BANK4[256]), 

    memcpy@d1	PTR void  size(2) Largest target is 3614
		 -> __heap_hi(UNKNOWN), RAM(DATA[3614]), seqWriteBuffer(BIGRAM[258]), NULL(NULL[0]), 

    memcpy@d	PTR unsigned char  size(2) Largest target is 3614
		 -> __heap_hi(UNKNOWN), RAM(DATA[3614]), seqWriteBuffer(BIGRAM[258]), NULL(NULL[0]), 

    memcpy@s1	PTR const void  size(2) Largest target is 256
		 -> main@framDataArray(BANK4[256]), 

    memcpy@s	PTR const unsigned char  size(2) Largest target is 256
		 -> main@framDataArray(BANK4[256]), 

    free@c.....next	PTR struct chunk size(2) Largest target is 0

    free@c...next	PTR struct chunk size(2) Largest target is 0

    __simple_search_fl@best_last.....next	PTR struct chunk size(2) Largest target is 0

    __simple_search_fl@split.....next	PTR struct chunk size(2) Largest target is 0

    __simple_search_fl@split...next	PTR struct chunk size(2) Largest target is 0

    __simple_search_fl@next...next	PTR struct chunk size(2) Largest target is 0

    __simple_search_fl@best_last...next	PTR struct chunk size(2) Largest target is 0

    __simple_search_fl@best...next	PTR struct chunk size(2) Largest target is 0

    sp____simple_search_fl...next	PTR struct chunk size(2) Largest target is 0

    __freelist...next	PTR struct chunk size(2) Largest target is 0

    __simple_search_fl@last.....next	PTR struct chunk size(2) Largest target is 0

    __simple_search_fl@last...next	PTR struct chunk size(2) Largest target is 0

    S2140$next	PTR struct chunk size(2) Largest target is 0

    __simple_search_fl@c...next	PTR struct chunk size(2) Largest target is 0

    __freelist	PTR struct chunk size(2) Largest target is 0
		 -> NULL(NULL[0]), 

    brkp	PTR unsigned char  size(2) Largest target is 0
		 -> __heap_hi(UNKNOWN), NULL(NULL[0]), 

    sp____expand_heap	PTR void  size(2) Largest target is 0
		 -> __heap_hi(UNKNOWN), NULL(NULL[0]), 

    malloc@end	PTR unsigned char  size(2) Largest target is 3614
		 -> __heap_hi(UNKNOWN), RAM(DATA[3614]), NULL(NULL[0]), 

    sp____simple_search_fl	PTR void  size(2) Largest target is 0
		 -> NULL(NULL[0]), 

    malloc@cur	PTR unsigned char  size(2) Largest target is 3614
		 -> __heap_hi(UNKNOWN), RAM(DATA[3614]), NULL(NULL[0]), 

    rdBlkRegCompleteHandler@MB85RC256V$F1619@ptr.data	PTR unsigned char  size(2) Largest target is 256
		 -> main@framDataArray(BANK4[256]), 

    rdBlkRegCompleteHandler@MB85RC256V$F1619@ptr	PTR void  size(2) Largest target is 5
		 -> FRAM_ReadByte@returnValue(COMRAM[1]), FRAM_ReadNBytes@bufferBlock(BANK0[4]), FRAM_WriteByte@data(COMRAM[1]), I2C1_ReadByte@returnValue(COMRAM[1]), 
		 -> I2C1_ReadNBytes@bufferBlock(COMRAM[4]), I2C1_WriteByte@data(COMRAM[1]), NULL(NULL[0]), 

    rd1RegCompleteHandler@MB85RC256V$F1625@ptr	PTR void  size(2) Largest target is 5
		 -> FRAM_ReadByte@returnValue(COMRAM[1]), FRAM_ReadNBytes@bufferBlock(BANK0[4]), FRAM_WriteByte@data(COMRAM[1]), I2C1_ReadByte@returnValue(COMRAM[1]), 
		 -> I2C1_ReadNBytes@bufferBlock(COMRAM[4]), I2C1_WriteByte@data(COMRAM[1]), NULL(NULL[0]), 

    wr1RegCompleteHandler@MB85RC256V$F1610@ptr	PTR void  size(2) Largest target is 5
		 -> FRAM_ReadByte@returnValue(COMRAM[1]), FRAM_ReadNBytes@bufferBlock(BANK0[4]), FRAM_WriteByte@data(COMRAM[1]), I2C1_ReadByte@returnValue(COMRAM[1]), 
		 -> I2C1_ReadNBytes@bufferBlock(COMRAM[4]), I2C1_WriteByte@data(COMRAM[1]), NULL(NULL[0]), 

    FRAM_ReadNBytes@receiveBuffer	PTR unsigned char  size(2) Largest target is 256
		 -> main@framDataArray(BANK4[256]), 

    bufferBlock.data	PTR unsigned char  size(2) Largest target is 256
		 -> main@framDataArray(BANK4[256]), 

    FRAM_WriteNBytes@data	PTR unsigned char  size(2) Largest target is 256
		 -> main@framDataArray(BANK4[256]), 

    sp__memset	PTR void  size(2) Largest target is 258
		 -> seqWriteBuffer(BIGRAM[258]), main@framDataArray(BANK4[256]), 

    I2C1_SetCallback@ptr	PTR void  size(2) Largest target is 5
		 -> FRAM_ReadByte@returnValue(COMRAM[1]), FRAM_ReadNBytes@bufferBlock(BANK0[4]), FRAM_WriteByte@data(COMRAM[1]), I2C1_ReadByte@returnValue(COMRAM[1]), 
		 -> I2C1_ReadNBytes@bufferBlock(COMRAM[4]), I2C1_WriteByte@data(COMRAM[1]), NULL(NULL[0]), 

    I2C1_SetCallback@cb	PTR FTN(PTR void ,)enum E360 size(3) Largest target is 1
		 -> rd1RegCompleteHandler@MB85RC256V$F1625(), rdBlkRegCompleteHandler@MB85RC256V$F1619(), wr1RegCompleteHandler@MB85RC256V$F1610(), Absolute function(), 
		 -> rd1RegCompleteHandler(), rdBlkRegCompleteHandler(), wr1RegCompleteHandler(), 

    I2C1_SetInterruptHandler@InterruptHandler	PTR FTN()void  size(3) Largest target is 1
		 -> I2C1_MasterIsr(), 

    I2C1_SetAddressNackCallback@ptr	PTR void  size(2) Largest target is 0
		 -> NULL(NULL[0]), 

    I2C1_SetAddressNackCallback@cb	PTR FTN(PTR void ,)enum E360 size(3) Largest target is 1
		 -> Absolute function(), 

    I2C1_SetDataCompleteCallback@ptr	PTR void  size(2) Largest target is 5
		 -> FRAM_ReadByte@returnValue(COMRAM[1]), FRAM_ReadNBytes@bufferBlock(BANK0[4]), FRAM_WriteByte@data(COMRAM[1]), I2C1_ReadByte@returnValue(COMRAM[1]), 
		 -> I2C1_ReadNBytes@bufferBlock(COMRAM[4]), I2C1_WriteByte@data(COMRAM[1]), NULL(NULL[0]), 

    I2C1_SetDataCompleteCallback@cb	PTR FTN(PTR void ,)enum E360 size(3) Largest target is 1
		 -> rd1RegCompleteHandler@MB85RC256V$F1625(), rdBlkRegCompleteHandler@MB85RC256V$F1619(), wr1RegCompleteHandler@MB85RC256V$F1610(), Absolute function(), 
		 -> rd1RegCompleteHandler(), rdBlkRegCompleteHandler(), wr1RegCompleteHandler(), 

    I2C1_SetBuffer@buffer	PTR void  size(2) Largest target is 3614
		 -> __heap_hi(UNKNOWN), RAM(DATA[3614]), FRAM_ReadByte@msgHdr(COMRAM[2]), FRAM_ReadByte@returnValue(COMRAM[1]), 
		 -> FRAM_ReadNBytes@msgHdr(BANK0[2]), FRAM_ReadNBytes@bufferBlock(BANK0[4]), FRAM_WriteByte@data(COMRAM[1]), FRAM_WriteByte@bfr(COMRAM[2]), 
		 -> seqWriteBuffer(BIGRAM[258]), main@framDataArray(BANK4[256]), I2C1_ReadByte@returnValue(COMRAM[1]), I2C1_ReadNBytes@bufferBlock(COMRAM[4]), 
		 -> I2C1_WriteByte@data(COMRAM[1]), NULL(NULL[0]), 

    S762$data_ptr	PTR unsigned char  size(2) Largest target is 3614
		 -> __heap_hi(UNKNOWN), RAM(DATA[3614]), FRAM_ReadByte@msgHdr(COMRAM[2]), FRAM_ReadByte@returnValue(COMRAM[1]), 
		 -> FRAM_ReadNBytes@msgHdr(BANK0[2]), FRAM_ReadNBytes@bufferBlock(BANK0[4]), FRAM_WriteByte@data(COMRAM[1]), FRAM_WriteByte@bfr(COMRAM[2]), 
		 -> seqWriteBuffer(BIGRAM[258]), main@framDataArray(BANK4[256]), I2C1_ReadByte@returnValue(COMRAM[1]), I2C1_ReadNBytes@bufferBlock(COMRAM[4]), 
		 -> I2C1_WriteByte@data(COMRAM[1]), NULL(NULL[0]), 

    I2C1_Status.data_ptr	PTR unsigned char  size(2) Largest target is 3614
		 -> __heap_hi(UNKNOWN), RAM(DATA[3614]), FRAM_ReadByte@msgHdr(COMRAM[2]), FRAM_ReadByte@returnValue(COMRAM[1]), 
		 -> FRAM_ReadNBytes@msgHdr(BANK0[2]), FRAM_ReadNBytes@bufferBlock(BANK0[4]), FRAM_WriteByte@data(COMRAM[1]), FRAM_WriteByte@bfr(COMRAM[2]), 
		 -> seqWriteBuffer(BIGRAM[258]), main@framDataArray(BANK4[256]), I2C1_ReadByte@returnValue(COMRAM[1]), I2C1_ReadNBytes@bufferBlock(COMRAM[4]), 
		 -> I2C1_WriteByte@data(COMRAM[1]), NULL(NULL[0]), 

    S762$callbackPayload	PTR void [6] size(2) Largest target is 5
		 -> FRAM_ReadByte@returnValue(COMRAM[1]), FRAM_ReadNBytes@bufferBlock(BANK0[4]), FRAM_WriteByte@data(COMRAM[1]), I2C1_ReadByte@returnValue(COMRAM[1]), 
		 -> I2C1_ReadNBytes@bufferBlock(COMRAM[4]), I2C1_WriteByte@data(COMRAM[1]), NULL(NULL[0]), 

    I2C1_Status.callbackPayload	PTR void [6] size(2) Largest target is 5
		 -> FRAM_ReadByte@returnValue(COMRAM[1]), FRAM_ReadNBytes@bufferBlock(BANK0[4]), FRAM_WriteByte@data(COMRAM[1]), I2C1_ReadByte@returnValue(COMRAM[1]), 
		 -> I2C1_ReadNBytes@bufferBlock(COMRAM[4]), I2C1_WriteByte@data(COMRAM[1]), NULL(NULL[0]), 

    S762$callbackTable	PTR FTN(PTR void ,)enum E360[6] size(3) Largest target is 1
		 -> rd1RegCompleteHandler@MB85RC256V$F1625(), rdBlkRegCompleteHandler@MB85RC256V$F1619(), wr1RegCompleteHandler@MB85RC256V$F1610(), I2C1_CallbackReturnReset(), 
		 -> I2C1_CallbackReturnStop(), Absolute function(), rd1RegCompleteHandler(), rdBlkRegCompleteHandler(), 
		 -> wr1RegCompleteHandler(), 

    I2C1_Status.callbackTable	PTR FTN(PTR void ,)enum E360[6] size(3) Largest target is 1
		 -> rd1RegCompleteHandler@MB85RC256V$F1625(), rdBlkRegCompleteHandler@MB85RC256V$F1619(), wr1RegCompleteHandler@MB85RC256V$F1610(), I2C1_CallbackReturnReset(), 
		 -> I2C1_CallbackReturnStop(), Absolute function(), rd1RegCompleteHandler(), rdBlkRegCompleteHandler(), 
		 -> wr1RegCompleteHandler(), 

    fsmStateTable	const PTR FTN()enum E13082[16] size(3) Largest target is 1
		 -> I2C1_DO_ADDRESS_NACK(), I2C1_DO_RESET(), I2C1_DO_RX_NACK_RESTART(), I2C1_DO_RX_NACK_STOP(), 
		 -> I2C1_DO_RX_ACK(), I2C1_DO_SEND_STOP(), I2C1_DO_SEND_RESTART(), I2C1_DO_SEND_RESTART_WRITE(), 
		 -> I2C1_DO_SEND_RESTART_READ(), I2C1_DO_TX_EMPTY(), I2C1_DO_RCEN(), I2C1_DO_RX(), 
		 -> I2C1_DO_TX(), I2C1_DO_SEND_ADR_WRITE(), I2C1_DO_SEND_ADR_READ(), I2C1_DO_IDLE(), 

    MSSP1_InterruptHandler	PTR FTN()void  size(3) Largest target is 1
		 -> I2C1_MasterIsr(), Absolute function(), 

    EUSART2_SetRxInterruptHandler@interruptHandler	PTR FTN()void  size(3) Largest target is 1
		 -> EUSART2_Receive_ISR(), 

    EUSART2_RxDefaultInterruptHandler	PTR FTN()void  size(3) Largest target is 1
		 -> Absolute function(), EUSART2_Receive_ISR(), 

    EUSART2_SetTxInterruptHandler@interruptHandler	PTR FTN()void  size(3) Largest target is 1
		 -> EUSART2_Transmit_ISR(), 

    EUSART2_TxDefaultInterruptHandler	PTR FTN()void  size(3) Largest target is 1
		 -> Absolute function(), EUSART2_Transmit_ISR(), 

    EUSART2_SetErrorHandler@interruptHandler	PTR FTN()void  size(3) Largest target is 1
		 -> EUSART2_DefaultErrorHandler(), 

    EUSART2_SetOverrunErrorHandler@interruptHandler	PTR FTN()void  size(3) Largest target is 1
		 -> EUSART2_DefaultOverrunErrorHandler(), 

    EUSART2_SetFramingErrorHandler@interruptHandler	PTR FTN()void  size(3) Largest target is 1
		 -> EUSART2_DefaultFramingErrorHandler(), 

    EUSART2_ErrorHandler	PTR FTN()void  size(3) Largest target is 1
		 -> Absolute function(), EUSART2_DefaultErrorHandler(), 

    EUSART2_OverrunErrorHandler	PTR FTN()void  size(3) Largest target is 1
		 -> Absolute function(), EUSART2_DefaultOverrunErrorHandler(), 

    EUSART2_FramingErrorHandler	PTR FTN()void  size(3) Largest target is 1
		 -> Absolute function(), EUSART2_DefaultFramingErrorHandler(), 

    rdBlkRegCompleteHandler@ptr.data	PTR unsigned char  size(2) Largest target is 256
		 -> main@framDataArray(BANK4[256]), 

    rdBlkRegCompleteHandler@ptr	PTR void  size(2) Largest target is 5
		 -> FRAM_ReadByte@returnValue(COMRAM[1]), FRAM_ReadNBytes@bufferBlock(BANK0[4]), FRAM_WriteByte@data(COMRAM[1]), I2C1_ReadByte@returnValue(COMRAM[1]), 
		 -> I2C1_ReadNBytes@bufferBlock(COMRAM[4]), I2C1_WriteByte@data(COMRAM[1]), NULL(NULL[0]), 

    wr1RegCompleteHandler@ptr	PTR void  size(2) Largest target is 5
		 -> FRAM_ReadByte@returnValue(COMRAM[1]), FRAM_ReadNBytes@bufferBlock(BANK0[4]), FRAM_WriteByte@data(COMRAM[1]), I2C1_ReadByte@returnValue(COMRAM[1]), 
		 -> I2C1_ReadNBytes@bufferBlock(COMRAM[4]), I2C1_WriteByte@data(COMRAM[1]), NULL(NULL[0]), 

    rd1RegCompleteHandler@ptr	PTR void  size(2) Largest target is 5
		 -> FRAM_ReadByte@returnValue(COMRAM[1]), FRAM_ReadNBytes@bufferBlock(BANK0[4]), FRAM_WriteByte@data(COMRAM[1]), I2C1_ReadByte@returnValue(COMRAM[1]), 
		 -> I2C1_ReadNBytes@bufferBlock(COMRAM[4]), I2C1_WriteByte@data(COMRAM[1]), NULL(NULL[0]), 

    S178$data	PTR unsigned char  size(2) Largest target is 256
		 -> main@framDataArray(BANK4[256]), 

    bufferBlock.data	PTR unsigned char  size(2) Largest target is 256
		 -> main@framDataArray(BANK4[256]), 

    sp__memcpy	PTR void  size(2) Largest target is 3614
		 -> __heap_hi(UNKNOWN), RAM(DATA[3614]), seqWriteBuffer(BIGRAM[258]), NULL(NULL[0]), 

    sp__malloc	PTR void  size(2) Largest target is 3614
		 -> __heap_hi(UNKNOWN), RAM(DATA[3614]), NULL(NULL[0]), 

    S36$Initialize	PTR FTN()void  size(3) Largest target is 1
		 -> EUSART2_Initialize(), 

    uart.Initialize	PTR FTN()void  size(3) Largest target is 1
		 -> EUSART2_Initialize(), 

    S36$TxDefaultISR	PTR FTN()void  size(3) Largest target is 1
		 -> EUSART2_Transmit_ISR(), 

    uart.TxDefaultISR	PTR FTN()void  size(3) Largest target is 1
		 -> EUSART2_Transmit_ISR(), 

    S36$TransmitDone	PTR FTN()_Bool  size(3) Largest target is 1
		 -> EUSART2_is_tx_done(), 

    uart.TransmitDone	PTR FTN()_Bool  size(3) Largest target is 1
		 -> EUSART2_is_tx_done(), 

    S36$SetRxISR	PTR FTN(PTR FTN()void ,)void  size(3) Largest target is 1
		 -> EUSART2_SetRxInterruptHandler(), 

    uart.SetRxISR	PTR FTN(PTR FTN()void ,)void  size(3) Largest target is 1
		 -> EUSART2_SetRxInterruptHandler(), 

    S36$RxDefaultISR	PTR FTN()void  size(3) Largest target is 1
		 -> EUSART2_Receive_ISR(), 

    uart.RxDefaultISR	PTR FTN()void  size(3) Largest target is 1
		 -> EUSART2_Receive_ISR(), 

    S36$SetTxISR	PTR FTN(PTR FTN()void ,)void  size(3) Largest target is 1
		 -> EUSART2_SetTxInterruptHandler(), 

    uart.SetTxISR	PTR FTN(PTR FTN()void ,)void  size(3) Largest target is 1
		 -> EUSART2_SetTxInterruptHandler(), 

    S36$DataReady	PTR FTN()_Bool  size(3) Largest target is 1
		 -> EUSART2_is_rx_ready(), 

    uart.DataReady	PTR FTN()_Bool  size(3) Largest target is 1
		 -> EUSART2_is_rx_ready(), 

    S36$TransmitReady	PTR FTN()_Bool  size(3) Largest target is 1
		 -> EUSART2_is_tx_ready(), 

    uart.TransmitReady	PTR FTN()_Bool  size(3) Largest target is 1
		 -> EUSART2_is_tx_ready(), 

    S36$Write	PTR FTN(unsigned char ,)void  size(3) Largest target is 1
		 -> EUSART2_Write(), 

    uart.Write	PTR FTN(unsigned char ,)void  size(3) Largest target is 1
		 -> EUSART2_Write(), 

    S36$Read	PTR FTN()unsigned char  size(3) Largest target is 1
		 -> EUSART2_Read(), 

    uart.Read	PTR FTN()unsigned char  size(3) Largest target is 1
		 -> EUSART2_Read(), 


Critical Paths under _main in COMRAM

    _main->_FRAM_WriteNBytes
    _dtoa->_abs
    _pad->_fputs
    _fputs->_fputc
    _fputc->_putch
    _putch->_EUSART2_Write
    _abs->___aomod
    _EUSART2_Initialize->_EUSART2_SetErrorHandler
    _EUSART2_Initialize->_EUSART2_SetFramingErrorHandler
    _EUSART2_Initialize->_EUSART2_SetOverrunErrorHandler
    _EUSART2_Initialize->_EUSART2_SetRxInterruptHandler
    _EUSART2_Initialize->_EUSART2_SetTxInterruptHandler
    _FRAM_WriteNBytes->_memset
    _FRAM_ReadNBytes->_I2C1_SetAddressNackCallback
    _FRAM_ReadNBytes->_I2C1_SetDataCompleteCallback
    _I2C1_SetDataCompleteCallback->_I2C1_SetCallback
    _I2C1_SetAddressNackCallback->_I2C1_SetCallback
    _I2C1_Open->_I2C1_SetInterruptHandler
    _I2C1_MasterWrite->_I2C1_MasterOperation

Critical Paths under _INTERRUPT_InterruptManager in COMRAM

    _I2C1_MasterFsm->_I2C1_DO_ADDRESS_NACK
    _I2C1_MasterFsm->_I2C1_DO_RX
    _I2C1_MasterFsm->_I2C1_DO_TX
    _I2C1_MasterFsm->_I2C1_DO_TX_EMPTY
    _I2C1_DO_TX_EMPTY->_I2C1_CallbackReturnReset
    _I2C1_DO_TX_EMPTY->_I2C1_CallbackReturnStop
    _I2C1_DO_TX_EMPTY->_rd1RegCompleteHandler
    _I2C1_DO_TX_EMPTY->_rd1RegCompleteHandler@MB85RC256V$F1625
    _I2C1_DO_TX_EMPTY->_rdBlkRegCompleteHandler
    _I2C1_DO_TX_EMPTY->_rdBlkRegCompleteHandler@MB85RC256V$F1619
    _I2C1_DO_TX_EMPTY->_wr1RegCompleteHandler
    _I2C1_DO_TX_EMPTY->_wr1RegCompleteHandler@MB85RC256V$F1610
    _I2C1_DO_TX->_I2C1_CallbackReturnReset
    _I2C1_DO_TX->_I2C1_CallbackReturnStop
    _I2C1_DO_TX->_rd1RegCompleteHandler
    _I2C1_DO_TX->_rd1RegCompleteHandler@MB85RC256V$F1625
    _I2C1_DO_TX->_rdBlkRegCompleteHandler
    _I2C1_DO_TX->_rdBlkRegCompleteHandler@MB85RC256V$F1619
    _I2C1_DO_TX->_wr1RegCompleteHandler
    _I2C1_DO_TX->_wr1RegCompleteHandler@MB85RC256V$F1610
    _I2C1_DO_SEND_ADR_WRITE->_I2C1_MasterSendTxData
    _I2C1_DO_RX->_I2C1_CallbackReturnReset
    _I2C1_DO_RX->_I2C1_CallbackReturnStop
    _I2C1_DO_RX->_rd1RegCompleteHandler
    _I2C1_DO_RX->_rd1RegCompleteHandler@MB85RC256V$F1625
    _I2C1_DO_RX->_rdBlkRegCompleteHandler
    _I2C1_DO_RX->_rdBlkRegCompleteHandler@MB85RC256V$F1619
    _I2C1_DO_RX->_wr1RegCompleteHandler
    _I2C1_DO_RX->_wr1RegCompleteHandler@MB85RC256V$F1610
    _I2C1_DO_ADDRESS_NACK->_I2C1_CallbackReturnReset
    _I2C1_DO_ADDRESS_NACK->_I2C1_CallbackReturnStop
    _I2C1_DO_ADDRESS_NACK->_rd1RegCompleteHandler
    _I2C1_DO_ADDRESS_NACK->_rd1RegCompleteHandler@MB85RC256V$F1625
    _I2C1_DO_ADDRESS_NACK->_rdBlkRegCompleteHandler
    _I2C1_DO_ADDRESS_NACK->_rdBlkRegCompleteHandler@MB85RC256V$F1619
    _I2C1_DO_ADDRESS_NACK->_wr1RegCompleteHandler
    _I2C1_DO_ADDRESS_NACK->_wr1RegCompleteHandler@MB85RC256V$F1610
    _wr1RegCompleteHandler@MB85RC256V$F1610->i2_I2C1_SetDataCompleteCallback
    _wr1RegCompleteHandler->i2_I2C1_SetDataCompleteCallback
    _rdBlkRegCompleteHandler@MB85RC256V$F1619->i2_I2C1_SetDataCompleteCallback
    _rdBlkRegCompleteHandler->i2_I2C1_SetDataCompleteCallback
    _rd1RegCompleteHandler@MB85RC256V$F1625->i2_I2C1_SetDataCompleteCallback
    _rd1RegCompleteHandler->i2_I2C1_SetDataCompleteCallback
    i2_I2C1_SetDataCompleteCallback->i2_I2C1_SetCallback

Critical Paths under _main in BANK0

    _printf->_vfprintf
    _vfprintf->_vfpfcnvrt
    _vfpfcnvrt->_dtoa
    _dtoa->___aodiv
    _dtoa->_pad

Critical Paths under _INTERRUPT_InterruptManager in BANK0

    None.

Critical Paths under _main in BANK1

    _main->_printf

Critical Paths under _INTERRUPT_InterruptManager in BANK1

    None.

Critical Paths under _main in BANK2

    None.

Critical Paths under _INTERRUPT_InterruptManager in BANK2

    None.

Critical Paths under _main in BANK3

    None.

Critical Paths under _INTERRUPT_InterruptManager in BANK3

    None.

Critical Paths under _main in BANK4

    None.

Critical Paths under _INTERRUPT_InterruptManager in BANK4

    None.

Critical Paths under _main in BANK5

    None.

Critical Paths under _INTERRUPT_InterruptManager in BANK5

    None.

Critical Paths under _main in BANK6

    None.

Critical Paths under _INTERRUPT_InterruptManager in BANK6

    None.

Critical Paths under _main in BANK7

    None.

Critical Paths under _INTERRUPT_InterruptManager in BANK7

    None.

Critical Paths under _main in BANK8

    None.

Critical Paths under _INTERRUPT_InterruptManager in BANK8

    None.

Critical Paths under _main in BANK9

    None.

Critical Paths under _INTERRUPT_InterruptManager in BANK9

    None.

Critical Paths under _main in BANK10

    None.

Critical Paths under _INTERRUPT_InterruptManager in BANK10

    None.

Critical Paths under _main in BANK11

    None.

Critical Paths under _INTERRUPT_InterruptManager in BANK11

    None.

Critical Paths under _main in BANK12

    None.

Critical Paths under _INTERRUPT_InterruptManager in BANK12

    None.

Critical Paths under _main in BANK14

    None.

Critical Paths under _INTERRUPT_InterruptManager in BANK14

    None.

Call Graph Tables:

 ---------------------------------------------------------------------------------
 (Depth) Function   	        Calls       Base Space   Used Autos Params    Refs
 ---------------------------------------------------------------------------------
 (0) _main                                               261   261      0   30326
                                             70 BANK0      1     1      0
                                              6 BANK1      4     4      0
                                              0 BANK4    256   256      0
                    _FRAM_ReadNBytes
                   _FRAM_WriteNBytes
                  _SYSTEM_Initialize
                             _memset
                             _printf
 ---------------------------------------------------------------------------------
 (1) _printf                                               8     4      4    8850
                                              0 BANK1      6     2      4
                           _vfprintf
 ---------------------------------------------------------------------------------
 (2) _vfprintf                                             8     2      6    8561
                                             62 BANK0      8     2      6
                          _vfpfcnvrt
 ---------------------------------------------------------------------------------
 (3) _vfpfcnvrt                                           42    36      6    8046
                                             46 BANK0     16    10      6
                               _dtoa
                              _fputc
 ---------------------------------------------------------------------------------
 (4) _dtoa                                                36    26     10    6117
                                             10 BANK0     36    26     10
                            ___aodiv
                            ___aomod
                                _abs
                                _pad
 ---------------------------------------------------------------------------------
 (5) _pad                                                 11     5      6    3753
                                             43 COMRAM     1     1      0
                                              0 BANK0     10     4      6
                              _fputc
                              _fputs
                             _strlen
 ---------------------------------------------------------------------------------
 (6) _strlen                                               4     2      2     234
                                             25 COMRAM     4     2      2
 ---------------------------------------------------------------------------------
 (6) _fputs                                                7     3      4    1705
                                             36 COMRAM     7     3      4
                              _fputc
 ---------------------------------------------------------------------------------
 (4) _fputc                                                9     5      4    1149
                                             27 COMRAM     9     5      4
                              _putch
 ---------------------------------------------------------------------------------
 (5) _putch                                                1     1      0      93
                                             26 COMRAM     1     1      0
                      _EUSART2_Write
 ---------------------------------------------------------------------------------
 (6) _EUSART2_Write                                        1     1      0      62
                                             25 COMRAM     1     1      0
 ---------------------------------------------------------------------------------
 (5) _abs                                                  4     2      2     197
                                             43 COMRAM     2     0      2
                                              0 BANK0      2     2      0
                            ___aomod (ARG)
 ---------------------------------------------------------------------------------
 (5) ___aomod                                             18     2     16     641
                                             25 COMRAM    18     2     16
 ---------------------------------------------------------------------------------
 (5) ___aodiv                                             26    10     16     653
                                             25 COMRAM    16     0     16
                                              0 BANK0     10    10      0
 ---------------------------------------------------------------------------------
 (1) _SYSTEM_Initialize                                    0     0      0     675
                 _EUSART2_Initialize
                    _I2C1_Initialize
               _INTERRUPT_Initialize
              _OSCILLATOR_Initialize
             _PIN_MANAGER_Initialize
                     _PMD_Initialize
 ---------------------------------------------------------------------------------
 (2) _PMD_Initialize                                       0     0      0       0
 ---------------------------------------------------------------------------------
 (2) _PIN_MANAGER_Initialize                               0     0      0       0
 ---------------------------------------------------------------------------------
 (2) _OSCILLATOR_Initialize                                0     0      0       0
 ---------------------------------------------------------------------------------
 (2) _INTERRUPT_Initialize                                 0     0      0       0
 ---------------------------------------------------------------------------------
 (2) _I2C1_Initialize                                      0     0      0       0
 ---------------------------------------------------------------------------------
 (2) _EUSART2_Initialize                                   0     0      0     675
            _EUSART2_SetErrorHandler
     _EUSART2_SetFramingErrorHandler
     _EUSART2_SetOverrunErrorHandler
      _EUSART2_SetRxInterruptHandler
      _EUSART2_SetTxInterruptHandler
 ---------------------------------------------------------------------------------
 (3) _EUSART2_SetTxInterruptHandler                        3     0      3     135
                                             25 COMRAM     3     0      3
 ---------------------------------------------------------------------------------
 (3) _EUSART2_SetRxInterruptHandler                        3     0      3     135
                                             25 COMRAM     3     0      3
 ---------------------------------------------------------------------------------
 (3) _EUSART2_SetOverrunErrorHandler                       3     0      3     135
                                             25 COMRAM     3     0      3
 ---------------------------------------------------------------------------------
 (3) _EUSART2_SetFramingErrorHandler                       3     0      3     135
                                             25 COMRAM     3     0      3
 ---------------------------------------------------------------------------------
 (3) _EUSART2_SetErrorHandler                              3     0      3     135
                                             25 COMRAM     3     0      3
 ---------------------------------------------------------------------------------
 (1) _FRAM_WriteNBytes                                     8     2      6    8785
                                             37 COMRAM     8     2      6
                         _I2C1_Close
                   _I2C1_MasterWrite
                          _I2C1_Open
        _I2C1_SetAddressNackCallback
                     _I2C1_SetBuffer
                             _memcpy
                             _memset
 ---------------------------------------------------------------------------------
 (1) _memset                                              12     6      6    1641
                                             25 COMRAM    12     6      6
 ---------------------------------------------------------------------------------
 (2) _memcpy                                              11     5      6     832
                                             25 COMRAM    11     5      6
 ---------------------------------------------------------------------------------
 (1) _FRAM_ReadNBytes                                     12     6      6    9848
                                             36 COMRAM     6     0      6
                                              0 BANK0      6     6      0
                         _I2C1_Close
                   _I2C1_MasterWrite
                          _I2C1_Open
        _I2C1_SetAddressNackCallback
                     _I2C1_SetBuffer
       _I2C1_SetDataCompleteCallback
 ---------------------------------------------------------------------------------
 (2) _I2C1_SetDataCompleteCallback                         5     0      5    3395
                                             31 COMRAM     5     0      5
                   _I2C1_SetCallback
 ---------------------------------------------------------------------------------
 (2) _I2C1_SetBuffer                                       4     0      4    2554
                                             25 COMRAM     4     0      4
 ---------------------------------------------------------------------------------
 (2) _I2C1_SetAddressNackCallback                          5     0      5    2983
                                             31 COMRAM     5     0      5
                   _I2C1_SetCallback
 ---------------------------------------------------------------------------------
 (3) _I2C1_SetCallback                                     6     1      5    1257
                                             25 COMRAM     6     1      5
 ---------------------------------------------------------------------------------
 (2) _I2C1_Open                                            2     2      0     203
                                             28 COMRAM     2     2      0
                _I2C1_MasterClearIrq
               _I2C1_MasterEnableIrq
                    _I2C1_MasterOpen
           _I2C1_SetInterruptHandler
 ---------------------------------------------------------------------------------
 (3) _I2C1_SetInterruptHandler                             3     0      3     135
                                             25 COMRAM     3     0      3
 ---------------------------------------------------------------------------------
 (3) _I2C1_MasterOpen                                      0     0      0       0
 ---------------------------------------------------------------------------------
 (3) _I2C1_MasterEnableIrq                                 0     0      0       0
 ---------------------------------------------------------------------------------
 (2) _I2C1_MasterWrite                                     0     0      0      68
               _I2C1_MasterOperation
 ---------------------------------------------------------------------------------
 (3) _I2C1_MasterOperation                                 2     2      0      68
                                             25 COMRAM     2     2      0
                   _I2C1_MasterStart
 ---------------------------------------------------------------------------------
 (4) _I2C1_MasterStart                                     0     0      0       0
 ---------------------------------------------------------------------------------
 (2) _I2C1_Close                                           1     1      0      37
                                             25 COMRAM     1     1      0
                _I2C1_MasterClearIrq
                   _I2C1_MasterClose
              _I2C1_MasterDisableIrq
 ---------------------------------------------------------------------------------
 (3) _I2C1_MasterDisableIrq                                0     0      0       0
 ---------------------------------------------------------------------------------
 (3) _I2C1_MasterClose                                     0     0      0       0
 ---------------------------------------------------------------------------------
 (3) _I2C1_MasterClearIrq                                  0     0      0       0
 ---------------------------------------------------------------------------------
 Estimated maximum stack depth 6
 ---------------------------------------------------------------------------------
 (Depth) Function   	        Calls       Base Space   Used Autos Params    Refs
 ---------------------------------------------------------------------------------
 (10) _INTERRUPT_InterruptManager                         10    10      0   32649
                                             15 COMRAM    10    10      0
                   Absolute function *
                _EUSART2_Receive_ISR *
               _EUSART2_Transmit_ISR *
                     _I2C1_MasterIsr *
 ---------------------------------------------------------------------------------
 (11) _I2C1_MasterIsr                                      0     0      0   32649
                     _I2C1_MasterFsm
 ---------------------------------------------------------------------------------
 (12) _I2C1_MasterFsm                                      0     0      0   32649
               _I2C1_DO_ADDRESS_NACK *
                       _I2C1_DO_IDLE *
                       _I2C1_DO_RCEN *
                      _I2C1_DO_RESET *
                         _I2C1_DO_RX *
                     _I2C1_DO_RX_ACK *
            _I2C1_DO_RX_NACK_RESTART *
               _I2C1_DO_RX_NACK_STOP *
              _I2C1_DO_SEND_ADR_READ *
             _I2C1_DO_SEND_ADR_WRITE *
               _I2C1_DO_SEND_RESTART *
          _I2C1_DO_SEND_RESTART_READ *
         _I2C1_DO_SEND_RESTART_WRITE *
                  _I2C1_DO_SEND_STOP *
                         _I2C1_DO_TX *
                   _I2C1_DO_TX_EMPTY *
                  _I2C1_MasterIsNack
              i2_I2C1_MasterClearIrq
 ---------------------------------------------------------------------------------
 (13) i2_I2C1_MasterClearIrq                               0     0      0       0
 ---------------------------------------------------------------------------------
 (13) _I2C1_DO_TX_EMPTY                                    2     2      0    8139
                                             13 COMRAM     2     2      0
                   Absolute function *
           _I2C1_CallbackReturnReset *
            _I2C1_CallbackReturnStop *
               _I2C1_DO_SEND_RESTART
                  _I2C1_DO_SEND_STOP
                  _I2C1_MasterSetIrq
              _rd1RegCompleteHandler *
_rd1RegCompleteHandler@MB85RC256V$F1 *
            _rdBlkRegCompleteHandler *
_rdBlkRegCompleteHandler@MB85RC256V$ *
              _wr1RegCompleteHandler *
_wr1RegCompleteHandler@MB85RC256V$F1 *
 ---------------------------------------------------------------------------------
 (14) _I2C1_MasterSetIrq                                   0     0      0       0
 ---------------------------------------------------------------------------------
 (13) _I2C1_DO_TX                                          2     2      0    8170
                                             13 COMRAM     2     2      0
                   Absolute function *
           _I2C1_CallbackReturnReset *
            _I2C1_CallbackReturnStop *
          _I2C1_DO_SEND_RESTART_READ
         _I2C1_DO_SEND_RESTART_WRITE
                  _I2C1_DO_SEND_STOP
                  _I2C1_MasterIsNack
              _I2C1_MasterSendTxData
              _rd1RegCompleteHandler *
_rd1RegCompleteHandler@MB85RC256V$F1 *
            _rdBlkRegCompleteHandler *
_rdBlkRegCompleteHandler@MB85RC256V$ *
              _wr1RegCompleteHandler *
_wr1RegCompleteHandler@MB85RC256V$F1 *
 ---------------------------------------------------------------------------------
 (13) _I2C1_MasterIsNack                                   0     0      0       0
 ---------------------------------------------------------------------------------
 (14) _I2C1_DO_SEND_RESTART_WRITE                          0     0      0       0
           _I2C1_MasterEnableRestart
 ---------------------------------------------------------------------------------
 (14) _I2C1_DO_SEND_RESTART_READ                           0     0      0       0
           _I2C1_MasterEnableRestart
 ---------------------------------------------------------------------------------
 (13) _I2C1_DO_SEND_ADR_WRITE                              0     0      0      31
              _I2C1_MasterSendTxData
 ---------------------------------------------------------------------------------
 (13) _I2C1_DO_SEND_ADR_READ                               0     0      0      31
              _I2C1_MasterSendTxData
 ---------------------------------------------------------------------------------
 (14) _I2C1_MasterSendTxData                               1     1      0      31
                                              0 COMRAM     1     1      0
 ---------------------------------------------------------------------------------
 (13) _I2C1_DO_RX_ACK                                      0     0      0       0
                 _I2C1_MasterSendAck
 ---------------------------------------------------------------------------------
 (13) _I2C1_DO_RX                                          2     2      0    8139
                                             13 COMRAM     2     2      0
                   Absolute function *
           _I2C1_CallbackReturnReset *
            _I2C1_CallbackReturnStop *
            _I2C1_DO_RX_NACK_RESTART
               _I2C1_DO_RX_NACK_STOP
               _I2C1_MasterGetRxData
                 _I2C1_MasterSendAck
              _rd1RegCompleteHandler *
_rd1RegCompleteHandler@MB85RC256V$F1 *
            _rdBlkRegCompleteHandler *
_rdBlkRegCompleteHandler@MB85RC256V$ *
              _wr1RegCompleteHandler *
_wr1RegCompleteHandler@MB85RC256V$F1 *
 ---------------------------------------------------------------------------------
 (14) _I2C1_MasterSendAck                                  0     0      0       0
 ---------------------------------------------------------------------------------
 (14) _I2C1_MasterGetRxData                                0     0      0       0
 ---------------------------------------------------------------------------------
 (13) _I2C1_DO_RX_NACK_STOP                                0     0      0       0
                _I2C1_MasterSendNack
 ---------------------------------------------------------------------------------
 (13) _I2C1_DO_RX_NACK_RESTART                             0     0      0       0
                _I2C1_MasterSendNack
 ---------------------------------------------------------------------------------
 (14) _I2C1_MasterSendNack                                 0     0      0       0
 ---------------------------------------------------------------------------------
 (13) _I2C1_DO_RESET                                       0     0      0       0
 ---------------------------------------------------------------------------------
 (13) _I2C1_DO_RCEN                                        0     0      0       0
                 _I2C1_MasterStartRx
 ---------------------------------------------------------------------------------
 (14) _I2C1_MasterStartRx                                  0     0      0       0
 ---------------------------------------------------------------------------------
 (13) _I2C1_DO_IDLE                                        0     0      0       0
 ---------------------------------------------------------------------------------
 (13) _I2C1_DO_ADDRESS_NACK                                2     2      0    8139
                                             13 COMRAM     2     2      0
                   Absolute function *
           _I2C1_CallbackReturnReset *
            _I2C1_CallbackReturnStop *
               _I2C1_DO_SEND_RESTART
                  _I2C1_DO_SEND_STOP
              _rd1RegCompleteHandler *
_rd1RegCompleteHandler@MB85RC256V$F1 *
            _rdBlkRegCompleteHandler *
_rdBlkRegCompleteHandler@MB85RC256V$ *
              _wr1RegCompleteHandler *
_wr1RegCompleteHandler@MB85RC256V$F1 *
 ---------------------------------------------------------------------------------
 (14) _wr1RegCompleteHandler@MB85RC256V$F1610              2     0      2    1282
                                             11 COMRAM     2     0      2
                   i2_I2C1_SetBuffer
     i2_I2C1_SetDataCompleteCallback
 ---------------------------------------------------------------------------------
 (14) _wr1RegCompleteHandler                               2     0      2    1282
                                             11 COMRAM     2     0      2
                   i2_I2C1_SetBuffer
     i2_I2C1_SetDataCompleteCallback
 ---------------------------------------------------------------------------------
 (14) _rdBlkRegCompleteHandler@MB85RC256V$F1619            2     0      2    1313
                                             11 COMRAM     2     0      2
                   i2_I2C1_SetBuffer
     i2_I2C1_SetDataCompleteCallback
 ---------------------------------------------------------------------------------
 (14) _rdBlkRegCompleteHandler                             2     0      2    1313
                                             11 COMRAM     2     0      2
                   i2_I2C1_SetBuffer
     i2_I2C1_SetDataCompleteCallback
 ---------------------------------------------------------------------------------
 (14) _rd1RegCompleteHandler@MB85RC256V$F1625              2     0      2    1667
                                             11 COMRAM     2     0      2
                   i2_I2C1_SetBuffer
     i2_I2C1_SetDataCompleteCallback
 ---------------------------------------------------------------------------------
 (14) _rd1RegCompleteHandler                               2     0      2    1282
                                             11 COMRAM     2     0      2
                   i2_I2C1_SetBuffer
     i2_I2C1_SetDataCompleteCallback
 ---------------------------------------------------------------------------------
 (15) i2_I2C1_SetDataCompleteCallback                      5     0      5     769
                                              6 COMRAM     5     0      5
                 i2_I2C1_SetCallback
 ---------------------------------------------------------------------------------
 (16) i2_I2C1_SetCallback                                  6     1      5     287
                                              0 COMRAM     6     1      5
 ---------------------------------------------------------------------------------
 (15) i2_I2C1_SetBuffer                                    4     0      4     482
                                              0 COMRAM     4     0      4
 ---------------------------------------------------------------------------------
 (14) _I2C1_DO_SEND_STOP                                   0     0      0       0
                    _I2C1_MasterStop
 ---------------------------------------------------------------------------------
 (15) _I2C1_MasterStop                                     0     0      0       0
 ---------------------------------------------------------------------------------
 (14) _I2C1_DO_SEND_RESTART                                0     0      0       0
           _I2C1_MasterEnableRestart
 ---------------------------------------------------------------------------------
 (15) _I2C1_MasterEnableRestart                            0     0      0       0
 ---------------------------------------------------------------------------------
 (14) _I2C1_CallbackReturnStop                             2     0      2       0
                                             11 COMRAM     2     0      2
 ---------------------------------------------------------------------------------
 (14) _I2C1_CallbackReturnReset                            2     0      2       0
                                             11 COMRAM     2     0      2
 ---------------------------------------------------------------------------------
 (11) _EUSART2_Transmit_ISR                                0     0      0       0
 ---------------------------------------------------------------------------------
 (11) _EUSART2_Receive_ISR                                 0     0      0       0
                   Absolute function *
        _EUSART2_DefaultErrorHandler *
 _EUSART2_DefaultFramingErrorHandler *
 _EUSART2_DefaultOverrunErrorHandler *
              _EUSART2_RxDataHandler
 ---------------------------------------------------------------------------------
 (12) _EUSART2_DefaultOverrunErrorHandler                  0     0      0       0
 ---------------------------------------------------------------------------------
 (12) _EUSART2_DefaultFramingErrorHandler                  0     0      0       0
 ---------------------------------------------------------------------------------
 (12) _EUSART2_DefaultErrorHandler                         0     0      0       0
              _EUSART2_RxDataHandler
 ---------------------------------------------------------------------------------
 (12) _EUSART2_RxDataHandler                               0     0      0       0
 ---------------------------------------------------------------------------------
 (14) Absolute function(Fake)                              2     0      2       0
 ---------------------------------------------------------------------------------
 Estimated maximum stack depth 16
 ---------------------------------------------------------------------------------

 Call Graph Graphs:

 _main (ROOT)
   _FRAM_ReadNBytes
     _I2C1_Close
       _I2C1_MasterClearIrq
       _I2C1_MasterClose
       _I2C1_MasterDisableIrq
     _I2C1_MasterWrite
       _I2C1_MasterOperation
         _I2C1_MasterStart
     _I2C1_Open
       _I2C1_MasterClearIrq
       _I2C1_MasterEnableIrq
       _I2C1_MasterOpen
       _I2C1_SetInterruptHandler
     _I2C1_SetAddressNackCallback
       _I2C1_SetCallback
     _I2C1_SetBuffer
     _I2C1_SetDataCompleteCallback
       _I2C1_SetCallback
   _FRAM_WriteNBytes
     _I2C1_Close
     _I2C1_MasterWrite
     _I2C1_Open
     _I2C1_SetAddressNackCallback
     _I2C1_SetBuffer
     _memcpy
     _memset
   _SYSTEM_Initialize
     _EUSART2_Initialize
       _EUSART2_SetErrorHandler
       _EUSART2_SetFramingErrorHandler
       _EUSART2_SetOverrunErrorHandler
       _EUSART2_SetRxInterruptHandler
       _EUSART2_SetTxInterruptHandler
     _I2C1_Initialize
     _INTERRUPT_Initialize
     _OSCILLATOR_Initialize
     _PIN_MANAGER_Initialize
     _PMD_Initialize
   _memset
   _printf
     _vfprintf
       _vfpfcnvrt
         _dtoa
           ___aodiv
           ___aomod
           _abs
             ___aomod (ARG)
           _pad
             _fputc
               _putch
                 _EUSART2_Write
             _fputs
               _fputc
             _strlen
         _fputc

 _INTERRUPT_InterruptManager (ROOT)
   Absolute function(Fake) *
   _EUSART2_Receive_ISR *
     Absolute function(Fake) *
     _EUSART2_DefaultErrorHandler *
       _EUSART2_RxDataHandler
     _EUSART2_DefaultFramingErrorHandler *
     _EUSART2_DefaultOverrunErrorHandler *
     _EUSART2_RxDataHandler *
   _EUSART2_Transmit_ISR *
   _I2C1_MasterIsr *
     _I2C1_MasterFsm
       _I2C1_DO_ADDRESS_NACK *
         Absolute function(Fake) *
         _I2C1_CallbackReturnReset *
         _I2C1_CallbackReturnStop *
         _I2C1_DO_SEND_RESTART *
           _I2C1_MasterEnableRestart
         _I2C1_DO_SEND_STOP *
           _I2C1_MasterStop
         _rd1RegCompleteHandler *
           i2_I2C1_SetBuffer
           i2_I2C1_SetDataCompleteCallback
             i2_I2C1_SetCallback
         _rd1RegCompleteHandler@MB85RC256V$F1625 *
           i2_I2C1_SetBuffer
           i2_I2C1_SetDataCompleteCallback
         _rdBlkRegCompleteHandler *
           i2_I2C1_SetBuffer
           i2_I2C1_SetDataCompleteCallback
         _rdBlkRegCompleteHandler@MB85RC256V$F1619 *
           i2_I2C1_SetBuffer
           i2_I2C1_SetDataCompleteCallback
         _wr1RegCompleteHandler *
           i2_I2C1_SetBuffer
           i2_I2C1_SetDataCompleteCallback
         _wr1RegCompleteHandler@MB85RC256V$F1610 *
           i2_I2C1_SetBuffer
           i2_I2C1_SetDataCompleteCallback
       _I2C1_DO_IDLE *
       _I2C1_DO_RCEN *
         _I2C1_MasterStartRx
       _I2C1_DO_RESET *
       _I2C1_DO_RX *
         Absolute function(Fake) *
         _I2C1_CallbackReturnReset *
         _I2C1_CallbackReturnStop *
         _I2C1_DO_RX_NACK_RESTART *
           _I2C1_MasterSendNack
         _I2C1_DO_RX_NACK_STOP *
           _I2C1_MasterSendNack
         _I2C1_MasterGetRxData *
         _I2C1_MasterSendAck *
         _rd1RegCompleteHandler *
         _rd1RegCompleteHandler@MB85RC256V$F1625 *
         _rdBlkRegCompleteHandler *
         _rdBlkRegCompleteHandler@MB85RC256V$F1619 *
         _wr1RegCompleteHandler *
         _wr1RegCompleteHandler@MB85RC256V$F1610 *
       _I2C1_DO_RX_ACK *
         _I2C1_MasterSendAck
       _I2C1_DO_RX_NACK_RESTART *
       _I2C1_DO_RX_NACK_STOP *
       _I2C1_DO_SEND_ADR_READ *
         _I2C1_MasterSendTxData
       _I2C1_DO_SEND_ADR_WRITE *
         _I2C1_MasterSendTxData
       _I2C1_DO_SEND_RESTART *
       _I2C1_DO_SEND_RESTART_READ *
         _I2C1_MasterEnableRestart
       _I2C1_DO_SEND_RESTART_WRITE *
         _I2C1_MasterEnableRestart
       _I2C1_DO_SEND_STOP *
       _I2C1_DO_TX *
         Absolute function(Fake) *
         _I2C1_CallbackReturnReset *
         _I2C1_CallbackReturnStop *
         _I2C1_DO_SEND_RESTART_READ *
         _I2C1_DO_SEND_RESTART_WRITE *
         _I2C1_DO_SEND_STOP *
         _I2C1_MasterIsNack *
         _I2C1_MasterSendTxData *
         _rd1RegCompleteHandler *
         _rd1RegCompleteHandler@MB85RC256V$F1625 *
         _rdBlkRegCompleteHandler *
         _rdBlkRegCompleteHandler@MB85RC256V$F1619 *
         _wr1RegCompleteHandler *
         _wr1RegCompleteHandler@MB85RC256V$F1610 *
       _I2C1_DO_TX_EMPTY *
         Absolute function(Fake) *
         _I2C1_CallbackReturnReset *
         _I2C1_CallbackReturnStop *
         _I2C1_DO_SEND_RESTART *
         _I2C1_DO_SEND_STOP *
         _I2C1_MasterSetIrq *
         _rd1RegCompleteHandler *
         _rd1RegCompleteHandler@MB85RC256V$F1625 *
         _rdBlkRegCompleteHandler *
         _rdBlkRegCompleteHandler@MB85RC256V$F1619 *
         _wr1RegCompleteHandler *
         _wr1RegCompleteHandler@MB85RC256V$F1610 *
       _I2C1_MasterIsNack *
       i2_I2C1_MasterClearIrq *

 Address spaces:
Name               Size   Autos  Total    Cost      Usage
BIGRAM             CFF      0     102      54        7.8%
EEDATA             400      0       0       0        0.0%
BITBIGSFR          100      0       0      52        0.0%
BITBANK12          100      0       0      28        0.0%
BANK12             100      0       0      29        0.0%
BITBANK11          100      0       0      26        0.0%
BANK11             100      0       0      27        0.0%
BITBANK10          100      0       0      24        0.0%
BANK10             100      0       0      25        0.0%
BITBANK9           100      0       0      22        0.0%
BANK9              100      0       0      23        0.0%
BITBANK8           100      0       0      20        0.0%
BANK8              100      0       0      21        0.0%
BITBANK7           100      0       0      18        0.0%
BANK7              100      0       0      19        0.0%
BITBANK6           100      0       0      16        0.0%
BANK6              100      0       0      17        0.0%
BITBANK5           100      0       0      14        0.0%
BANK5              100      0       0      15        0.0%
BITBANK4           100      0       0      12        0.0%
BANK4              100    100     100      13      100.0%
BITBANK3           100      0       0      10        0.0%
BANK3              100      0     100      11      100.0%
BITBANK2           100      0       0       8        0.0%
BANK2              100      0      20       9       12.5%
BITBANK1           100      0       0       6        0.0%
BANK1              100      A       A       7        3.9%
BITBANK0            A0      0       0       4        0.0%
BANK0               A0     47      A0       5      100.0%
BITBIGSFR_1llll     75      0       0      50        0.0%
BITCOMRAM           5E      0       0       0        0.0%
COMRAM              5E     2D      45       1       73.4%
BITBIGSFR_1hlhh     5B      0       0      33        0.0%
BITBIGSFR_1hlhh     58      0       0      36        0.0%
BITBANK14           1F      0       0      30        0.0%
BANK14              1F      0       0      31        0.0%
BIGRAM_1            1F      0       0      51        0.0%
BITBIGSFR_1lhl      17      0       0      49        0.0%
BITBIGSFR_1hlhh     13      0       0      42        0.0%
BITBIGSFR_1hlhh      D      0       0      40        0.0%
BITBIGSFR_1hh        D      0       0      32        0.0%
BITBIGSFR_1lhh       C      0       0      48        0.0%
BITBIGSFR_1hlhl      A      0       0      46        0.0%
BITBIGSFR_1hll       7      0       0      47        0.0%
BITBIGSFR_1hlhh      5      0       0      35        0.0%
BITBIGSFR_1hlhh      3      0       0      41        0.0%
BITBIGSFR_1hlhh      3      0       0      39        0.0%
BITBIGSFR_1hlhh      3      0       0      38        0.0%
BITBIGSFR_1hlhh      3      0       0      37        0.0%
BITBIGSFR_1hlhh      2      0       0      43        0.0%
BITBIGSFR_1hlhh      1      0       0      34        0.0%
BITBIGSFR_1hlhh      1      0       0      44        0.0%
BITBIGSFR_1hlhh      1      0       0      45        0.0%
BIGSFR_1             0      0       0     200        0.0%
BIGSFR               0      0       0     200        0.0%
BITSFR_3             0      0       0     200        0.0%
SFR_3                0      0       0     200        0.0%
BITSFR_2             0      0       0     200        0.0%
SFR_2                0      0       0     200        0.0%
BITSFR_1             0      0       0     200        0.0%
SFR_1                0      0       0     200        0.0%
BITSFR               0      0       0     200        0.0%
SFR                  0      0       0     200        0.0%
STACK                0      0       0       2        0.0%
NULL                 0      0       0       0        0.0%
ABS                  0      0     30F      53        0.0%
DATA                 0      0     411       3        0.0%
CODE                 0      0       0       0        0.0%


Microchip Technology PIC18 Macro Assembler V2.36 build 20220127204148 
Symbol Table                                                                                   Fri Jul 22 21:09:15 2022

                          ?_EUSART2_RxDataHandler 0001                                               l221 2888  
                                             l230 285E                                               l302 27F0  
                                             l224 287A                                               l233 286C  
                                             l305 2808                                               l227 2896  
                                             l308 2782                                               l501 281C  
                                             l158 1F1A                                               l182 230A  
                                             l183 2322                                               l248 295C  
                                             l192 28D2                                               l521 28DA  
                                             l505 1C9A                                               l186 234E  
                                             l515 2586                                               l531 279E  
                                             l509 26A8                                               l551 20B6  
                                             l391 2032                                               l712 2928  
                                             l528 2720                                               l800 1D4C  
                                             l721 2934                                               l537 27BA  
                                             l546 28A4                                               l718 292E  
                                             l670 2766                                               l750 18A8  
                                             l673 2964                                               l818 1FA8  
                                             l691 2960                                               l756 1988  
                                             l953 15AC                                               l966 1886  
                               ?i2_I2C1_SetBuffer 0001                             ?_I2C1_MasterOperation 0001  
          __end_of_EUSART2_SetFramingErrorHandler 288A                    _EUSART2_SetFramingErrorHandler 287C  
                                             _abs 2506                                               _pad 1990  
                                             prod 000FF3                                               tosl 000FFD  
                                             wreg 000FE8                            ?_I2C1_MasterSendTxData 0001  
                            _I2C1_DO_RX_NACK_STOP 28E4                         ?_I2C1_MasterEnableRestart 0001  
                        fp__I2C1_DO_SEND_ADR_READ 0000                                ??i2_I2C1_SetBuffer 0005  
                         fp__I2C1_DO_SEND_RESTART 0000                              I2C1_SetBuffer@buffer 001A  
                                            ?_abs 002C                                              l1602 26D2  
                                            l1701 2438                                              l1632 1A1A  
                                            l1640 1014                                              l5001 2014  
                                            l1634 1A56                                              l1642 101C  
                                            l5003 2016                                              l1707 25BC  
                                            l1660 1256                                              l5101 1F24  
                                            l5021 15CC                                              l5005 27F2  
                                            l4301 1E24                                              l1629 19D6  
                                            l5111 1F64                                              l5103 1F2C  
                                            l5023 15D8                                              l4303 1E42  
                                            l4311 2402                                              l5113 1F78  
                                            l5105 1F42                                              l1585 23F4  
                                            l5041 16FA                                              l5033 1680  
                                            l5017 15AE                                              l4401 17C2  
                                            l1681 2546                                              l4305 1E78  
                                            l4313 2414                                              l4321 2598  
                                            l1673 22EE                                              l1674 22F6  
                                            l5115 1F90                                              l5107 1F48  
                                            l5043 1706                                              l5035 16AC  
                                            l5027 160E                                              l4403 17D0  
                                            l4411 1836                                              l4315 2418  
                                            l4323 25B0                                              l1667 1422  
                                            l5051 229A                                              l5117 1F94  
                                            l5109 1F4C                                              l5045 170C  
                                            l5029 1666                                              l1589 1722  
                                            l5061 27D8                                              l4341 142A  
                                            l4413 1846                                              l4405 17FE  
                                            l1693 1E8A                                              l4309 23F6  
                                            l4317 2588                                              l4421 199E  
                                            l5053 22A8                                              l1678 253E  
                                            l5047 1710                                              l5039 16C6  
                                            l5071 27EC                                              l5063 27DC  
                                            l4351 148A                                              l4343 1438  
                                            l4415 1866                                              l4407 181E  
                                            l4319 2594                                              l4431 19F6  
                                            l4423 19B2                                              l5055 22CE  
                                            l5081 1C9C                                              l5065 27E0  
                                            l4361 14D4                                              l4353 148E  
                                            l4345 1458                                              l4409 1830  
                                            l4441 2506                                              l4281 2324  
                                            l4433 19FC                                              l4425 19C2  
                                            l4601 11AA                                              l5049 2292  
                                            l5091 1D04                                              l5083 1CB8  
                                            l5067 27E4                                              l4371 1544  
                                            l4363 14E2                                              l4355 149A  
                                            l4347 145C                                              l4339 1424  
                                            l4443 2520                                              l4283 2334  
                                            l4291 234C                                              l4275 22FA  
                                            l4435 1A28                                              l4427 19CE  
                                            l4419 1990                                              l4611 11F8  
                                            l4603 11C4                                              l5075 26AA  
                                            l5093 1D1C                                              l5085 1CCA  
                                            l5069 27E8                                              l4373 1556  
                                            l4365 14F4                                              l4357 14B8  
                                            l4349 146A                                              l4285 2336  
                                            l4277 22FA                                              l4293 28CC  
                                            l4437 1A3C                                              l4429 19E2  
                                            l4613 120A                                              l4605 11D2  
                                            l5077 26B4                                              l5261 1890  
                                            ?_pad 00AA                                              l5095 1D34  
                                            l5087 1CD2                                              l4631 288A  
                                            l4623 2860                                              l4367 1522  
                                            l4359 14C0                                              l4375 155C  
                                            l4391 175A                                              l4383 1724  
                                            l4287 2346                                              l4279 231A  
                                            l4295 1DF6                                              l4615 1216  
                                            l4607 11E4                                              l5271 18CA  
                                            l5263 189E                                              l5255 1888  
                                            l4641 2764                                              l4633 2898  
                                            l5097 1D38                                              l5089 1CEE  
                                            l4625 2852                                              l4377 156C  
                                            l4369 1542                                              l4393 1768  
                                            l4385 1728                                              l4289 234A  
                                            l4297 1E08                                              l4617 121E  
                                            l4609 11F2                                              l4561 0F74  
                                            l5281 1926                                              l5273 18DA  
                                            l5257 188C                                              l4635 2930  
                                            l4651 254A                                              l5099 1F1C  
                                            l4627 287C                                              l4379 158C  
                                            l4395 1788                                              l4387 1736  
                                            l4299 1E1A                                              l4619 122E  
                                            l4571 0FEE                                              l4563 0F94  
                                            l4811 128E                                              l5291 1972  
                                            l5283 1942                                              l5275 18DE  
                                            l5259 188E                                              l4661 2574  
                                            l4653 254E                                              l4645 2924  
                                            l4637 2746                                              l4901 1C88  
                                            l4629 286E                                              l4397 17A6  
                                            l4389 1756                                              l4581 104A  
                                            l4573 1008                                              l4565 0FBE  
                                            l4821 133C                                              l4813 129E  
                                            l5293 1978                                              l5277 18EE  
                                            l5269 18B6                                              l4647 292A  
                                            l4479 295E                                              l4663 257C  
                                            l4655 255E                                              l4639 2754  
                                            l4903 1C8C                                              l4671 2036  
                                            l4399 17AE                                              l4591 10EC  
                                            l4583 1052                                              l4575 1024  
                                            l4567 0FDE                                              l4831 13BE  
                                            l4815 12A2                                              l4807 1258  
                                            l5279 190A                                              l4649 2962  
                                            l4665 2580                                              l4657 2560  
                                            l4905 1C90                                              l4673 204A  
                                            l4921 27A0                                              l4913 26FE  
                                            l4593 10F2                                              l4585 105C  
                                            l4577 1036                                              l4569 0FEC  
                                            l4825 1374                                              l4817 12CA  
                                            l4809 1280                                              l4841 13E8  
                                            l5289 194C                                              l4931 2692  
                                            l4659 2564                                              l4667 2584  
                                            l4923 28D4                                              l4907 1C94  
                                            l4675 2082                                              l4915 270E  
                                            l4851 23BA                                              l4587 1062  
                                            l4595 1156                                              l4579 1044  
                                            l4843 1410                                              l4827 139C  
                                            l4835 13CC                                              l4819 12F2  
                                            l4933 2696                                              l4909 1C98  
                                            l4861 1BE8                                              l4917 2716  
                                            l4941 2784                                              l4853 23C6  
                                            l4597 1172                                              l4589 10E4  
                                            l4837 13DA                                              l4829 13AA  
                                            l4935 26A2                                              l4927 267E  
                                            l4871 1C04                                              l4863 1BEC  
                                            l4919 271E                                              l4855 23CA  
                                            l4951 1EBA                                              l4943 1E8C  
                                            l4599 1190                                              l4937 26A6  
                                            l4929 2682                                              l4881 1C20  
                                            l4873 1C06                                              l4865 1BFC  
                                            l4857 23D6                                              l4849 23A6  
                                            l4961 1EDA                                              l4953 1EBE  
                                            l4945 1E90                                              l4891 1C50  
                                            l4883 1C28                                              l4875 1C0A  
                                            l4867 1C00                                              l4859 23DA  
                                            l4963 1EEA                                              l4955 1EC2  
                                            l4947 1EA0                                              l4971 280A  
                                            l4893 1C5C                                              l4885 1C34  
                                            l4877 1C12                                              l4869 1C02  
                                            l4965 1F16                                              l4957 1EC6  
                                            l4949 1EB4                                              l4973 281A  
                                            l4981 1FC6                                              l4895 1C64  
                                            l4887 1C3C                                              l4879 1C14  
                                            l4959 1ECA                                              l4967 295A  
                                            l4991 2006                                              l4983 1FCC  
                                            l4975 1FAA                                              l4897 1C70  
                                            l4889 1C48                                              l4993 2008  
                                            l4985 1FD4                                              l4977 1FC2  
                                            l4969 2768                                              l4899 1C78  
                                            l4995 200A                                              l4987 1FDA  
                                            l4979 1FC4                                              l4997 2010  
                                            l4989 2004                                              l4999 2012  
                                            STR_1 0F65                                              STR_2 0F51  
                                            u3010 15C8                                              u3011 15C4  
                                            u3100 1FA8                                              u3020 160A  
                                            u3101 1FA4                                              u3021 1606  
                                            _LATA 000F82                                              u3030 167C  
                                            _LATB 000F83                                              u3031 1678  
                                            _LATC 000F84                                              u3040 16C2  
                                            u2400 1E78                                              _LATD 000F85  
                                            u3041 16BE                                              u2401 1E74  
                                            _LATE 000F86                                              u3050 1722  
                                            u2410 2438                                              u3051 171E  
                                            u2411 2434                                              u2500 156C  
                                            u2340 230A                                              u2420 25B0  
                                            u3060 22EE                                              u3300 18EE  
                                            u2501 1568                                              u2341 2306  
                                            u2421 25AC                                              u3061 22EA  
                                            u3301 18EA                                              u3070 1D04  
                                            u2510 1736                                              u2350 231A  
                                            u3310 1988                                              u3071 1D00  
                                            u2511 1732                                              u2351 2316  
                                            u3311 1984                                              u3080 1D4C  
                                            u2440 1438                                              u2520 1768  
                                            u2360 2346                                              u2600 1A28  
                                            u3081 1D48                                              u2441 1434  
                                            u2521 1764                                              u2361 2342  
                                            u2601 1A24                                              u3090 1F42  
                                            u2450 146A                                              u2530 17A6  
                                            u2610 2520                                              u2370 1E08  
                                            u3091 1F3E                                              u2451 1466  
                                            u2531 17A2                                              u2611 251C  
                                            u2371 1E04                                              u2540 17D0  
                                            u2380 1E1A                                              u2700 1044  
                                            u2461 1494                                              u2541 17CC  
                                            u2381 1E16                                              u2701 1040  
                                            u2470 14B8                                              u2550 17FE  
                                            u2390 1E42                                              u2710 1172  
                                            u2471 14B4                                              u2551 17FA  
                                            u2391 1E3E                                              u2711 116E  
                                            u2800 255E                                              u2480 14E2  
                                            u2560 1846                                              u2720 1190  
                                            u2640 0FA6                                              u2801 255A  
                                            u2481 14DE                                              u2561 1842  
                                            u2721 118C                                              u2641 0FA0  
                                            u2810 2574                                              u2490 1522  
                                            u2570 199E                                              u2730 11AA  
                                            u2650 0FA8                                              u3290 18B6  
                                            u2811 2570                                              u2491 151E  
                                            u2571 199A                                              u2731 11A6  
                                            u3291 18B2                                              u2820 204A  
                                            u2580 19C2                                              u2740 11C4  
                                            u2660 0FBE                                              u2900 1280  
                                            u2821 2046                                              u2581 19BE  
                                            u2741 11C0                                              u2661 0FBA  
                                            u2901 127C                                              u2590 1A1A  
                                            u2750 11D2                                              u2670 0FEC  
                                            u2910 12CA                                              u2591 1A16  
                                            u2751 11CE                                              u2671 0FE8  
                                            u2911 12C6                                              u2760 11E4  
                                            u2680 1008                                              u2920 12F2  
                                            u2761 11E0                                              u2681 1004  
                                            u2921 12EE                                              u2770 11F2  
                                            u2690 1036                                              u2930 139C  
                                            u2771 11EE                                              u2691 1032  
                                            u2931 1398                                              u2940 23F4  
                                            u2780 120A                                              _PMD0 000EDC  
                                            u2941 23F0                                              u2781 1206  
                                            _PMD1 000EDD                                              u2790 2754  
                                            u2950 1BFC                                              _PMD2 000EDE  
                                            u2791 2750                                              u2951 1BF8  
                                            _PMD3 000EDF                                              u2960 270E  
                                            _PMD4 000EE0                                              u2961 270A  
                                            _PMD5 000EE1                                              u2970 2692  
                                            u2971 268E                                              i2l80 264C  
                                            i2l83 24C0                                              i2l77 261C  
                                            _WPUA 000F0B                                              _WPUB 000F13  
                                            _WPUC 000F1B                                              _WPUD 000F20  
                                            _WPUE 000F28                             ??_EUSART2_Receive_ISR 0001  
                                ??_I2C1_MasterFsm 0010                                  ??_I2C1_MasterIsr 0010  
                                   _EUSART2_Write 22F8                         ??_I2C1_CallbackReturnStop 000E  
                                            abs@a 002C                                              _dbuf 0200  
                                            _brkp 0037                                              _main 1888  
                                            _dtoa 0F74                                              _prec 0033  
                                            _uart 0F31                                              _nout 00A6  
                                            pad@i 00B0                                              pad@p 00AE  
                                            fsr1h 000FE2                                              fsr2h 000FDA  
                                            indf2 000FDF                                              fsr1l 000FE1  
                                            pad@w 00B2                                              fsr2l 000FD9  
                                            btemp 0046                                              prodh 000FF4  
                                            prodl 000FF3                                              start 0140  
                                ??_I2C1_SetBuffer 001E                      __end_of_EUSART2_Transmit_ISR 2506  
                                    ___param_bank 000000                                i2_I2C1_SetCallback 20B8  
                   I2C1_CallbackReturnStop@funPtr 000C                                             ??_abs 00AA  
                                           ??_pad 002C                     __end_of_OSCILLATOR_Initialize 280A  
                             ?i2_I2C1_SetCallback 0001                                   __end_of___aodiv 15AE  
                               __end_of_I2C1_Open 1C9C                                             ?_main 0001  
                                           ?_dtoa 00B4                                   __end_of___aomod 1888  
                                           i2l212 297E                                             i2l205 1BE4  
                                           i2l215 2922                                             i2l209 26FC  
                                           i2l218 2958                                             i2l254 007E  
                                           i2l263 0114                                             i2l256 00BA  
                                           i2l257 0114                                             i2l258 00F4  
                                           i2l195 2500                                             i2l531 27D6  
                                           i2l700 294C                                             i2l604 21B8  
                                           i2l198 2504                                             i2l622 2912  
                                           i2l551 213A                                             i2l703 2952  
                                           i2l631 28FA                                             i2l528 2744  
                                           i2l640 28E2                                             i2l561 28C8  
                                           i2l625 290A                                             i2l721 2940  
                                           i2l570 1AE6                                             i2l634 28F2  
                                           i2l554 293A                                             i2l643 28B0  
                                           i2l660 2970                                             i2l724 2946  
                                           i2l564 2850                                             i2l628 2902  
                                           i2l573 1B1E                                             i2l637 28EA  
                                           i2l830 267C                                             i2l558 2224  
                                           i2l567 2840                                             i2l657 2974  
                                           i2l833 25EC                                             i2l649 2290  
                                           i2l682 297C                                             i2l586 1D84  
                                           i2l587 1DF4                                             i2l836 247C  
                                           i2l676 2968                                             i2l694 2978  
                                           i2l598 28BC                                             i2l679 291A  
                                           i2l688 296C                                             i2l697 2830  
                                           _OSCEN 000ED7                                      vfpfcnvrt@fmt 00DA  
                          ??_I2C1_MasterEnableIrq 001A                                             _TRISA 000F87  
                                           _TRISB 000F88                                             _TRISC 000F89  
                                           _TRISD 000F8A                                             _TRISE 000F8B  
                          ??_I2C1_MasterGetRxData 0001                             ?_I2C1_DO_RX_NACK_STOP 0001  
                      ??_I2C1_CallbackReturnReset 000E                                 ??_I2C1_MasterOpen 001A  
                               ??_I2C1_MasterStop 0001                                 ??_I2C1_Initialize 001A  
                                           _flags 0035                                 ?_FRAM_WriteNBytes 0026  
                                           _errno 0039                                             _fputc 1DF6  
                                           _fputs 23F6                                             pad@fp 00AA  
                                           _width 0031                                             _putch 28CA  
                                           main@i 0108                                             dtoa@d 00B6  
                                           dtoa@i 00D6                                             dtoa@n 00CE  
                                           dtoa@p 00C8                                             dtoa@s 00CC  
                                           dtoa@w 00CA                                    ?_EUSART2_Write 0001  
                                           pclath 000FFA                                             pclatu 000FFB  
                                           tablat 000FF5                                ??_FRAM_WriteNBytes 002C  
                            ??i2_I2C1_SetCallback 0006                                             ttemp5 0047  
                                           ttemp6 004A                                             ttemp7 004E  
                                           status 000FD8                                             wtemp8 0047  
                                    ??_I2C1_DO_RX 000E                                      ??_I2C1_DO_TX 000E  
                          ??_I2C1_DO_ADDRESS_NACK 000E                                      ??_I2C1_Close 001A  
           __end_of_EUSART2_SetTxInterruptHandler 2860                     _EUSART2_SetTxInterruptHandler 2852  
                                   _fsmStateTable 0F01                          fp__rd1RegCompleteHandler 0000  
                                 __initialization 2350                                      __end_of_main 1990  
                                    __end_of_dtoa 1258                          fp__wr1RegCompleteHandler 0000  
                                    __end_of_uart 0F4F                       ?_INTERRUPT_InterruptManager 0001  
                    fp__I2C1_DO_SEND_RESTART_READ 0000                            ??_I2C1_MasterOperation 001A  
                                          ??_main 00F0                                            ??_dtoa 00BE  
                                   __activetblptr 000003               __end_of_EUSART2_DefaultErrorHandler 295A  
                     _EUSART2_DefaultErrorHandler 2954                                __end_of_I2C1_DO_RX 1DF6  
                              __end_of_I2C1_DO_TX 1B20                                __end_of_I2C1_Close 26AA  
                      __end_of_EUSART2_Initialize 1F1C                          _eusart2TxBufferRemaining 0045  
                                          ?_fputc 001C                                            ?_fputs 0025  
                            __end_of_FRAM_ADDRESS 0F51                                            _ANSELA 000F0C  
                                          ?_putch 0001                                            _ANSELB 000F14  
                                          _ANSELC 000F1C                                            _ANSELD 000F21  
                                          _ANSELE 000F29                                            _RC2REG 000E94  
                                          _RD0PPS 000EFA                                            _RC2STA 000E98  
                                          _RC3PPS 000EF5                                            _RC4PPS 000EF6  
                                          _ODCONA 000F0A                                            _ODCONB 000F12  
                                          _ODCONC 000F1A                                            _ODCOND 000F1F  
                                          _ODCONE 000F27                                            i2l3227 296A  
                                          i2l3235 2942                                            i2l5011 21CE  
                                          i2l3341 26D4                                            i2l5013 21E2  
                                          i2l3343 26E4                                            i2l5015 21E8  
                                          i2l5007 21BA                                            i2l3345 26E6  
                                          i2l3521 28A6                                            i2l5009 21BE  
                                          i2l5201 0040                                            i2l3347 26F6  
                                          i2l4331 2106                                            i2l3523 28AA  
                                          i2l5211 00C8                                            i2l5203 0050  
                                          i2l3349 26FA                                            i2l4333 297A  
                                          i2l4501 28F8                                            i2l3525 28AE  
                                          i2l5213 00D6                                            i2l5205 005E  
                                          i2l3711 291C                                            i2l4335 2976  
                                          i2l4327 20BA                                            i2l4511 28DC  
                                          i2l5215 0102                                            i2l5207 008C  
                                          i2l3713 2954                                            i2l4329 20CE  
                                          i2l4337 294E                                            i2l4505 2966  
                                          i2l4513 28E0                                            i2l5073 2936  
                                          i2l5209 009A                                            i2l4451 2742  
                                          i2l3395 28BE                                            i2l3483 28B2  
                                          i2l4523 28FC                                            i2l5411 227A  
                                          i2l4445 2722                                            i2l4453 27BC  
                                          i2l4541 267A                                            i2l4533 296E  
                                          i2l4509 2948                                            i2l3397 28C2  
                                          i2l4701 1A78                                            i2l5413 1DCE  
                                          i2l3485 28B6                                            i2l4525 2900  
                                          i2l4517 28E4                                            i2l3831 24C2  
                                          i2l4447 2732                                            i2l4463 261E  
                                          i2l4471 247E                                            i2l4455 25EE  
                                          i2l3399 28C6                                            i2l5415 1AC0  
                                          i2l4711 1A88                                            i2l3487 28BA  
                                          i2l4519 28E8                                            i2l3591 293C  
                                          i2l3841 24FA                                            i2l3833 24D2  
                                          i2l4449 273A                                            i2l4537 264E  
                                          i2l4465 2632                                            i2l4473 24A6  
                                          i2l4457 2602                                            i2l4529 2972  
                                          i2l4553 243A                                            i2l4545 25BE  
                                          i2l4481 281E                                            i2l5417 2192  
                                          i2l4713 1AEA                                            i2l4705 1A80  
                                          i2l4801 2242                                            _INLVLA 000F08  
                                          _INLVLB 000F10                                            i2l3851 1B6A  
                                          i2l3843 1B20                                            i2l3835 24E4  
                                          i2l4539 2662                                            i2l4467 264A  
                                          i2l4475 24BE                                            i2l4459 261A  
                                          i2l4555 2462                                            i2l4547 25D2  
                                          i2l4715 1AFC                                            i2l4731 1D62  
                                          _INLVLC 000F18                                            _INLVLD 000F1D  
                                          i2l3861 1BE0                                            i2l3853 1B7A  
                                          i2l3845 1B30                                            i2l3837 24E6  
                                          i2l4557 247A                                            i2l4549 25EA  
                                          i2l4485 2916                                            i2l4717 1B16  
                                          i2l4741 1D8A                                            i2l4733 1D7A  
                                          i2l4493 2904                                            _INLVLE 000F25  
                                          i2l3855 1B8A                                            i2l3847 1B40  
                                          i2l3839 24F6                                            i2l4719 1B1C  
                                          i2l4751 1D9A                                            i2l4735 1D7E  
                                          i2l4727 1D4E                                            i2l4487 290C  
                                          i2l4495 2908                                            i2l5199 0032  
                                          i2l3857 1BA4                                            i2l3849 1B50  
                                          i2l4681 284E                                            i2l4745 1D92  
                                          i2l4729 1D5C                                            i2l4489 2910  
                                          i2l3859 1BC0                                            i2l4763 214C  
                                          i2l4499 28F4                                            i2l4765 2150  
                                          i2l4757 213C                                            i2l4677 2842  
                                          i2l4685 2832                                            i2l4693 1A58  
                                          i2l4781 28EC                                            i2l4759 2144  
                                          i2l4775 215E                                            i2l4679 2846  
                                          i2l4687 2836                                            i2l4783 28F0  
                                          i2l4791 2232                                            i2l4769 2156  
                                          i2l4689 283E                                            i2l4697 1A70  
                                          i2l4795 223A                                            i2l4787 2226  
                                          i2l4789 222A                                            _OSCFRQ 000ED9  
                                          _TX2REG 000E95                                            _TX2STA 000E99  
                               ?_I2C1_MasterClose 0001                           ??_I2C1_MasterDisableIrq 001A  
                               ?_I2C1_MasterStart 0001                                 ?_I2C1_MasterWrite 0001  
                              ??_I2C1_MasterClose 001A                                  _I2C1_DO_TX_EMPTY 213C  
                              ??_I2C1_MasterStart 001A                                ??_I2C1_MasterWrite 001C  
                                    vfprintf@cfmt 00EE                                         ??___aodiv 002A  
                                       ??___aomod 002A                               _MB85RC256V_I2C_ADDR 0F4F  
                                          _memcpy 23A6                                            _memset 15AE  
                                          clear_0 2358                                            clear_1 236C  
                                          clear_2 237E                                            clear_3 238A  
                                          clear_4 2396                                            isa$std 000001  
                     _EUSART2_FramingErrorHandler 00F7                                            _printf 26AA  
                                          pad@buf 00AC                                            dtoa@fp 00B4  
                        ??_I2C1_DO_SEND_ADR_WRITE 0002                                            _strlen 2588  
                               ?_I2C1_SetCallback 001A                            ??_I2C1_DO_RX_NACK_STOP 0001  
                __end_of_I2C1_SetInterruptHandler 28A6                             _I2C1_DO_SEND_ADR_READ 2842  
                                          fputc@c 001C                                    _PMD_Initialize 2768  
                                          fputs@c 0029                                            fputs@i 002A  
                                          fputs@s 0025                     ?_I2C1_SetDataCompleteCallback 0020  
                              ??_I2C1_SetCallback 001F                                      __mediumconst 0000  
                                          tblptrh 000FF7                                            tblptrl 000FF6  
                                          tblptru 000FF8                              _EUSART2_Transmit_ISR 24C2  
                                __end_of_vfprintf 22F8                                   ??_EUSART2_Write 001A  
        I2C1_SetInterruptHandler@InterruptHandler 001A                           _I2C1_DO_RX_NACK_RESTART 28DC  
                      fp__I2C1_DO_RX_NACK_RESTART 0000                             i2_I2C1_MasterClearIrq 293C  
                                 _eusart2RxBuffer 0092                                 _SYSTEM_Initialize 27D8  
                  I2C1_SetDataCompleteCallback@cb 0020                  i2I2C1_SetDataCompleteCallback@cb 0007  
                                 _eusart2TxBuffer 009A                                        __accesstop 0060  
                         __end_of__initialization 239C                   I2C1_MasterOperation@returnValue 001B  
                              ?_SYSTEM_Initialize 0001                                     ___rparam_used 000001  
                                      ___freelist 00A8                           ??_EUSART2_RxDataHandler 0001  
                         _rdBlkRegCompleteHandler 247E                        fp__rdBlkRegCompleteHandler 0000  
                                  __pcstackCOMRAM 0001                               ??_SYSTEM_Initialize 001D  
                __end_of_I2C1_MasterEnableRestart 297E                                     __end_of_fputc 1E8C  
                                   __end_of_fputs 243A                  fp__EUSART2_SetTxInterruptHandler 0000  
                  ?_EUSART2_SetTxInterruptHandler 001A                                     __end_of_putch 28D4  
                          __end_of_PMD_Initialize 2784                      ??_I2C1_DO_SEND_RESTART_WRITE 0001  
                         ??_I2C1_MasterSendTxData 0001                                    _seqWriteBuffer 0500  
                        ?_EUSART2_SetErrorHandler 001A                             ?_EUSART2_Transmit_ISR 0001  
                           __end_of_I2C1_DO_RESET 28B2                                           ??_fputc 0020  
                       __end_of_SYSTEM_Initialize 27F2                                           ??_fputs 0029  
                                         ??_putch 001B                         FRAM_WriteNBytes@startAddr 0026  
                                   _eusart2RxHead 0042                                     _eusart2TxHead 0044  
                                      __pbssBANK0 0060                                        __pbssBANK2 0200  
                                      __pbssBANK3 0300                                     _eusart2RxTail 0041  
                                   _eusart2TxTail 0043                             fp__EUSART2_Initialize 0000  
                            I2C1_Open@returnValue 001E                  ??_EUSART2_SetFramingErrorHandler 001D  
                 ?_EUSART2_SetFramingErrorHandler 001A                                        __pnvCOMRAM 0045  
                      i2I2C1_SetBuffer@bufferSize 0003                             _rd1RegCompleteHandler 25EE  
                               _I2C1_DO_SEND_STOP 28F4                             _wr1RegCompleteHandler 261E  
                        rd1RegCompleteHandler@ptr 000C                                     fp__I2C1_DO_RX 0000  
                                   fp__I2C1_DO_TX 0000                                   fp__I2C1_DO_IDLE 0000  
                                 fp__I2C1_DO_RCEN 0000                           fp__I2C1_DO_ADDRESS_NACK 0000  
                              ?_I2C1_DO_SEND_STOP 0001                                   _I2C1_MasterOpen 2746  
                                 _I2C1_MasterStop 2976                                   _I2C1_Initialize 280A  
                                         ?_memcpy 001A                                           ?_memset 001A  
                               fp__I2C1_DO_RX_ACK 0000                                           ?_printf 0100  
                                 ?_PMD_Initialize 0001                            ?_I2C1_DO_SEND_ADR_READ 0001  
                             ??_I2C1_DO_SEND_STOP 0001                                           ?_strlen 001A  
                           _eusart2RxStatusBuffer 008A                                 _I2C1_MasterIsNack 281E  
                                         _SP2BRGH 000E97                                           _SP2BRGL 000E96  
                                         _OSCCON1 000ED3                                           _OSCCON3 000ED5  
                                       _I2C1_Open 1BE6                       __end_of_EUSART2_Receive_ISR 1BE6  
                       ??_I2C1_DO_RX_NACK_RESTART 0001                                           _OSCTUNE 000ED8  
                               _I2C1_MasterSetIrq 2942                                           _SSP1ADD 000F92  
                                         _SLRCONA 000F09                                           _SLRCONB 000F11  
                                         _SLRCONC 000F19                                           _SLRCOND 000F1E  
                                         _SLRCONE 000F26                                           _SSP1BUF 000F91  
                        _I2C1_SetInterruptHandler 2898                                ?_I2C1_MasterIsNack 0001  
                          ?i2_I2C1_MasterClearIrq 0001                        ?_I2C1_DO_SEND_RESTART_READ 0001  
                  ??_I2C1_SetDataCompleteCallback 0025                                ?_I2C1_MasterSetIrq 0001  
                             ??_I2C1_MasterIsNack 0001                         __end_of_I2C1_DO_SEND_STOP 28FC  
                       ??_rdBlkRegCompleteHandler 000E                                I2C1_SetCallback@cb 001A  
                             ??_I2C1_MasterSetIrq 0001                                           __Hparam 0000  
                                         __Lparam 0000                    fp__EUSART2_DefaultErrorHandler 0000  
                                         ___aodiv 1424                                           ___aomod 1724  
                             fp__I2C1_DO_TX_EMPTY 0000                                         ?_vfprintf 00E8  
                                    _FRAM_ADDRESS 0F50                                      __psmallconst 0F00  
                                         __pcinit 2350                   __end_of_EUSART2_SetErrorHandler 2898  
                                   ?_I2C1_DO_IDLE 0001                                     ?_I2C1_DO_RCEN 0001  
                                         __ramtop 0F00                                 ??_FRAM_ReadNBytes 002B  
                                         __ptext0 1888                                           __ptext1 26AA  
                                         __ptext2 2292                                           __ptext3 1258  
                                         __ptext4 0F74                                           __ptext5 1990  
                                         __ptext6 2588                                           __ptext7 23F6  
                                         __ptext8 1DF6                                           __ptext9 28CA  
                        _I2C1_MasterEnableRestart 297A                         __end_of_I2C1_MasterIsNack 2832  
                    ?_I2C1_SetAddressNackCallback 0020             fp__EUSART2_DefaultOverrunErrorHandler 0000  
      __end_of_EUSART2_DefaultOverrunErrorHandler 2924              ??_EUSART2_DefaultOverrunErrorHandler 0001  
             ?_EUSART2_DefaultOverrunErrorHandler 0001                _EUSART2_DefaultOverrunErrorHandler 291C  
                           _OSCILLATOR_Initialize 27F2                            ??_EUSART2_Transmit_ISR 0001  
                       __end_of_I2C1_MasterSetIrq 2948                          __end_of_I2C1_DO_TX_EMPTY 21BA  
                        ??_PIN_MANAGER_Initialize 001A                          wr1RegCompleteHandler@ptr 000C  
                                      ?_I2C1_Open 0001                           fp__I2C1_DO_RX_NACK_STOP 0000  
                        ?_I2C1_CallbackReturnStop 000C                 __end_of_I2C1_DO_SEND_RESTART_READ 2914  
                            end_of_initialization 239C                        __end_of_I2C1_MasterSendAck 294E  
                             _I2C1_MasterClearIrq 2930            __end_ofi2_I2C1_SetDataCompleteCallback 27D8  
                  i2_I2C1_SetDataCompleteCallback 27BC                                           memcpy@d 0021  
                                         memcpy@n 001E                                           memcpy@s 0023  
                                         fputc@fp 001E                                           memset@c 001C  
                                         memset@k 0022                                           memset@n 001E  
                                         memset@s 0024                        __end_of_I2C1_MasterStartRx 296E  
                                         fputs@fp 0027                            ?_rd1RegCompleteHandler 000C  
                          _I2C1_DO_SEND_ADR_WRITE 2832                      __end_of_I2C1_DO_SEND_RESTART 2904  
                         __end_of_I2C1_MasterOpen 2768                            ?_wr1RegCompleteHandler 000C  
                         __end_of_I2C1_MasterStop 297A                           __end_of_I2C1_Initialize 281E  
                       ?_I2C1_CallbackReturnReset 000C                                _EUSART2_Initialize 1E8C  
                   __end_of_I2C1_MasterDisableIrq 2930                                       _I2C1_Status 0060  
                               __end_of_vfpfcnvrt 1424                                           postdec1 000FE5  
                                         postdec2 000FDD                                           postinc0 000FEE  
                                         postinc1 000FE6                                           postinc2 000FDE  
                               fp__I2C1_MasterIsr 0000                               _I2C1_MasterSendNack 294E  
             __end_of_I2C1_SetAddressNackCallback 27BC                       _I2C1_SetAddressNackCallback 27A0  
                                      ??_vfprintf 002E                              ?_I2C1_MasterClearIrq 0001  
                                  ??_I2C1_DO_IDLE 0001                                    ??_I2C1_DO_RCEN 0001  
              __end_of_I2C1_DO_SEND_RESTART_WRITE 290C                        _I2C1_DO_SEND_RESTART_WRITE 2904  
                             ?_EUSART2_Initialize 0001                                           strlen@a 001C  
                             _EUSART2_is_rx_ready 000000                                           strlen@s 001A  
                             _EUSART2_is_tx_ready 000000                   __end_of_rdBlkRegCompleteHandler 24C2  
                    FRAM_ReadNBytes@receiveBuffer 0027                     ??_I2C1_SetAddressNackCallback 0025  
                 I2C1_SetDataCompleteCallback@ptr 0023                 i2I2C1_SetDataCompleteCallback@ptr 000A  
                  I2C1_CallbackReturnReset@funPtr 000C                                        main@i_1586 0106  
                            ?_I2C1_MasterSendNack 0001                                     _seqReadBuffer 0300  
                            ??_EUSART2_Initialize 001D                        rdBlkRegCompleteHandler@ptr 000C  
                                i2_I2C1_SetBuffer 2722                                      _EUSART2_Read 000000  
                   __end_of_EUSART2_RxDataHandler 26FE         fp__wr1RegCompleteHandler@MB85RC256V$F1610 0000  
  __end_of_wr1RegCompleteHandler@MB85RC256V$F1610 267E            _wr1RegCompleteHandler@MB85RC256V$F1610 264E  
         ?_wr1RegCompleteHandler@MB85RC256V$F1612 000C         ?_rdBlkRegCompleteHandler@MB85RC256V$F1621 000C  
        ??_wr1RegCompleteHandler@MB85RC256V$F1614 000E        ??_rdBlkRegCompleteHandler@MB85RC256V$F1623 000E  
       fp__rd1RegCompleteHandler@MB85RC256V$F1625 0000    __end_of_rd1RegCompleteHandler@MB85RC256V$F1625 25EE  
          _rd1RegCompleteHandler@MB85RC256V$F1625 25BE       fp__rdBlkRegCompleteHandler@MB85RC256V$F1619 0000  
__end_of_rdBlkRegCompleteHandler@MB85RC256V$F1619 247E           ?_rd1RegCompleteHandler@MB85RC256V$F1627 000C  
        _rdBlkRegCompleteHandler@MB85RC256V$F1619 243A          ??_rd1RegCompleteHandler@MB85RC256V$F1629 000E  
                    __end_of_INTERRUPT_Initialize 295E                             ??_I2C1_MasterClearIrq 001A  
                                     vfpfcnvrt@ap 00DC                                       vfpfcnvrt@fp 00D8  
                                     vfpfcnvrt@ll 00E0                                    _I2C1_DO_RX_ACK 28EC  
                                  __end_of_memcpy 23F6                            ?_OSCILLATOR_Initialize 0001  
                                  __end_of_memset 1724                   __end_of_I2C1_CallbackReturnStop 2976  
                                  __end_of_printf 26D4                     __end_of_I2C1_MasterSendTxData 291C  
                                  __end_of_strlen 25BE                               start_initialization 2350  
                                     ??_I2C1_Open 001D                                        malloc@lock 00A2  
                                     __end_of_abs 2548                                       __end_of_pad 1A58  
                           ??_I2C1_MasterSendNack 0001     EUSART2_SetRxInterruptHandler@interruptHandler 001A  
   EUSART2_SetTxInterruptHandler@interruptHandler 001A                                       putch@txData 001B  
                           i2I2C1_SetCallback@idx 0006                             __end_of_EUSART2_Write 2350  
                           i2I2C1_SetCallback@ptr 0004                          I2C1_SetBuffer@bufferSize 001C  
                      FRAM_ReadNBytes@bufferBlock 00AC                                  ?_I2C1_MasterOpen 0001  
          __end_of_EUSART2_SetOverrunErrorHandler 287C                    _EUSART2_SetOverrunErrorHandler 286E  
                                ?_I2C1_MasterStop 0001                                  ?_I2C1_Initialize 0001  
                                     vfprintf@fmt 00EA                                  _FRAM_WriteNBytes 1C9C  
                                ??_PMD_Initialize 001A                            __end_of_I2C1_DO_RX_ACK 28F4  
                         ??_I2C1_DO_SEND_ADR_READ 0001                                          ??_memcpy 0020  
                                        ??_memset 0020                                        memset@dest 001A  
                      ??_I2C1_SetInterruptHandler 001D                                          ??_printf 002E  
                                        ??_strlen 001C                                  I2C1_Open@address 001D  
                     __end_of_MB85RC256V_I2C_ADDR 0F50                                    _eusart2RxCount 0040  
                                       ___heap_hi 0D00                                       __pbssBIGRAM 0500  
                         ??i2_I2C1_MasterClearIrq 0001                                       __pbssCOMRAM 002E  
                            _I2C1_DO_SEND_RESTART 28FC                                     __pcstackBANK0 00AA  
                                   __pcstackBANK1 0100                                     __pcstackBANK4 0400  
                                ___aodiv@dividend 001A                            i2I2C1_SetBuffer@buffer 0001  
                         fp__EUSART2_Transmit_ISR 0000                                 main@framDataArray 0400  
                     ??_I2C1_DO_SEND_RESTART_READ 0001                               EUSART2_Write@txData 001A  
                            __end_of_I2C1_DO_IDLE 28CA                   ??_EUSART2_SetRxInterruptHandler 001D  
                            __end_of_I2C1_DO_RCEN 28BE                            fp__EUSART2_Receive_ISR 0000  
                   I2C1_SetAddressNackCallback@cb 0020                                         __pnvBANK0 00F1  
                       fp__I2C1_DO_SEND_ADR_WRITE 0000                                   _FRAM_ReadNBytes 1F1C  
                           __end_of_fsmStateTable 0F31                            _PIN_MANAGER_Initialize 1FAA  
                                       _dtoa$2297 00C6                            _MSSP1_InterruptHandler 002E  
                      ??_I2C1_MasterEnableRestart 0001                                         __pintcode 0008  
                                  _I2C1_MasterFsm 21BA                                    _I2C1_MasterIsr 2936  
                                fp__I2C1_DO_RESET 0000                                          ?___aodiv 001A  
                                        ?___aomod 001A                                   ?_I2C1_DO_RX_ACK 0001  
                                ___aodiv@quotient 00AC                 _EUSART2_TxDefaultInterruptHandler 00FD  
                                _I2C1_MasterClose 2962                                    _I2C1_SetBuffer 26FE  
                    ??_INTERRUPT_InterruptManager 0010                                  _I2C1_MasterStart 295E  
                                _I2C1_MasterWrite 28D4                                          _BAUD2CON 000E9A  
                                     __smallconst 0F00                             ?_I2C1_DO_SEND_RESTART 0001  
                    ?_EUSART2_DefaultErrorHandler 0001                                 ?_I2C1_DO_TX_EMPTY 0001  
                __end_of_I2C1_CallbackReturnReset 2972                                ??_I2C1_DO_TX_EMPTY 000E  
                         ??_rd1RegCompleteHandler 000E                           ?_I2C1_DO_SEND_ADR_WRITE 0001  
                       I2C1_MasterSendTxData@data 0001                              _INTERRUPT_Initialize 295A  
                         ??_wr1RegCompleteHandler 000E                                  _I2C1_SetCallback 2034  
         EUSART2_SetErrorHandler@interruptHandler 001A                                        _I2C1_DO_RX 1D4E  
                                      _I2C1_DO_TX 1A58                                          _PIE3bits 000EC0  
                                      _I2C1_Close 267E                            __end_of_I2C1_MasterFsm 2226  
                          __end_of_I2C1_MasterIsr 293C                      __end_of_I2C1_MasterEnableIrq 292A  
                                        i2u300_48 2206                                          i2u300_49 2220  
                                        i2u160_40 26F6                                          i2u320_40 009A  
                                        i2u160_41 26F2                                          i2u320_41 0096  
                    __end_of_I2C1_MasterGetRxData 296A                                          i2u322_40 00C8  
                                        i2u321_48 00A0                                          i2u322_41 00C4  
                                        i2u321_49 00B6                                          i2u243_40 20CE  
                                        i2u323_40 00D6                                          i2u315_40 0040  
                                        i2u243_41 20CA                                          i2u323_41 00D2  
                                        i2u315_41 003C                                          i2u316_40 0050  
                                        i2u316_41 004C                                          i2u325_40 0102  
                                        i2u324_48 00DC                                          i2u317_40 005E  
                                        i2u325_41 00FE                                          i2u324_49 00F0  
                                        i2u317_41 005A                                          i2u262_40 2732  
                                        i2u326_40 0110                                          i2u262_41 272E  
                                        i2u326_41 010C                                          i2u191_40 24D2  
                                        i2u263_40 282E                                          i2u319_40 008C  
                                        i2u318_48 0064                                          i2u191_41 24CE  
                                        i2u263_41 2828                                          i2u319_41 0088  
                                        i2u318_49 007A                                          i2u263_46 2830  
                                        i2u192_40 24F6                                          i2u192_41 24F2  
                                        i2u193_40 1B40                                          i2u193_41 1B3C  
                                        i2u195_40 1B7A                                          i2u194_48 1B56  
                                        i2u283_40 1A6C                                          i2u195_41 1B76  
                                        i2u194_49 1B6A                                          i2u283_41 1A68  
                                        i2u197_40 1BC0                                          i2u196_48 1B90  
                                        i2u285_40 1B16                                          i2u284_48 1A9A  
                                        i2u197_41 1BBC                                          i2u196_49 1BA4  
                                        i2u285_41 1B12                                          i2u284_49 1AAE  
                                        _PIR3bits 000EC8                                          i2u286_40 1D7A  
                                        i2u286_41 1D76                                          i2u198_48 1BC6  
                                        i2u198_49 1BDC                                          i2u287_48 1DA8  
                                        i2u287_49 1DBC                                          i2u288_48 216C  
                                        i2u288_49 2180                                          i2u289_48 2254  
                                        i2u298_40 21CE                                          i2u289_49 2268  
                                        i2u298_41 21CA                                          i2u299_40 21E2  
                                        i2u299_41 21DE                             FRAM_ReadNBytes@msgHdr 00AA  
                              _I2C1_MasterSendAck 2948                         _I2C1_DO_SEND_RESTART_READ 290C  
                                        _SSP1CON1 000F95                                          _SSP1CON2 000F96  
                              _EUSART2_is_tx_done 000000                            __end_of_I2C1_SetBuffer 2722  
                                        _SSP1STAT 000F94              __end_of_I2C1_SetDataCompleteCallback 27A0  
                ??i2_I2C1_SetDataCompleteCallback 000C                   ?i2_I2C1_SetDataCompleteCallback 0007  
                    _I2C1_SetDataCompleteCallback 2784                                _I2C1_MasterStartRx 296A  
                                       _vfpfcnvrt 1258                       ?_I2C1_DO_SEND_RESTART_WRITE 0001  
                             ?_I2C1_MasterSendAck 0001                          ?_I2C1_DO_RX_NACK_RESTART 0001  
                        __end_ofi2_I2C1_SetBuffer 2746                              fp__I2C1_DO_SEND_STOP 0000  
                             ?_I2C1_MasterStartRx 0001                      __end_of_I2C1_DO_ADDRESS_NACK 2292  
       wr1RegCompleteHandler@MB85RC256V$F1610@ptr 000C         rd1RegCompleteHandler@MB85RC256V$F1625@ptr 000C  
                  __end_of_I2C1_DO_SEND_ADR_WRITE 2842                     ??_EUSART2_DefaultErrorHandler 0001  
     rdBlkRegCompleteHandler@MB85RC256V$F1619@ptr 000C                                     _I2C1_DO_RESET 28A6  
                      __end_ofi2_I2C1_SetCallback 213C                             ?_INTERRUPT_Initialize 0001  
                           I2C1_Close@returnValue 001A                          ?_rdBlkRegCompleteHandler 000C  
                         __end_of_FRAM_ReadNBytes 1FAA                               I2C1_SetCallback@idx 001F  
                             I2C1_SetCallback@ptr 001D                                         malloc@end 003B  
                                       malloc@cur 003D                           _EUSART2_SetErrorHandler 288A  
                            ??_I2C1_MasterSendAck 0001                       _EUSART2_OverrunErrorHandler 00F4  
                            i2I2C1_SetCallback@cb 0001                      __end_of_I2C1_MasterOperation 2588  
                            ??_I2C1_MasterStartRx 0001                                          __Hrparam 0000  
                                 ?_I2C1_MasterFsm 0001                                   ?_I2C1_MasterIsr 0001  
           __end_of_EUSART2_SetRxInterruptHandler 286E                     _EUSART2_SetRxInterruptHandler 2860  
                                       memcpy@tmp 0020                                        vfprintf@ap 00EC  
                                        __Lrparam 0000                                        vfprintf@fp 00E8  
                           _I2C1_MasterDisableIrq 292A                           ??_OSCILLATOR_Initialize 001A  
                                 ?_I2C1_SetBuffer 001A                                        ?_vfpfcnvrt 00D8  
                                 ___aodiv@divisor 0022                                   ___aodiv@counter 00AA  
                          ??_I2C1_DO_SEND_RESTART 0001                              _EUSART2_ErrorHandler 00F1  
                            FRAM_WriteNBytes@data 0028                                    ?_I2C1_DO_RESET 0001  
                        __end_of_FRAM_WriteNBytes 1D4E                                          __ptext10 22F8  
                                        __ptext11 2506                                          __ptext20 1E8C  
                                        __ptext12 1724                                          __ptext21 2852  
                                        __ptext13 1424                                          __ptext30 2784  
                                        __ptext22 2860                                          __ptext14 27D8  
                                        __ptext31 26FE                                          __ptext23 286E  
                                        __ptext15 2768                                          __ptext40 295E  
                                        __ptext32 27A0                                          __ptext24 287C  
                                        __ptext16 1FAA                                          __ptext41 267E  
                                        __ptext33 2034                                          __ptext25 288A  
                                        __ptext17 27F2                                          __ptext50 28A6  
                                        __ptext42 292A                                          __ptext34 1BE6  
                                        __ptext26 1C9C                                          __ptext18 295A  
                                        __ptext51 28DC                                          __ptext43 2962  
                                        __ptext35 2898                                          __ptext27 15AE  
                                        __ptext19 280A                                          __ptext60 1A58  
                                        __ptext52 28E4                                          __ptext44 2930  
                                        __ptext36 2746                                          __ptext28 23A6  
                                        __ptext61 2832                                          __ptext53 28EC  
                                        __ptext37 2924                                          __ptext29 1F1C  
                                        __ptext70 294E                                          __ptext62 2842  
                                        __ptext54 28F4                                          __ptext46 2936  
                                        __ptext38 28D4                                          __ptext71 296A  
                                        __ptext63 28BE                                          __ptext55 28FC  
                                        __ptext47 21BA                                          __ptext39 2548  
                                        __ptext80 27BC                                          __ptext72 25BE  
                                        __ptext64 213C                                          __ptext56 2904  
                                        __ptext48 293C                                          __ptext81 20B8  
                                        __ptext73 243A                                          __ptext65 2942  
                                        __ptext57 290C                                          __ptext49 2226  
                                        __ptext90 26D4                                          __ptext82 2722  
                                        __ptext74 296E                                          __ptext66 281E  
                                        __ptext58 28B2                                          __ptext91 0000  
                                        __ptext83 2976                                          __ptext75 2972  
                                        __ptext67 2914                                          __ptext59 1D4E  
                                        __ptext84 297A                                          __ptext76 25EE  
                                        __ptext68 2948                                          __ptext85 24C2  
                                        __ptext77 247E                                          __ptext69 2966  
                                        __ptext86 1B20                                          __ptext78 261E  
                                        __ptext87 291C                                          __ptext79 264E  
                                        __ptext88 297E                                          __ptext89 2954  
                                    _SSP1CON1bits 000F95                                      _SSP1CON2bits 000F96  
                        _I2C1_CallbackReturnReset 296E                       fp__I2C1_CallbackReturnReset 0000  
                                     ?_I2C1_DO_RX 0001                                       ?_I2C1_DO_TX 0001  
           fp__EUSART2_DefaultFramingErrorHandler 0000        __end_of_EUSART2_DefaultFramingErrorHandler 2980  
            ??_EUSART2_DefaultFramingErrorHandler 0001               ?_EUSART2_DefaultFramingErrorHandler 0001  
              _EUSART2_DefaultFramingErrorHandler 297E                       __end_of_I2C1_MasterClearIrq 2936  
                    __end_of_I2C1_DO_RX_NACK_STOP 28EC                                       ?_I2C1_Close 0001  
                                      _RC2STAbits 000E98    EUSART2_SetOverrunErrorHandler@interruptHandler 001A  
                                        isa$xinst 000000                                          int$flags 0046  
                 __end_of_I2C1_DO_RX_NACK_RESTART 28E4                          I2C1_MasterOperation@read 001A  
                                        _vfprintf 2292                __end_of_INTERRUPT_InterruptManager 0140  
                      _INTERRUPT_InterruptManager 0008                             _EUSART2_RxDataHandler 26D4  
                                       printf@fmt 0100                                      _SSP1STATbits 000F94  
                   __end_of_I2C1_DO_SEND_ADR_READ 2852                                      _I2C1_DO_IDLE 28BE  
                                    _I2C1_DO_RCEN 28B2                                  ___aomod@dividend 001A  
                     __end_of_I2C1_MasterSendNack 2954                  ??_EUSART2_SetOverrunErrorHandler 001D  
                 ?_EUSART2_SetOverrunErrorHandler 001A                                        _INTCONbits 000FF2  
                   fp__I2C1_DO_SEND_RESTART_WRITE 0000                                          memcpy@d1 001A  
                                        memcpy@s1 001C                    I2C1_SetAddressNackCallback@ptr 0023  
                            _I2C1_MasterEnableIrq 2924                              _I2C1_MasterGetRxData 2966  
                   __end_ofi2_I2C1_MasterClearIrq 2942                             _I2C1_MasterSendTxData 2914  
                          ??_INTERRUPT_Initialize 001A                         ??_EUSART2_SetErrorHandler 001D  
                                        intlevel2 0000                                  ?_FRAM_ReadNBytes 0025  
                        __end_of_I2C1_MasterClose 2966                               FRAM_WriteNBytes@len 002A  
                         ?_PIN_MANAGER_Initialize 0001                          __end_of_I2C1_MasterStart 2962  
                        __end_of_I2C1_MasterWrite 28DC                          FRAM_ReadNBytes@startAddr 0025  
                                ??_I2C1_DO_RX_ACK 0001                           _I2C1_CallbackReturnStop 2972  
                      fp__I2C1_CallbackReturnStop 0000                              _I2C1_DO_ADDRESS_NACK 2226  
                          ?_I2C1_MasterDisableIrq 0001                                          printf@ap 0104  
  EUSART2_SetFramingErrorHandler@interruptHandler 001A                  fp__EUSART2_SetRxInterruptHandler 0000  
                  ?_EUSART2_SetRxInterruptHandler 001A                                   ___aomod@divisor 0022  
                                     ??_vfpfcnvrt 00DE                                   ___aomod@counter 002A  
                         FRAM_ReadNBytes@numBytes 0029                                  fp__EUSART2_Write 0000  
                             _EUSART2_Receive_ISR 1B20                          __end_of_I2C1_SetCallback 20B8  
                                      _SSP1DATPPS 000EB3                                        _SSP1CLKPPS 000EB2  
                                 ??_I2C1_DO_RESET 0001                              _I2C1_MasterOperation 2548  
                           ?_I2C1_MasterEnableIrq 0001                             ?_I2C1_MasterGetRxData 0001  
                                      _TX2STAbits 000E99                                      ___aodiv@sign 00AB  
                  __end_of_PIN_MANAGER_Initialize 2034                   ??_EUSART2_SetTxInterruptHandler 001D  
                       ?_I2C1_SetInterruptHandler 001A                     __end_of_rd1RegCompleteHandler 261E  
                            ?_EUSART2_Receive_ISR 0001                                _eusart2RxLastError 003F  
                   __end_of_wr1RegCompleteHandler 264E                                      ___aomod@sign 002B  
               _EUSART2_RxDefaultInterruptHandler 00FA                             ?_I2C1_DO_ADDRESS_NACK 0001  
